ARM GAS  /tmp/cckHt7Sr.s 			page 1


   1              		.syntax unified
   2              		.cpu cortex-m4
   3              		.eabi_attribute 27, 3	@ Tag_ABI_HardFP_use
   4              		.eabi_attribute 28, 1	@ Tag_ABI_VFP_args
   5              		.fpu fpv4-sp-d16
   6              		.eabi_attribute 20, 1	@ Tag_ABI_FP_denormal
   7              		.eabi_attribute 21, 1	@ Tag_ABI_FP_exceptions
   8              		.eabi_attribute 23, 3	@ Tag_ABI_FP_number_model
   9              		.eabi_attribute 24, 1	@ Tag_ABI_align8_needed
  10              		.eabi_attribute 25, 1	@ Tag_ABI_align8_preserved
  11              		.eabi_attribute 26, 1	@ Tag_ABI_enum_size
  12              		.eabi_attribute 30, 4	@ Tag_ABI_optimization_goals
  13              		.eabi_attribute 34, 1	@ Tag_CPU_unaligned_access
  14              		.eabi_attribute 18, 4	@ Tag_ABI_PCS_wchar_t
  15              		.file	"diskio.c"
  16              	@ GNU C (GNU Tools for ARM Embedded Processors) version 4.7.4 20130913 (release) [ARM/embedded-4_7-
  17              	@	compiled by GNU C version 4.7.3, GMP version 5.0.5, MPFR version 3.1.1-p2, MPC version 0.9
  18              	@ GGC heuristics: --param ggc-min-expand=100 --param ggc-min-heapsize=131072
  19              	@ options passed:  -I . -I ../ -I cmsis/ -imultilib armv7e-m/fpu
  20              	@ -iprefix /usr/bin/../lib/gcc/arm-none-eabi/4.7.4/
  21              	@ -isysroot /usr/bin/../arm-none-eabi -MD diskio.d -MF .dep/diskio.o.d -MP
  22              	@ -MQ diskio.o -D__USES_INITFINI__ -D __FPU_USED=1 -D __arm__
  23              	@ -D __ASSEMBLY__ -D USE_STDPERIPH_DRIVER -D STM32F4XX -D HSE_VALUE=8000000
  24              	@ -D __FPU_PRESENT=1 -D __FPU_USED=1 -D STM32F405VG -D USE_USB_OTG_FS
  25              	@ -D RUN_FROM_FLASH=1 diskio.c -mthumb -mcpu=cortex-m4 -mfloat-abi=hard
  26              	@ -mfpu=fpv4-sp-d16 -mthumb -auxbase-strip diskio.o -gdwarf-2 -Os -Wall
  27              	@ -Wstrict-prototypes -std=gnu99 -falign-functions=16 -fno-inline
  28              	@ -fomit-frame-pointer -fverbose-asm -ffunction-sections -fdata-sections
  29              	@ options enabled:  -fauto-inc-dec -fbranch-count-reg -fcaller-saves
  30              	@ -fcombine-stack-adjustments -fcommon -fcompare-elim -fcprop-registers
  31              	@ -fcrossjumping -fcse-follow-jumps -fdata-sections -fdebug-types-section
  32              	@ -fdefer-pop -fdelete-null-pointer-checks -fdevirtualize -fdwarf2-cfi-asm
  33              	@ -fearly-inlining -feliminate-unused-debug-types -fexpensive-optimizations
  34              	@ -fforward-propagate -ffunction-cse -ffunction-sections -fgcse -fgcse-lm
  35              	@ -fgnu-runtime -fguess-branch-probability -fident -fif-conversion
  36              	@ -fif-conversion2 -findirect-inlining -finline-atomics -finline-functions
  37              	@ -finline-functions-called-once -finline-small-functions -fipa-cp
  38              	@ -fipa-profile -fipa-pure-const -fipa-reference -fipa-sra
  39              	@ -fira-share-save-slots -fira-share-spill-slots -fivopts
  40              	@ -fkeep-static-consts -fleading-underscore -fmath-errno -fmerge-constants
  41              	@ -fmerge-debug-strings -fomit-frame-pointer -foptimize-register-move
  42              	@ -foptimize-sibling-calls -fpartial-inlining -fpeephole -fpeephole2
  43              	@ -fprefetch-loop-arrays -freg-struct-return -fregmove -frename-registers
  44              	@ -freorder-blocks -freorder-functions -frerun-cse-after-loop
  45              	@ -fsched-critical-path-heuristic -fsched-dep-count-heuristic
  46              	@ -fsched-group-heuristic -fsched-interblock -fsched-last-insn-heuristic
  47              	@ -fsched-rank-heuristic -fsched-spec -fsched-spec-insn-heuristic
  48              	@ -fsched-stalled-insns-dep -fschedule-insns2 -fsection-anchors
  49              	@ -fshow-column -fshrink-wrap -fsigned-zeros -fsplit-ivs-in-unroller
  50              	@ -fsplit-wide-types -fstrict-aliasing -fstrict-overflow
  51              	@ -fstrict-volatile-bitfields -fthread-jumps -ftoplevel-reorder
  52              	@ -ftrapping-math -ftree-bit-ccp -ftree-builtin-call-dce -ftree-ccp
  53              	@ -ftree-ch -ftree-copy-prop -ftree-copyrename -ftree-cselim -ftree-dce
  54              	@ -ftree-dominator-opts -ftree-dse -ftree-forwprop -ftree-fre
  55              	@ -ftree-loop-if-convert -ftree-loop-im -ftree-loop-ivcanon
  56              	@ -ftree-loop-optimize -ftree-parallelize-loops= -ftree-phiprop -ftree-pre
  57              	@ -ftree-pta -ftree-reassoc -ftree-scev-cprop -ftree-sink
ARM GAS  /tmp/cckHt7Sr.s 			page 2


  58              	@ -ftree-slp-vectorize -ftree-sra -ftree-switch-conversion
  59              	@ -ftree-tail-merge -ftree-ter -ftree-vect-loop-version -ftree-vrp
  60              	@ -funit-at-a-time -funroll-loops -fvar-tracking -fvar-tracking-assignments
  61              	@ -fverbose-asm -fweb -fzero-initialized-in-bss -mlittle-endian
  62              	@ -msched-prolog -mthumb -munaligned-access -mvectorize-with-neon-quad
  63              	
  64              		.text
  65              	.Ltext0:
  66              		.cfi_sections	.debug_frame
  67              		.section	.text.disk_initialize,"ax",%progbits
  68              		.align	1
  69              		.global	disk_initialize
  70              		.thumb
  71              		.thumb_func
  72              		.type	disk_initialize, %function
  73              	disk_initialize:
  74              	.LFB110:
  75              		.file 1 "diskio.c"
   1:diskio.c      **** /*-----------------------------------------------------------------------*/
   2:diskio.c      **** /* Low level disk I/O module skeleton for FatFs     (C)ChaN, 2007        */
   3:diskio.c      **** /*-----------------------------------------------------------------------*/
   4:diskio.c      **** /* This is a stub disk I/O module that acts as front end of the existing */
   5:diskio.c      **** /* disk I/O modules and attach it to FatFs module with common interface. */
   6:diskio.c      **** /*-----------------------------------------------------------------------*/
   7:diskio.c      **** 
   8:diskio.c      **** #include "diskio.h"
   9:diskio.c      **** 
  10:diskio.c      **** #include <string.h> // memcpy
  11:diskio.c      **** 
  12:diskio.c      **** #include "stm32f4xx.h"
  13:diskio.c      **** #include "stm32f4_discovery_sdio_sd.h"
  14:diskio.c      **** 
  15:diskio.c      **** #define BLOCK_SIZE            512 /* Block Size in Bytes */
  16:diskio.c      **** 
  17:diskio.c      **** /*-----------------------------------------------------------------------*/
  18:diskio.c      **** /* Inidialize a Drive                                                    */
  19:diskio.c      **** 
  20:diskio.c      **** DSTATUS disk_initialize (
  21:diskio.c      ****         BYTE drv                                /* Physical drive nmuber (0..) */
  22:diskio.c      **** )
  23:diskio.c      **** {
  76              		.loc 1 23 0
  77              		.cfi_startproc
  78              		@ args = 0, pretend = 0, frame = 0
  79              		@ frame_needed = 0, uses_anonymous_args = 0
  80              	.LVL0:
  81 0000 10B5     		push	{r4, lr}	@
  82              	.LCFI0:
  83              		.cfi_def_cfa_offset 8
  84              		.cfi_offset 4, -8
  85              		.cfi_offset 14, -4
  86              		.loc 1 23 0
  87 0002 0446     		mov	r4, r0	@ drv, drv
  88              	.LVL1:
  24:diskio.c      **** 	DSTATUS stat = 0;
  25:diskio.c      **** 
  26:diskio.c      **** #ifdef DBGIO
ARM GAS  /tmp/cckHt7Sr.s 			page 3


  27:diskio.c      **** 	printf("disk_initialize %d\n", drv);
  28:diskio.c      **** #endif
  29:diskio.c      **** 	
  30:diskio.c      ****  	/* Supports only single drive */
  31:diskio.c      ****   if (drv)
  32:diskio.c      ****   {
  33:diskio.c      ****     stat |= STA_NOINIT;
  34:diskio.c      ****   }
  35:diskio.c      **** 	
  36:diskio.c      **** 	/*-------------------------- SD Init ----------------------------- */
  37:diskio.c      ****   if (SD_Init() !=SD_OK)
  89              		.loc 1 37 0
  90 0004 FFF7FEFF 		bl	SD_Init	@
  91              	.LVL2:
  92 0008 18B9     		cbnz	r0, .L3	@,
  24:diskio.c      **** 	DSTATUS stat = 0;
  93              		.loc 1 24 0
  94 000a 201C     		adds	r0, r4, #0	@ stat, drv,
  95 000c 18BF     		it	ne
  96 000e 0120     		movne	r0, #1	@ stat,
  97 0010 10BD     		pop	{r4, pc}	@
  98              	.L3:
  38:diskio.c      ****   {
  39:diskio.c      **** #ifdef DBGIO
  40:diskio.c      **** 		puts("Initialization Fail");
  41:diskio.c      **** #endif
  42:diskio.c      ****     stat |= STA_NOINIT;
  99              		.loc 1 42 0
 100 0012 0120     		movs	r0, #1	@ stat,
 101              	.LVL3:
  43:diskio.c      ****   }
  44:diskio.c      **** 
  45:diskio.c      **** 	return(stat);
  46:diskio.c      **** }
 102              		.loc 1 46 0
 103 0014 10BD     		pop	{r4, pc}	@
 104              		.cfi_endproc
 105              	.LFE110:
 106              		.size	disk_initialize, .-disk_initialize
 107              		.section	.text.disk_status,"ax",%progbits
 108              		.align	1
 109              		.global	disk_status
 110              		.thumb
 111              		.thumb_func
 112              		.type	disk_status, %function
 113              	disk_status:
 114              	.LFB111:
  47:diskio.c      **** 
  48:diskio.c      **** 
  49:diskio.c      **** 
  50:diskio.c      **** /*-----------------------------------------------------------------------*/
  51:diskio.c      **** /* Return Disk Status                                                    */
  52:diskio.c      **** 
  53:diskio.c      **** DSTATUS disk_status (
  54:diskio.c      ****         BYTE drv                /* Physical drive nmuber (0..) */
  55:diskio.c      **** )
  56:diskio.c      **** {
ARM GAS  /tmp/cckHt7Sr.s 			page 4


 115              		.loc 1 56 0
 116              		.cfi_startproc
 117              		@ args = 0, pretend = 0, frame = 0
 118              		@ frame_needed = 0, uses_anonymous_args = 0
 119              	.LVL4:
 120 0000 08B5     		push	{r3, lr}	@
 121              	.LCFI1:
 122              		.cfi_def_cfa_offset 8
 123              		.cfi_offset 3, -8
 124              		.cfi_offset 14, -4
  57:diskio.c      **** 	DSTATUS stat = 0;
  58:diskio.c      **** 	
  59:diskio.c      **** 	if (SD_Detect() != SD_PRESENT)
 125              		.loc 1 59 0
 126 0002 FFF7FEFF 		bl	SD_Detect	@
 127              	.LVL5:
  60:diskio.c      **** 		stat |= STA_NODISK;
  61:diskio.c      **** 
  62:diskio.c      **** 	// STA_NOTINIT - Subsystem not initailized
  63:diskio.c      **** 	// STA_PROTECTED - Write protected, MMC/SD switch if available
  64:diskio.c      **** 	
  65:diskio.c      **** 	return(stat);
  66:diskio.c      **** }
 128              		.loc 1 66 0
 129 0006 0128     		cmp	r0, #1	@,
 130 0008 14BF     		ite	ne	@
 131 000a 0220     		movne	r0, #2	@,,
 132 000c 0020     		moveq	r0, #0	@,,
 133              	.LVL6:
 134 000e 08BD     		pop	{r3, pc}	@
 135              		.cfi_endproc
 136              	.LFE111:
 137              		.size	disk_status, .-disk_status
 138              		.section	.text.disk_read,"ax",%progbits
 139              		.align	1
 140              		.global	disk_read
 141              		.thumb
 142              		.thumb_func
 143              		.type	disk_read, %function
 144              	disk_read:
 145              	.LFB112:
  67:diskio.c      **** 
  68:diskio.c      **** 
  69:diskio.c      **** 
  70:diskio.c      **** /*-----------------------------------------------------------------------*/
  71:diskio.c      **** /* Read Sector(s)                                                        */
  72:diskio.c      **** 
  73:diskio.c      **** DRESULT disk_read (
  74:diskio.c      ****         BYTE drv,               /* Physical drive nmuber (0..) */
  75:diskio.c      ****         BYTE *buff,             /* Data buffer to store read data */
  76:diskio.c      ****         DWORD sector,   				/* Sector address (LBA) */
  77:diskio.c      ****         BYTE count              /* Number of sectors to read (1..255) */
  78:diskio.c      **** )
  79:diskio.c      **** {
 146              		.loc 1 79 0
 147              		.cfi_startproc
 148              		@ args = 0, pretend = 0, frame = 512
ARM GAS  /tmp/cckHt7Sr.s 			page 5


 149              		@ frame_needed = 0, uses_anonymous_args = 0
 150              	.LVL7:
 151 0000 2DE9F043 		push	{r4, r5, r6, r7, r8, r9, lr}	@
 152              	.LCFI2:
 153              		.cfi_def_cfa_offset 28
 154              		.cfi_offset 4, -28
 155              		.cfi_offset 5, -24
 156              		.cfi_offset 6, -20
 157              		.cfi_offset 7, -16
 158              		.cfi_offset 8, -12
 159              		.cfi_offset 9, -8
 160              		.cfi_offset 14, -4
 161 0004 ADF5017D 		sub	sp, sp, #516	@,,
 162              	.LCFI3:
 163              		.cfi_def_cfa_offset 544
 164              		.loc 1 79 0
 165 0008 8046     		mov	r8, r0	@ drv, drv
 166 000a 0D46     		mov	r5, r1	@ buff, buff
 167 000c 1646     		mov	r6, r2	@ sector, sector
 168 000e 1F46     		mov	r7, r3	@ count, count
  80:diskio.c      **** 	SD_Error Status;
  81:diskio.c      **** 
  82:diskio.c      **** #ifdef DBGIO
  83:diskio.c      **** 	printf("disk_read %d %p %10d %d\n",drv,buff,sector,count);
  84:diskio.c      **** #endif
  85:diskio.c      **** 	
  86:diskio.c      **** 	if (SD_Detect() != SD_PRESENT)
 169              		.loc 1 86 0
 170 0010 FFF7FEFF 		bl	SD_Detect	@
 171              	.LVL8:
 172 0014 0128     		cmp	r0, #1	@,
 173 0016 32D1     		bne	.L17	@,
  87:diskio.c      **** 		return(RES_NOTRDY);
  88:diskio.c      **** 
  89:diskio.c      **** 	if ((DWORD)buff & 3) 
 174              		.loc 1 89 0
 175 0018 AB07     		lsls	r3, r5, #30	@, buff,
 176 001a 19D0     		beq	.L10	@,
 177              		.loc 1 89 0 is_stmt 0 discriminator 1
 178 001c 3246     		mov	r2, r6	@ sector, sector
 179              	.LVL9:
 180              	.L11:
 181              	.LBB2:
  73:diskio.c      **** DRESULT disk_read (
 182              		.loc 1 73 0 is_stmt 1 discriminator 1
 183 001e B919     		adds	r1, r7, r6	@ tmp197, count, sector
  90:diskio.c      **** 	// DMA Alignment failure, do single up to aligned buffer
  91:diskio.c      **** 	{
  92:diskio.c      **** 		DRESULT res = RES_OK;
  93:diskio.c      **** 		DWORD scratch[BLOCK_SIZE / 4]; // Alignment assured, you'll need a sufficiently big stack
  94:diskio.c      **** 
  95:diskio.c      **** 		while(count--)
 184              		.loc 1 95 0 discriminator 1
 185 0020 C8B2     		uxtb	r0, r1	@ tmp198, tmp197
 186 0022 D3B2     		uxtb	r3, r2	@ sector, sector
 187 0024 9842     		cmp	r0, r3	@ tmp198, sector
 188 0026 11D0     		beq	.L25	@,
ARM GAS  /tmp/cckHt7Sr.s 			page 6


 189              	.L13:
  96:diskio.c      **** 		{
  97:diskio.c      **** 			res = disk_read(drv, (void *)scratch, sector++, 1);
 190              		.loc 1 97 0
 191 0028 4046     		mov	r0, r8	@, drv
 192 002a 6946     		mov	r1, sp	@,
 193 002c 0123     		movs	r3, #1	@,
 194 002e 02F10109 		add	r9, r2, #1	@ sector, sector,
 195              	.LVL10:
 196 0032 FFF7FEFF 		bl	disk_read	@
 197              	.LVL11:
  98:diskio.c      **** 
  99:diskio.c      **** 			if (res != RES_OK)
 198              		.loc 1 99 0
 199 0036 18BB     		cbnz	r0, .L9	@ res,
 100:diskio.c      **** 				break;
 101:diskio.c      **** 
 102:diskio.c      **** 			memcpy(buff, scratch, BLOCK_SIZE);
 200              		.loc 1 102 0
 201 0038 2846     		mov	r0, r5	@, buff
 202              	.LVL12:
 203 003a 4FF40072 		mov	r2, #512	@,
 204 003e 6946     		mov	r1, sp	@,
 205 0040 FFF7FEFF 		bl	memcpy	@
 206              	.LVL13:
 103:diskio.c      **** 
 104:diskio.c      **** 			buff += BLOCK_SIZE;
 207              		.loc 1 104 0
 208 0044 05F50075 		add	r5, r5, #512	@ buff, buff,
 209              	.LVL14:
  97:diskio.c      **** 			res = disk_read(drv, (void *)scratch, sector++, 1);
 210              		.loc 1 97 0
 211 0048 4A46     		mov	r2, r9	@ sector, sector
 212 004a E8E7     		b	.L11	@
 213              	.LVL15:
 214              	.L25:
  95:diskio.c      **** 		while(count--)
 215              		.loc 1 95 0
 216 004c 0020     		movs	r0, #0	@ res,
 217 004e 17E0     		b	.L9	@
 218              	.LVL16:
 219              	.L10:
 220              	.LBE2:
 105:diskio.c      **** 		}
 106:diskio.c      **** 
 107:diskio.c      **** 		return(res);
 108:diskio.c      **** 	}
 109:diskio.c      **** 	
 110:diskio.c      **** 	// USE POLLING MODE !
 111:diskio.c      ****   Status = SD_ReadMultiBlocksFIXED(buff, sector, BLOCK_SIZE, count); // 4GB Compliant
 221              		.loc 1 111 0
 222 0050 2846     		mov	r0, r5	@, buff
 223 0052 3146     		mov	r1, r6	@, sector
 224 0054 4FF40072 		mov	r2, #512	@,
 225 0058 3B46     		mov	r3, r7	@, count
 226 005a FFF7FEFF 		bl	SD_ReadMultiBlocksFIXED	@
 227              	.LVL17:
ARM GAS  /tmp/cckHt7Sr.s 			page 7


 112:diskio.c      **** 
 113:diskio.c      **** 	if (Status == SD_OK)
 228              		.loc 1 113 0
 229 005e 08B1     		cbz	r0, .L14	@,
 230              	.LVL18:
 231              	.L16:
 114:diskio.c      **** 	{
 115:diskio.c      **** 		SDTransferState State;
 116:diskio.c      **** 
 117:diskio.c      **** 		Status = SD_WaitReadOperation(); // Check if the Transfer is finished
 118:diskio.c      **** 
 119:diskio.c      **** 		while((State = SD_GetStatus()) == SD_TRANSFER_BUSY); // BUSY, OK (DONE), ERROR (FAIL)
 120:diskio.c      **** 
 121:diskio.c      **** 		if ((State == SD_TRANSFER_ERROR) || (Status != SD_OK))
 122:diskio.c      **** 			return(RES_ERROR);
 123:diskio.c      **** 		else
 124:diskio.c      **** 			return(RES_OK);
 125:diskio.c      **** 	}
 126:diskio.c      **** 	else
 127:diskio.c      **** 		return(RES_ERROR);
 232              		.loc 1 127 0
 233 0060 0120     		movs	r0, #1	@ res,
 234 0062 0DE0     		b	.L9	@
 235              	.LVL19:
 236              	.L14:
 237              	.LBB3:
 117:diskio.c      **** 		Status = SD_WaitReadOperation(); // Check if the Transfer is finished
 238              		.loc 1 117 0
 239 0064 FFF7FEFF 		bl	SD_WaitReadOperation	@
 240              	.LVL20:
 241 0068 0446     		mov	r4, r0	@ Status,
 242              	.LVL21:
 243              	.L15:
 119:diskio.c      **** 		while((State = SD_GetStatus()) == SD_TRANSFER_BUSY); // BUSY, OK (DONE), ERROR (FAIL)
 244              		.loc 1 119 0 discriminator 1
 245 006a FFF7FEFF 		bl	SD_GetStatus	@
 246              	.LVL22:
 247 006e 0128     		cmp	r0, #1	@ tmp202,
 248 0070 FBD0     		beq	.L15	@,
 121:diskio.c      **** 		if ((State == SD_TRANSFER_ERROR) || (Status != SD_OK))
 249              		.loc 1 121 0
 250 0072 0228     		cmp	r0, #2	@ tmp202,
 251 0074 F4D0     		beq	.L16	@,
  87:diskio.c      **** 		return(RES_NOTRDY);
 252              		.loc 1 87 0 discriminator 1
 253 0076 201C     		adds	r0, r4, #0	@ res, Status,
 254              	.LVL23:
 255 0078 18BF     		it	ne
 256 007a 0120     		movne	r0, #1	@ res,
 257 007c 00E0     		b	.L9	@
 258              	.LVL24:
 259              	.L17:
 260              	.LBE3:
  87:diskio.c      **** 		return(RES_NOTRDY);
 261              		.loc 1 87 0 is_stmt 0
 262 007e 0320     		movs	r0, #3	@ res,
 263              	.LVL25:
ARM GAS  /tmp/cckHt7Sr.s 			page 8


 264              	.L9:
 128:diskio.c      **** }
 265              		.loc 1 128 0 is_stmt 1
 266 0080 0DF5017D 		add	sp, sp, #516	@,,
 267 0084 BDE8F083 		pop	{r4, r5, r6, r7, r8, r9, pc}
 268              		.cfi_endproc
 269              	.LFE112:
 270              		.size	disk_read, .-disk_read
 271              		.section	.text.disk_write,"ax",%progbits
 272              		.align	1
 273              		.global	disk_write
 274              		.thumb
 275              		.thumb_func
 276              		.type	disk_write, %function
 277              	disk_write:
 278              	.LFB113:
 129:diskio.c      **** 
 130:diskio.c      **** /*-----------------------------------------------------------------------*/
 131:diskio.c      **** /* Write Sector(s)                                                       */
 132:diskio.c      **** 
 133:diskio.c      **** #if _READONLY == 0
 134:diskio.c      **** DRESULT disk_write (
 135:diskio.c      ****         BYTE drv,                       /* Physical drive nmuber (0..) */
 136:diskio.c      ****         const BYTE *buff,       /* Data to be written */
 137:diskio.c      ****         DWORD sector,           /* Sector address (LBA) */
 138:diskio.c      ****         BYTE count                      /* Number of sectors to write (1..255) */
 139:diskio.c      **** )
 140:diskio.c      **** {
 279              		.loc 1 140 0
 280              		.cfi_startproc
 281              		@ args = 0, pretend = 0, frame = 512
 282              		@ frame_needed = 0, uses_anonymous_args = 0
 283              	.LVL26:
 284 0000 2DE9F043 		push	{r4, r5, r6, r7, r8, r9, lr}	@
 285              	.LCFI4:
 286              		.cfi_def_cfa_offset 28
 287              		.cfi_offset 4, -28
 288              		.cfi_offset 5, -24
 289              		.cfi_offset 6, -20
 290              		.cfi_offset 7, -16
 291              		.cfi_offset 8, -12
 292              		.cfi_offset 9, -8
 293              		.cfi_offset 14, -4
 294 0004 ADF5017D 		sub	sp, sp, #516	@,,
 295              	.LCFI5:
 296              		.cfi_def_cfa_offset 544
 297              		.loc 1 140 0
 298 0008 8046     		mov	r8, r0	@ drv, drv
 299 000a 0D46     		mov	r5, r1	@ buff, buff
 300 000c 1646     		mov	r6, r2	@ sector, sector
 301 000e 1F46     		mov	r7, r3	@ count, count
 141:diskio.c      **** 	SD_Error Status;
 142:diskio.c      **** 
 143:diskio.c      **** #ifdef DBGIO
 144:diskio.c      **** 	printf("disk_write %d %p %10d %d\n",drv,buff,sector,count);
 145:diskio.c      **** #endif
 146:diskio.c      **** 	
ARM GAS  /tmp/cckHt7Sr.s 			page 9


 147:diskio.c      **** 	if (SD_Detect() != SD_PRESENT)
 302              		.loc 1 147 0
 303 0010 FFF7FEFF 		bl	SD_Detect	@
 304              	.LVL27:
 305 0014 0128     		cmp	r0, #1	@,
 306 0016 33D1     		bne	.L35	@,
 148:diskio.c      **** 		return(RES_NOTRDY);
 149:diskio.c      **** 
 150:diskio.c      **** 	if ((DWORD)buff & 3) // DMA Alignment failure, do single up to aligned buffer
 307              		.loc 1 150 0
 308 0018 AA07     		lsls	r2, r5, #30	@, buff,
 309 001a 1AD0     		beq	.L28	@,
 310              		.loc 1 150 0 is_stmt 0 discriminator 1
 311 001c 3446     		mov	r4, r6	@ sector, sector
 312              	.LVL28:
 313              	.L29:
 314              	.LBB4:
 134:diskio.c      **** DRESULT disk_write (
 315              		.loc 1 134 0 is_stmt 1 discriminator 1
 316 001e BA19     		adds	r2, r7, r6	@ tmp194, count, sector
 151:diskio.c      **** 	{
 152:diskio.c      **** 		DRESULT res = RES_OK;
 153:diskio.c      **** 		DWORD scratch[BLOCK_SIZE / 4]; // Alignment assured, you'll need a sufficiently big stack
 154:diskio.c      **** 
 155:diskio.c      **** 		while(count--)
 317              		.loc 1 155 0 discriminator 1
 318 0020 D0B2     		uxtb	r0, r2	@ tmp195, tmp194
 319 0022 E3B2     		uxtb	r3, r4	@ sector, sector
 320 0024 9842     		cmp	r0, r3	@ tmp195, sector
 321 0026 12D0     		beq	.L43	@,
 322              	.L31:
 156:diskio.c      **** 		{
 157:diskio.c      **** 			memcpy(scratch, buff, BLOCK_SIZE);
 323              		.loc 1 157 0
 324 0028 2946     		mov	r1, r5	@, buff
 325 002a 4FF40072 		mov	r2, #512	@,
 326 002e 6846     		mov	r0, sp	@,
 327 0030 FFF7FEFF 		bl	memcpy	@
 328              	.LVL29:
 158:diskio.c      **** 
 159:diskio.c      **** 			res = disk_write(drv, (void *)scratch, sector++, 1);
 329              		.loc 1 159 0
 330 0034 4046     		mov	r0, r8	@, drv
 331 0036 6946     		mov	r1, sp	@,
 332 0038 2246     		mov	r2, r4	@, sector
 333 003a 0123     		movs	r3, #1	@,
 334 003c 04F10109 		add	r9, r4, #1	@ sector, sector,
 335              	.LVL30:
 336 0040 FFF7FEFF 		bl	disk_write	@
 337              	.LVL31:
 160:diskio.c      **** 
 161:diskio.c      **** 			if (res != RES_OK)
 338              		.loc 1 161 0
 339 0044 E8B9     		cbnz	r0, .L27	@ res,
 162:diskio.c      **** 				break;
 163:diskio.c      **** 
 164:diskio.c      **** 			buff += BLOCK_SIZE;
ARM GAS  /tmp/cckHt7Sr.s 			page 10


 340              		.loc 1 164 0
 341 0046 05F50075 		add	r5, r5, #512	@ buff, buff,
 342              	.LVL32:
 159:diskio.c      **** 			res = disk_write(drv, (void *)scratch, sector++, 1);
 343              		.loc 1 159 0
 344 004a 4C46     		mov	r4, r9	@ sector, sector
 345 004c E7E7     		b	.L29	@
 346              	.LVL33:
 347              	.L43:
 155:diskio.c      **** 		while(count--)
 348              		.loc 1 155 0
 349 004e 0020     		movs	r0, #0	@ res,
 350 0050 17E0     		b	.L27	@
 351              	.LVL34:
 352              	.L28:
 353              	.LBE4:
 165:diskio.c      **** 		}
 166:diskio.c      **** 
 167:diskio.c      **** 		return(res);
 168:diskio.c      **** 	}
 169:diskio.c      **** 
 170:diskio.c      ****   Status = SD_WriteMultiBlocksFIXED((uint8_t *)buff, sector, BLOCK_SIZE, count); // 4GB Compliant
 354              		.loc 1 170 0
 355 0052 2846     		mov	r0, r5	@, buff
 356 0054 3146     		mov	r1, r6	@, sector
 357 0056 4FF40072 		mov	r2, #512	@,
 358 005a 3B46     		mov	r3, r7	@, count
 359 005c FFF7FEFF 		bl	SD_WriteMultiBlocksFIXED	@
 360              	.LVL35:
 171:diskio.c      **** 
 172:diskio.c      **** 	if (Status == SD_OK)
 361              		.loc 1 172 0
 362 0060 08B1     		cbz	r0, .L32	@,
 363              	.LVL36:
 364              	.L34:
 173:diskio.c      **** 	{
 174:diskio.c      **** 		SDTransferState State;
 175:diskio.c      **** 
 176:diskio.c      **** 		Status = SD_WaitWriteOperation(); // Check if the Transfer is finished
 177:diskio.c      **** 
 178:diskio.c      **** 		while((State = SD_GetStatus()) == SD_TRANSFER_BUSY); // BUSY, OK (DONE), ERROR (FAIL)
 179:diskio.c      **** 
 180:diskio.c      **** 		if ((State == SD_TRANSFER_ERROR) || (Status != SD_OK))
 181:diskio.c      **** 			return(RES_ERROR);
 182:diskio.c      **** 		else
 183:diskio.c      **** 			return(RES_OK);
 184:diskio.c      **** 	}
 185:diskio.c      **** 	else
 186:diskio.c      **** 		return(RES_ERROR);
 365              		.loc 1 186 0
 366 0062 0120     		movs	r0, #1	@ res,
 367 0064 0DE0     		b	.L27	@
 368              	.LVL37:
 369              	.L32:
 370              	.LBB5:
 176:diskio.c      **** 		Status = SD_WaitWriteOperation(); // Check if the Transfer is finished
 371              		.loc 1 176 0
ARM GAS  /tmp/cckHt7Sr.s 			page 11


 372 0066 FFF7FEFF 		bl	SD_WaitWriteOperation	@
 373              	.LVL38:
 374 006a 0446     		mov	r4, r0	@ Status,
 375              	.LVL39:
 376              	.L33:
 178:diskio.c      **** 		while((State = SD_GetStatus()) == SD_TRANSFER_BUSY); // BUSY, OK (DONE), ERROR (FAIL)
 377              		.loc 1 178 0 discriminator 1
 378 006c FFF7FEFF 		bl	SD_GetStatus	@
 379              	.LVL40:
 380 0070 0128     		cmp	r0, #1	@ tmp199,
 381 0072 FBD0     		beq	.L33	@,
 180:diskio.c      **** 		if ((State == SD_TRANSFER_ERROR) || (Status != SD_OK))
 382              		.loc 1 180 0
 383 0074 0228     		cmp	r0, #2	@ tmp199,
 384 0076 F4D0     		beq	.L34	@,
 148:diskio.c      **** 		return(RES_NOTRDY);
 385              		.loc 1 148 0 discriminator 1
 386 0078 201C     		adds	r0, r4, #0	@ res, Status,
 387              	.LVL41:
 388 007a 18BF     		it	ne
 389 007c 0120     		movne	r0, #1	@ res,
 390 007e 00E0     		b	.L27	@
 391              	.LVL42:
 392              	.L35:
 393              	.LBE5:
 148:diskio.c      **** 		return(RES_NOTRDY);
 394              		.loc 1 148 0 is_stmt 0
 395 0080 0320     		movs	r0, #3	@ res,
 396              	.LVL43:
 397              	.L27:
 187:diskio.c      **** }
 398              		.loc 1 187 0 is_stmt 1
 399 0082 0DF5017D 		add	sp, sp, #516	@,,
 400 0086 BDE8F083 		pop	{r4, r5, r6, r7, r8, r9, pc}
 401              		.cfi_endproc
 402              	.LFE113:
 403              		.size	disk_write, .-disk_write
 404              		.section	.text.disk_ioctl,"ax",%progbits
 405              		.align	1
 406              		.global	disk_ioctl
 407              		.thumb
 408              		.thumb_func
 409              		.type	disk_ioctl, %function
 410              	disk_ioctl:
 411              	.LFB114:
 188:diskio.c      **** #endif /* _READONLY */
 189:diskio.c      **** 
 190:diskio.c      **** 
 191:diskio.c      **** 
 192:diskio.c      **** 
 193:diskio.c      **** /*-----------------------------------------------------------------------*/
 194:diskio.c      **** /* Miscellaneous Functions                                               */
 195:diskio.c      **** 
 196:diskio.c      **** DRESULT disk_ioctl (
 197:diskio.c      ****         BYTE drv,               /* Physical drive nmuber (0..) */
 198:diskio.c      ****         BYTE ctrl,              /* Control code */
 199:diskio.c      ****         void *buff              /* Buffer to send/receive control data */
ARM GAS  /tmp/cckHt7Sr.s 			page 12


 200:diskio.c      **** )
 201:diskio.c      **** {
 412              		.loc 1 201 0
 413              		.cfi_startproc
 414              		@ args = 0, pretend = 0, frame = 0
 415              		@ frame_needed = 0, uses_anonymous_args = 0
 416              		@ link register save eliminated.
 417              	.LVL44:
 202:diskio.c      ****         return RES_OK;
 203:diskio.c      **** }
 418              		.loc 1 203 0
 419 0000 0020     		movs	r0, #0	@,
 420              	.LVL45:
 421 0002 7047     		bx	lr	@
 422              		.cfi_endproc
 423              	.LFE114:
 424              		.size	disk_ioctl, .-disk_ioctl
 425              		.section	.text.get_fattime,"ax",%progbits
 426              		.align	1
 427              		.global	get_fattime
 428              		.thumb
 429              		.thumb_func
 430              		.type	get_fattime, %function
 431              	get_fattime:
 432              	.LFB115:
 204:diskio.c      **** 
 205:diskio.c      **** /*-----------------------------------------------------------------------*/
 206:diskio.c      **** /* Get current time                                                      */
 207:diskio.c      **** /*-----------------------------------------------------------------------*/
 208:diskio.c      **** DWORD get_fattime(void){
 433              		.loc 1 208 0
 434              		.cfi_startproc
 435              		@ args = 0, pretend = 0, frame = 0
 436              		@ frame_needed = 0, uses_anonymous_args = 0
 437              		@ link register save eliminated.
 209:diskio.c      ****         return 0;
 210:diskio.c      **** }
 438              		.loc 1 210 0
 439 0000 0020     		movs	r0, #0	@,
 440 0002 7047     		bx	lr	@
 441              		.cfi_endproc
 442              	.LFE115:
 443              		.size	get_fattime, .-get_fattime
 444              		.text
 445              	.Letext0:
 446              		.file 2 "integer.h"
 447              		.file 3 "diskio.h"
 448              		.file 4 "/usr/bin/../lib/gcc/arm-none-eabi/4.7.4/../../../../arm-none-eabi/include/stdint.h"
 449              		.file 5 "stm32f4_discovery_sdio_sd.h"
 450              		.file 6 "cmsis/core_cm4.h"