ARM GAS  /tmp/cchfKgtF.s 			page 1


   1              		.syntax unified
   2              		.cpu cortex-m4
   3              		.eabi_attribute 27, 3	@ Tag_ABI_HardFP_use
   4              		.eabi_attribute 28, 1	@ Tag_ABI_VFP_args
   5              		.fpu fpv4-sp-d16
   6              		.eabi_attribute 20, 1	@ Tag_ABI_FP_denormal
   7              		.eabi_attribute 21, 1	@ Tag_ABI_FP_exceptions
   8              		.eabi_attribute 23, 3	@ Tag_ABI_FP_number_model
   9              		.eabi_attribute 24, 1	@ Tag_ABI_align8_needed
  10              		.eabi_attribute 25, 1	@ Tag_ABI_align8_preserved
  11              		.eabi_attribute 26, 1	@ Tag_ABI_enum_size
  12              		.eabi_attribute 30, 4	@ Tag_ABI_optimization_goals
  13              		.eabi_attribute 34, 1	@ Tag_CPU_unaligned_access
  14              		.eabi_attribute 18, 4	@ Tag_ABI_PCS_wchar_t
  15              		.file	"main.c"
  16              	@ GNU C (GNU Tools for ARM Embedded Processors) version 4.7.4 20130913 (release) [ARM/embedded-4_7-
  17              	@	compiled by GNU C version 4.7.3, GMP version 5.0.5, MPFR version 3.1.1-p2, MPC version 0.9
  18              	@ GGC heuristics: --param ggc-min-expand=100 --param ggc-min-heapsize=131072
  19              	@ options passed:  -I . -I ../ -I cmsis/ -imultilib armv7e-m/fpu
  20              	@ -iprefix /usr/bin/../lib/gcc/arm-none-eabi/4.7.4/
  21              	@ -isysroot /usr/bin/../arm-none-eabi -MD main.d -MF .dep/main.o.d -MP
  22              	@ -MQ main.o -D__USES_INITFINI__ -D __FPU_USED=1 -D __arm__ -D __ASSEMBLY__
  23              	@ -D USE_STDPERIPH_DRIVER -D STM32F4XX -D HSE_VALUE=8000000
  24              	@ -D __FPU_PRESENT=1 -D __FPU_USED=1 -D STM32F405VG -D USE_USB_OTG_FS
  25              	@ -D RUN_FROM_FLASH=1 main.c -mthumb -mcpu=cortex-m4 -mfloat-abi=hard
  26              	@ -mfpu=fpv4-sp-d16 -mthumb -auxbase-strip main.o -gdwarf-2 -Os -Wall
  27              	@ -Wstrict-prototypes -std=gnu99 -falign-functions=16 -fno-inline
  28              	@ -fomit-frame-pointer -fverbose-asm -ffunction-sections -fdata-sections
  29              	@ options enabled:  -fauto-inc-dec -fbranch-count-reg -fcaller-saves
  30              	@ -fcombine-stack-adjustments -fcommon -fcompare-elim -fcprop-registers
  31              	@ -fcrossjumping -fcse-follow-jumps -fdata-sections -fdebug-types-section
  32              	@ -fdefer-pop -fdelete-null-pointer-checks -fdevirtualize -fdwarf2-cfi-asm
  33              	@ -fearly-inlining -feliminate-unused-debug-types -fexpensive-optimizations
  34              	@ -fforward-propagate -ffunction-cse -ffunction-sections -fgcse -fgcse-lm
  35              	@ -fgnu-runtime -fguess-branch-probability -fident -fif-conversion
  36              	@ -fif-conversion2 -findirect-inlining -finline-atomics -finline-functions
  37              	@ -finline-functions-called-once -finline-small-functions -fipa-cp
  38              	@ -fipa-profile -fipa-pure-const -fipa-reference -fipa-sra
  39              	@ -fira-share-save-slots -fira-share-spill-slots -fivopts
  40              	@ -fkeep-static-consts -fleading-underscore -fmath-errno -fmerge-constants
  41              	@ -fmerge-debug-strings -fomit-frame-pointer -foptimize-register-move
  42              	@ -foptimize-sibling-calls -fpartial-inlining -fpeephole -fpeephole2
  43              	@ -fprefetch-loop-arrays -freg-struct-return -fregmove -frename-registers
  44              	@ -freorder-blocks -freorder-functions -frerun-cse-after-loop
  45              	@ -fsched-critical-path-heuristic -fsched-dep-count-heuristic
  46              	@ -fsched-group-heuristic -fsched-interblock -fsched-last-insn-heuristic
  47              	@ -fsched-rank-heuristic -fsched-spec -fsched-spec-insn-heuristic
  48              	@ -fsched-stalled-insns-dep -fschedule-insns2 -fsection-anchors
  49              	@ -fshow-column -fshrink-wrap -fsigned-zeros -fsplit-ivs-in-unroller
  50              	@ -fsplit-wide-types -fstrict-aliasing -fstrict-overflow
  51              	@ -fstrict-volatile-bitfields -fthread-jumps -ftoplevel-reorder
  52              	@ -ftrapping-math -ftree-bit-ccp -ftree-builtin-call-dce -ftree-ccp
  53              	@ -ftree-ch -ftree-copy-prop -ftree-copyrename -ftree-cselim -ftree-dce
  54              	@ -ftree-dominator-opts -ftree-dse -ftree-forwprop -ftree-fre
  55              	@ -ftree-loop-if-convert -ftree-loop-im -ftree-loop-ivcanon
  56              	@ -ftree-loop-optimize -ftree-parallelize-loops= -ftree-phiprop -ftree-pre
  57              	@ -ftree-pta -ftree-reassoc -ftree-scev-cprop -ftree-sink
ARM GAS  /tmp/cchfKgtF.s 			page 2


  58              	@ -ftree-slp-vectorize -ftree-sra -ftree-switch-conversion
  59              	@ -ftree-tail-merge -ftree-ter -ftree-vect-loop-version -ftree-vrp
  60              	@ -funit-at-a-time -funroll-loops -fvar-tracking -fvar-tracking-assignments
  61              	@ -fverbose-asm -fweb -fzero-initialized-in-bss -mlittle-endian
  62              	@ -msched-prolog -mthumb -munaligned-access -mvectorize-with-neon-quad
  63              	
  64              		.text
  65              	.Ltext0:
  66              		.cfi_sections	.debug_frame
  67              		.section	.text.dec32,"ax",%progbits
  68              		.align	1
  69              		.global	dec32
  70              		.thumb
  71              		.thumb_func
  72              		.type	dec32, %function
  73              	dec32:
  74              	.LFB110:
  75              		.file 1 "main.c"
   1:main.c        **** //******************************************************************************
   2:main.c        **** // STM32F4 Discovery SDCard + FatFs Test - CLIVE - SOURCER32@GMAIL.COM
   3:main.c        **** //******************************************************************************
   4:main.c        **** 
   5:main.c        **** #include <stdio.h>
   6:main.c        **** #include <stdlib.h>
   7:main.c        **** #include <string.h>
   8:main.c        **** 
   9:main.c        **** #include "stm32f4xx.h"
  10:main.c        **** #include "stm32f4_discovery_sdio_sd.h"
  11:main.c        **** 
  12:main.c        **** #include "stm32f4xx_gpio.h"
  13:main.c        **** #include "stm32f4xx_rcc.h"
  14:main.c        **** #include "stm32f4xx_usart.h"
  15:main.c        **** #include "misc.h"
  16:main.c        **** 
  17:main.c        **** #define noDBG
  18:main.c        **** 
  19:main.c        **** //******************************************************************************
  20:main.c        **** 
  21:main.c        **** void NVIC_Configuration(void);
  22:main.c        **** void RCC_Configuration(void);
  23:main.c        **** void GPIO_Configuration(void);
  24:main.c        **** void USART2_Configuration(void);
  25:main.c        **** 
  26:main.c        **** //******************************************************************************
  27:main.c        **** 
  28:main.c        **** #include "ff.h"
  29:main.c        **** #include "diskio.h"
  30:main.c        **** 
  31:main.c        **** FRESULT res;
  32:main.c        **** FILINFO fno;
  33:main.c        **** FIL fil;
  34:main.c        **** DIR dir;
  35:main.c        **** FATFS fs32;
  36:main.c        **** char* path;
  37:main.c        **** 
  38:main.c        **** #if _USE_LFN
  39:main.c        ****     static char lfn[_MAX_LFN + 1];
ARM GAS  /tmp/cchfKgtF.s 			page 3


  40:main.c        ****     fno.lfname = lfn;
  41:main.c        ****     fno.lfsize = sizeof lfn;
  42:main.c        **** #endif
  43:main.c        **** 
  44:main.c        **** //******************************************************************************
  45:main.c        **** 
  46:main.c        **** char *dec32(unsigned long i)
  47:main.c        **** {
  76              		.loc 1 47 0
  77              		.cfi_startproc
  78              		@ args = 0, pretend = 0, frame = 0
  79              		@ frame_needed = 0, uses_anonymous_args = 0
  80              	.LVL0:
  48:main.c        ****   static char str[16];
  49:main.c        ****   char *s = str + sizeof(str);
  81              		.loc 1 49 0
  82 0000 094A     		ldr	r2, .L5	@ tmp170,
  50:main.c        **** 
  51:main.c        ****   *--s = 0;
  83              		.loc 1 51 0
  84 0002 0021     		movs	r1, #0	@ tmp171,
  47:main.c        **** {
  85              		.loc 1 47 0
  86 0004 10B5     		push	{r4, lr}	@
  87              	.LCFI0:
  88              		.cfi_def_cfa_offset 8
  89              		.cfi_offset 4, -8
  90              		.cfi_offset 14, -4
  47:main.c        **** {
  91              		.loc 1 47 0
  92 0006 0346     		mov	r3, r0	@ i, i
  93              		.loc 1 51 0
  94 0008 D173     		strb	r1, [r2, #15]	@ tmp171, MEM[(char *)&str + 15B]
  46:main.c        **** char *dec32(unsigned long i)
  95              		.loc 1 46 0
  96 000a 0E32     		adds	r2, r2, #14	@ ivtmp.29, tmp170,
  97              	.LVL1:
  98              	.L2:
  52:main.c        **** 
  53:main.c        ****   do
  54:main.c        ****   {
  55:main.c        ****     *--s = '0' + (char)(i % 10);
  99              		.loc 1 55 0 discriminator 1
 100 000c 0A24     		movs	r4, #10	@ tmp178,
 101 000e B3FBF4F1 		udiv	r1, r3, r4	@ tmp177, i, tmp178
 102 0012 04FB1133 		mls	r3, r4, r1, r3	@ tmp181, tmp178, tmp177, i
 103              	.LVL2:
 104 0016 3033     		adds	r3, r3, #48	@ tmp183, tmp181,
 105 0018 1046     		mov	r0, r2	@ s, ivtmp.29
 106              	.LVL3:
 107 001a 02F80139 		strb	r3, [r2], #-1	@ tmp183, MEM[base: s_6, offset: 0B]
  56:main.c        ****     i /= 10;
  57:main.c        ****   }
  58:main.c        ****   while(i);
 108              		.loc 1 58 0 discriminator 1
 109 001e 0B46     		mov	r3, r1	@ i, tmp177
 110 0020 0029     		cmp	r1, #0	@ i
ARM GAS  /tmp/cchfKgtF.s 			page 4


 111 0022 F3D1     		bne	.L2	@
  59:main.c        **** 
  60:main.c        ****   return(s);
  61:main.c        **** }
 112              		.loc 1 61 0
 113 0024 10BD     		pop	{r4, pc}	@
 114              	.L6:
 115 0026 00BF     		.align	2
 116              	.L5:
 117 0028 00000000 		.word	.LANCHOR0
 118              		.cfi_endproc
 119              	.LFE110:
 120              		.size	dec32, .-dec32
 121              		.section	.text.NVIC_Configuration,"ax",%progbits
 122              		.align	1
 123              		.global	NVIC_Configuration
 124              		.thumb
 125              		.thumb_func
 126              		.type	NVIC_Configuration, %function
 127              	NVIC_Configuration:
 128              	.LFB112:
  62:main.c        **** 
  63:main.c        **** //******************************************************************************
  64:main.c        **** 
  65:main.c        **** int main(void)
  66:main.c        **** {
  67:main.c        ****   /*!< At this stage the microcontroller clock setting is already configured,
  68:main.c        ****        this is done through SystemInit() function which is called from startup
  69:main.c        ****        file (startup_stm32f4xx.s) before to branch to application main.
  70:main.c        ****        To reconfigure the default setting of SystemInit() function, refer to
  71:main.c        ****        system_stm32f4xx.c file
  72:main.c        ****      */
  73:main.c        **** 
  74:main.c        ****   NVIC_Configuration(); /* Interrupt Config */
  75:main.c        **** 
  76:main.c        **** #ifdef DBG
  77:main.c        **** 	RCC_Configuration();
  78:main.c        **** 
  79:main.c        **** 	GPIO_Configuration();
  80:main.c        **** 
  81:main.c        ****   USART2_Configuration();
  82:main.c        **** 
  83:main.c        **** 	puts("FatFs Testing");
  84:main.c        **** #endif
  85:main.c        **** 
  86:main.c        **** 	memset(&fs32, 0, sizeof(FATFS));
  87:main.c        **** 
  88:main.c        **** 	res = f_mount(0, &fs32);
  89:main.c        **** 
  90:main.c        **** #ifdef DBG
  91:main.c        **** 	if (res != FR_OK)
  92:main.c        **** 		printf("res = %d f_mount\n", res);
  93:main.c        **** #endif
  94:main.c        **** 	
  95:main.c        **** 	memset(&fil, 0, sizeof(FIL));
  96:main.c        **** 	
  97:main.c        **** 	res = f_open(&fil, "MESSAGE.TXT", FA_READ);
ARM GAS  /tmp/cchfKgtF.s 			page 5


  98:main.c        **** 
  99:main.c        **** #ifdef DBG
 100:main.c        **** 	if (res != FR_OK)
 101:main.c        **** 		printf("res = %d f_open MESSAGE.TXT\n", res);
 102:main.c        **** #endif
 103:main.c        **** 	
 104:main.c        **** 	if (res == FR_OK)
 105:main.c        **** 	{
 106:main.c        **** 		UINT Total = 0;
 107:main.c        **** 
 108:main.c        **** 		while(1)
 109:main.c        **** 		{
 110:main.c        **** 			BYTE Buffer[512];
 111:main.c        **** 			UINT BytesRead;
 112:main.c        **** 
 113:main.c        **** 			res = f_read(&fil, Buffer, sizeof(Buffer), &BytesRead);
 114:main.c        **** 
 115:main.c        **** #ifdef DBG
 116:main.c        **** 			if (res != FR_OK)
 117:main.c        **** 				printf("res = %d f_read MESSAGE.TXT\n", res);
 118:main.c        **** #endif
 119:main.c        **** 			
 120:main.c        **** 			if (res != FR_OK)
 121:main.c        **** 				break;
 122:main.c        **** 
 123:main.c        **** 			Total += BytesRead;
 124:main.c        **** 
 125:main.c        **** #ifdef DBGX
 126:main.c        **** 			for(i=0; i<BytesRead; i++)
 127:main.c        **** 				putchar(Buffer[i]);
 128:main.c        **** #endif
 129:main.c        **** 			
 130:main.c        **** 			if (BytesRead < sizeof(Buffer))
 131:main.c        **** 				break;
 132:main.c        **** 		}
 133:main.c        **** 
 134:main.c        **** 		res = f_close(&fil); // MESSAGE.TXT
 135:main.c        **** #ifdef WRITE
 136:main.c        **** 
 137:main.c        **** #ifdef DBG
 138:main.c        **** 		if (res != FR_OK)
 139:main.c        **** 			printf("res = %d f_close MESSAGE.TXT\n", res);
 140:main.c        **** 
 141:main.c        **** 		printf("Total = %d\n", Total);
 142:main.c        **** #endif
 143:main.c        **** 
 144:main.c        ****     res = f_open(&fil, "LENGTH.TXT", FA_CREATE_ALWAYS | FA_WRITE);
 145:main.c        **** 
 146:main.c        **** #ifdef DBG
 147:main.c        **** 		if (res != FR_OK)
 148:main.c        **** 			printf("res = %d f_open LENGTH.TXT\n", res);
 149:main.c        **** #endif
 150:main.c        **** 	
 151:main.c        ****     if (res == FR_OK)
 152:main.c        ****     {
 153:main.c        ****       UINT BytesWritten;
 154:main.c        ****       char crlf[] = "\r\n";
ARM GAS  /tmp/cchfKgtF.s 			page 6


 155:main.c        ****       char *s = dec32(Total);
 156:main.c        **** 
 157:main.c        ****       res = f_write(&fil, s, strlen(s), &BytesWritten);
 158:main.c        **** 
 159:main.c        ****       res = f_write(&fil, crlf, strlen(crlf), &BytesWritten);
 160:main.c        **** 
 161:main.c        ****   		res = f_close(&fil); // LENGTH.TXT
 162:main.c        **** 
 163:main.c        **** #ifdef DBG			
 164:main.c        ****   		if (res != FR_OK)
 165:main.c        **** 	  		printf("res = %d f_close LENGTH.TXT\n", res);
 166:main.c        **** #endif			
 167:main.c        ****     }
 168:main.c        **** // WRITE
 169:main.c        **** #endif 
 170:main.c        **** 	}
 171:main.c        **** 
 172:main.c        **** #ifdef WRITE
 173:main.c        **** 
 174:main.c        ****   res = f_open(&fil, "DIR.TXT", FA_CREATE_ALWAYS | FA_WRITE);
 175:main.c        **** 
 176:main.c        **** #ifdef DBG
 177:main.c        **** 	if (res != FR_OK)
 178:main.c        **** 		printf("res = %d f_open DIR.TXT\n", res);
 179:main.c        **** #endif
 180:main.c        **** 	
 181:main.c        ****   if (res == FR_OK)
 182:main.c        ****   {
 183:main.c        ****     UINT BytesWritten;
 184:main.c        **** 
 185:main.c        **** 		path = "";
 186:main.c        **** 
 187:main.c        **** 		res = f_opendir(&dir, path);
 188:main.c        **** 
 189:main.c        **** #ifdef DBG
 190:main.c        **** 		if (res != FR_OK)
 191:main.c        **** 			printf("res = %d f_opendir\n", res);
 192:main.c        **** #endif
 193:main.c        **** 	
 194:main.c        **** 		if (res == FR_OK)
 195:main.c        **** 		{
 196:main.c        **** 			while(1)
 197:main.c        **** 			{
 198:main.c        ****         char str[256];
 199:main.c        ****         char *s = str;
 200:main.c        **** 				char *fn;
 201:main.c        **** 
 202:main.c        **** 				res = f_readdir(&dir, &fno);
 203:main.c        **** 
 204:main.c        **** #ifdef DBG
 205:main.c        **** 				if (res != FR_OK)
 206:main.c        **** 					printf("res = %d f_readdir\n", res);
 207:main.c        **** #endif
 208:main.c        **** 			
 209:main.c        **** 				if ((res != FR_OK) || (fno.fname[0] == 0))
 210:main.c        **** 					break;
 211:main.c        **** 
ARM GAS  /tmp/cchfKgtF.s 			page 7


 212:main.c        **** #if _USE_LFN
 213:main.c        **** 				fn = *fno.lfname ? fno.lfname : fno.fname;
 214:main.c        **** #else
 215:main.c        **** 				fn = fno.fname;
 216:main.c        **** #endif
 217:main.c        **** 
 218:main.c        **** #ifdef DBG
 219:main.c        **** 				printf("%c%c%c%c ",
 220:main.c        **** 					((fno.fattrib & AM_DIR) ? 'D' : '-'),
 221:main.c        **** 					((fno.fattrib & AM_RDO) ? 'R' : '-'),
 222:main.c        **** 					((fno.fattrib & AM_SYS) ? 'S' : '-'),
 223:main.c        **** 					((fno.fattrib & AM_HID) ? 'H' : '-') );
 224:main.c        **** 
 225:main.c        **** 				printf("%10d ", fno.fsize);
 226:main.c        **** 
 227:main.c        **** 				printf("%s/%s\n", path, fn);
 228:main.c        **** #endif
 229:main.c        **** 				
 230:main.c        **** 		  	*s++ = ((fno.fattrib & AM_DIR) ? 'D' : '-');
 231:main.c        **** 				*s++ = ((fno.fattrib & AM_RDO) ? 'R' : '-');
 232:main.c        ****   			*s++ = ((fno.fattrib & AM_SYS) ? 'S' : '-');
 233:main.c        **** 	  		*s++ = ((fno.fattrib & AM_HID) ? 'H' : '-');
 234:main.c        **** 
 235:main.c        ****         *s++ = ' ';
 236:main.c        **** 
 237:main.c        ****         strcpy(s, dec32(fno.fsize));
 238:main.c        ****         s += strlen(s);
 239:main.c        **** 
 240:main.c        ****         *s++ = ' ';
 241:main.c        **** 
 242:main.c        ****         strcpy(s, path);
 243:main.c        ****         s += strlen(s);
 244:main.c        **** 
 245:main.c        ****         *s++ = '/';
 246:main.c        **** 
 247:main.c        ****         strcpy(s, fn);
 248:main.c        ****         s += strlen(s);
 249:main.c        **** 
 250:main.c        ****         *s++ = 0x0D;
 251:main.c        ****         *s++ = 0x0A;
 252:main.c        ****         *s++ = 0;
 253:main.c        **** 
 254:main.c        ****         res = f_write(&fil, str, strlen(str), &BytesWritten);
 255:main.c        **** 			}
 256:main.c        **** 		}
 257:main.c        **** 
 258:main.c        ****   	res = f_close(&fil); // DIR.TXT
 259:main.c        **** 
 260:main.c        **** #ifdef DBG		
 261:main.c        ****  		if (res != FR_OK)
 262:main.c        ****   		printf("res = %d f_close DIR.TXT\n", res);
 263:main.c        **** #endif
 264:main.c        ****   }
 265:main.c        ****   
 266:main.c        **** // WRITE		
 267:main.c        **** #endif 
 268:main.c        **** 
ARM GAS  /tmp/cchfKgtF.s 			page 8


 269:main.c        ****   while(1); /* Infinite loop */
 270:main.c        **** }
 271:main.c        **** 
 272:main.c        **** //******************************************************************************
 273:main.c        **** 
 274:main.c        **** void NVIC_Configuration(void)
 275:main.c        **** {
 129              		.loc 1 275 0
 130              		.cfi_startproc
 131              		@ args = 0, pretend = 0, frame = 8
 132              		@ frame_needed = 0, uses_anonymous_args = 0
 133 0000 07B5     		push	{r0, r1, r2, lr}	@
 134              	.LCFI1:
 135              		.cfi_def_cfa_offset 16
 136              		.cfi_offset 0, -16
 137              		.cfi_offset 1, -12
 138              		.cfi_offset 2, -8
 139              		.cfi_offset 14, -4
 276:main.c        ****   NVIC_InitTypeDef NVIC_InitStructure;
 277:main.c        **** 
 278:main.c        ****   /* Configure the NVIC Preemption Priority Bits */
 279:main.c        ****   NVIC_PriorityGroupConfig(NVIC_PriorityGroup_1);
 140              		.loc 1 279 0
 141 0002 4FF4C060 		mov	r0, #1536	@,
 142 0006 FFF7FEFF 		bl	NVIC_PriorityGroupConfig	@
 143              	.LVL4:
 280:main.c        **** 
 281:main.c        ****   NVIC_InitStructure.NVIC_IRQChannel = SDIO_IRQn;
 282:main.c        ****   NVIC_InitStructure.NVIC_IRQChannelPreemptionPriority = 0;
 144              		.loc 1 282 0
 145 000a 0020     		movs	r0, #0	@ tmp136,
 281:main.c        ****   NVIC_InitStructure.NVIC_IRQChannel = SDIO_IRQn;
 146              		.loc 1 281 0
 147 000c 3123     		movs	r3, #49	@ tmp134,
 148              		.loc 1 282 0
 149 000e 8DF80500 		strb	r0, [sp, #5]	@ tmp136, NVIC_InitStructure.NVIC_IRQChannelPreemptionPriority
 283:main.c        ****   NVIC_InitStructure.NVIC_IRQChannelSubPriority = 0;
 150              		.loc 1 283 0
 151 0012 8DF80600 		strb	r0, [sp, #6]	@ tmp136, NVIC_InitStructure.NVIC_IRQChannelSubPriority
 284:main.c        ****   NVIC_InitStructure.NVIC_IRQChannelCmd = ENABLE;
 152              		.loc 1 284 0
 153 0016 0121     		movs	r1, #1	@ tmp140,
 285:main.c        ****   NVIC_Init(&NVIC_InitStructure);
 154              		.loc 1 285 0
 155 0018 01A8     		add	r0, sp, #4	@,,
 281:main.c        ****   NVIC_InitStructure.NVIC_IRQChannel = SDIO_IRQn;
 156              		.loc 1 281 0
 157 001a 8DF80430 		strb	r3, [sp, #4]	@ tmp134, NVIC_InitStructure.NVIC_IRQChannel
 284:main.c        ****   NVIC_InitStructure.NVIC_IRQChannelCmd = ENABLE;
 158              		.loc 1 284 0
 159 001e 8DF80710 		strb	r1, [sp, #7]	@ tmp140, NVIC_InitStructure.NVIC_IRQChannelCmd
 160              		.loc 1 285 0
 161 0022 FFF7FEFF 		bl	NVIC_Init	@
 162              	.LVL5:
 286:main.c        **** }
 163              		.loc 1 286 0
 164 0026 0EBD     		pop	{r1, r2, r3, pc}
ARM GAS  /tmp/cchfKgtF.s 			page 9


 165              		.cfi_endproc
 166              	.LFE112:
 167              		.size	NVIC_Configuration, .-NVIC_Configuration
 168              		.section	.text.startup.main,"ax",%progbits
 169              		.align	1
 170              		.global	main
 171              		.thumb
 172              		.thumb_func
 173              		.type	main, %function
 174              	main:
 175              	.LFB111:
  66:main.c        **** {
 176              		.loc 1 66 0
 177              		.cfi_startproc
 178              		@ args = 0, pretend = 0, frame = 520
 179              		@ frame_needed = 0, uses_anonymous_args = 0
 180 0000 10B5     		push	{r4, lr}	@
 181              	.LCFI2:
 182              		.cfi_def_cfa_offset 8
 183              		.cfi_offset 4, -8
 184              		.cfi_offset 14, -4
 185 0002 ADF5027D 		sub	sp, sp, #520	@,,
 186              	.LCFI3:
 187              		.cfi_def_cfa_offset 528
  74:main.c        ****   NVIC_Configuration(); /* Interrupt Config */
 188              		.loc 1 74 0
 189 0006 FFF7FEFF 		bl	NVIC_Configuration	@
 190              	.LVL6:
  86:main.c        **** 	memset(&fs32, 0, sizeof(FATFS));
 191              		.loc 1 86 0
 192 000a 4FF40C72 		mov	r2, #560	@,
 193 000e 0021     		movs	r1, #0	@,
 194 0010 1348     		ldr	r0, .L14	@,
  88:main.c        **** 	res = f_mount(0, &fs32);
 195              		.loc 1 88 0
 196 0012 144C     		ldr	r4, .L14+4	@ tmp146,
  86:main.c        **** 	memset(&fs32, 0, sizeof(FATFS));
 197              		.loc 1 86 0
 198 0014 FFF7FEFF 		bl	memset	@
 199              	.LVL7:
  88:main.c        **** 	res = f_mount(0, &fs32);
 200              		.loc 1 88 0
 201 0018 1149     		ldr	r1, .L14	@,
 202 001a 0020     		movs	r0, #0	@,
 203 001c FFF7FEFF 		bl	f_mount	@
 204              	.LVL8:
  95:main.c        **** 	memset(&fil, 0, sizeof(FIL));
 205              		.loc 1 95 0
 206 0020 0021     		movs	r1, #0	@,
  88:main.c        **** 	res = f_mount(0, &fs32);
 207              		.loc 1 88 0
 208 0022 2070     		strb	r0, [r4, #0]	@, res
  95:main.c        **** 	memset(&fil, 0, sizeof(FIL));
 209              		.loc 1 95 0
 210 0024 4FF40972 		mov	r2, #548	@,
 211 0028 0F48     		ldr	r0, .L14+8	@,
 212 002a FFF7FEFF 		bl	memset	@
ARM GAS  /tmp/cchfKgtF.s 			page 10


 213              	.LVL9:
  97:main.c        **** 	res = f_open(&fil, "MESSAGE.TXT", FA_READ);
 214              		.loc 1 97 0
 215 002e 0E48     		ldr	r0, .L14+8	@,
 216 0030 0E49     		ldr	r1, .L14+12	@,
 217 0032 0122     		movs	r2, #1	@,
 218 0034 FFF7FEFF 		bl	f_open	@
 219              	.LVL10:
 220 0038 2070     		strb	r0, [r4, #0]	@ tmp154, res
 104:main.c        **** 	if (res == FR_OK)
 221              		.loc 1 104 0
 222 003a 80B9     		cbnz	r0, .L9	@ tmp154,
 223              	.LVL11:
 224              	.L12:
 225              	.LBB2:
 226              	.LBB3:
 113:main.c        **** 			res = f_read(&fil, Buffer, sizeof(Buffer), &BytesRead);
 227              		.loc 1 113 0
 228 003c 01AB     		add	r3, sp, #4	@,,
 229 003e 0A48     		ldr	r0, .L14+8	@,
 230              	.LVL12:
 231 0040 02A9     		add	r1, sp, #8	@,,
 232 0042 4FF40072 		mov	r2, #512	@,
 233 0046 FFF7FEFF 		bl	f_read	@
 234              	.LVL13:
 235 004a 064B     		ldr	r3, .L14+4	@ tmp161,
 236 004c 1870     		strb	r0, [r3, #0]	@ tmp160, res
 120:main.c        **** 			if (res != FR_OK)
 237              		.loc 1 120 0
 238 004e 18B9     		cbnz	r0, .L10	@ tmp160,
 130:main.c        **** 			if (BytesRead < sizeof(Buffer))
 239              		.loc 1 130 0
 240 0050 0198     		ldr	r0, [sp, #4]	@ BytesRead, BytesRead
 241 0052 B0F5007F 		cmp	r0, #512	@ BytesRead,
 242 0056 F1D2     		bcs	.L12	@,
 243              	.L10:
 244              	.LBE3:
 134:main.c        **** 		res = f_close(&fil); // MESSAGE.TXT
 245              		.loc 1 134 0
 246 0058 0348     		ldr	r0, .L14+8	@,
 247 005a FFF7FEFF 		bl	f_close	@
 248              	.LVL14:
 249              	.L9:
 250              	.L13:
 251 005e FEE7     		b	.L13	@
 252              	.L15:
 253              		.align	2
 254              	.L14:
 255 0060 00000000 		.word	fs32
 256 0064 00000000 		.word	res
 257 0068 00000000 		.word	fil
 258 006c 00000000 		.word	.LC0
 259              	.LBE2:
 260              		.cfi_endproc
 261              	.LFE111:
 262              		.size	main, .-main
 263              		.section	.text.RCC_Configuration,"ax",%progbits
ARM GAS  /tmp/cchfKgtF.s 			page 11


 264              		.align	1
 265              		.global	RCC_Configuration
 266              		.thumb
 267              		.thumb_func
 268              		.type	RCC_Configuration, %function
 269              	RCC_Configuration:
 270              	.LFB113:
 287:main.c        **** 
 288:main.c        **** /**************************************************************************************/
 289:main.c        **** 
 290:main.c        **** void RCC_Configuration(void)
 291:main.c        **** {
 271              		.loc 1 291 0
 272              		.cfi_startproc
 273              		@ args = 0, pretend = 0, frame = 0
 274              		@ frame_needed = 0, uses_anonymous_args = 0
 275 0000 08B5     		push	{r3, lr}	@
 276              	.LCFI4:
 277              		.cfi_def_cfa_offset 8
 278              		.cfi_offset 3, -8
 279              		.cfi_offset 14, -4
 292:main.c        ****   /* --------------------------- System Clocks Configuration -----------------*/
 293:main.c        ****   /* USART2 clock enable */
 294:main.c        ****   RCC_APB1PeriphClockCmd(RCC_APB1Periph_USART2, ENABLE);
 280              		.loc 1 294 0
 281 0002 0121     		movs	r1, #1	@,
 282 0004 4FF40030 		mov	r0, #131072	@,
 283 0008 FFF7FEFF 		bl	RCC_APB1PeriphClockCmd	@
 284              	.LVL15:
 295:main.c        **** 
 296:main.c        ****   /* GPIOA clock enable */
 297:main.c        ****   RCC_AHB1PeriphClockCmd(RCC_AHB1Periph_GPIOA, ENABLE);
 285              		.loc 1 297 0
 286 000c 0120     		movs	r0, #1	@,
 287 000e 0146     		mov	r1, r0	@,
 298:main.c        **** }
 288              		.loc 1 298 0
 289 0010 BDE80840 		pop	{r3, lr}	@
 297:main.c        ****   RCC_AHB1PeriphClockCmd(RCC_AHB1Periph_GPIOA, ENABLE);
 290              		.loc 1 297 0
 291 0014 FFF7FEBF 		b	RCC_AHB1PeriphClockCmd	@
 292              	.LVL16:
 293              		.cfi_endproc
 294              	.LFE113:
 295              		.size	RCC_Configuration, .-RCC_Configuration
 296              		.section	.text.GPIO_Configuration,"ax",%progbits
 297              		.align	1
 298              		.global	GPIO_Configuration
 299              		.thumb
 300              		.thumb_func
 301              		.type	GPIO_Configuration, %function
 302              	GPIO_Configuration:
 303              	.LFB114:
 299:main.c        **** 
 300:main.c        **** /**************************************************************************************/
 301:main.c        **** 
 302:main.c        **** void GPIO_Configuration(void)
ARM GAS  /tmp/cchfKgtF.s 			page 12


 303:main.c        **** {
 304              		.loc 1 303 0
 305              		.cfi_startproc
 306              		@ args = 0, pretend = 0, frame = 8
 307              		@ frame_needed = 0, uses_anonymous_args = 0
 308 0000 37B5     		push	{r0, r1, r2, r4, r5, lr}	@
 309              	.LCFI5:
 310              		.cfi_def_cfa_offset 24
 311              		.cfi_offset 0, -24
 312              		.cfi_offset 1, -20
 313              		.cfi_offset 2, -16
 314              		.cfi_offset 4, -12
 315              		.cfi_offset 5, -8
 316              		.cfi_offset 14, -4
 304:main.c        ****   GPIO_InitTypeDef GPIO_InitStructure;
 305:main.c        **** 
 306:main.c        ****   /*-------------------------- GPIO Configuration ----------------------------*/
 307:main.c        ****   GPIO_InitStructure.GPIO_Pin = GPIO_Pin_2 | GPIO_Pin_3;
 308:main.c        ****   GPIO_InitStructure.GPIO_Mode = GPIO_Mode_AF;
 309:main.c        ****   GPIO_InitStructure.GPIO_OType = GPIO_OType_PP;
 310:main.c        ****   GPIO_InitStructure.GPIO_PuPd = GPIO_PuPd_NOPULL;
 311:main.c        ****   GPIO_InitStructure.GPIO_Speed = GPIO_Speed_50MHz;
 312:main.c        ****   GPIO_Init(GPIOA, &GPIO_InitStructure);
 317              		.loc 1 312 0
 318 0002 0E4C     		ldr	r4, .L18	@ tmp143,
 309:main.c        ****   GPIO_InitStructure.GPIO_OType = GPIO_OType_PP;
 319              		.loc 1 309 0
 320 0004 0020     		movs	r0, #0	@ tmp137,
 307:main.c        ****   GPIO_InitStructure.GPIO_Pin = GPIO_Pin_2 | GPIO_Pin_3;
 321              		.loc 1 307 0
 322 0006 0C23     		movs	r3, #12	@ tmp134,
 308:main.c        ****   GPIO_InitStructure.GPIO_Mode = GPIO_Mode_AF;
 323              		.loc 1 308 0
 324 0008 0225     		movs	r5, #2	@ tmp135,
 309:main.c        ****   GPIO_InitStructure.GPIO_OType = GPIO_OType_PP;
 325              		.loc 1 309 0
 326 000a 8DF80600 		strb	r0, [sp, #6]	@ tmp137, GPIO_InitStructure.GPIO_OType
 310:main.c        ****   GPIO_InitStructure.GPIO_PuPd = GPIO_PuPd_NOPULL;
 327              		.loc 1 310 0
 328 000e 8DF80700 		strb	r0, [sp, #7]	@ tmp137, GPIO_InitStructure.GPIO_PuPd
 329              		.loc 1 312 0
 330 0012 6946     		mov	r1, sp	@,
 331 0014 2046     		mov	r0, r4	@, tmp143
 307:main.c        ****   GPIO_InitStructure.GPIO_Pin = GPIO_Pin_2 | GPIO_Pin_3;
 332              		.loc 1 307 0
 333 0016 0093     		str	r3, [sp, #0]	@ tmp134, GPIO_InitStructure.GPIO_Pin
 308:main.c        ****   GPIO_InitStructure.GPIO_Mode = GPIO_Mode_AF;
 334              		.loc 1 308 0
 335 0018 8DF80450 		strb	r5, [sp, #4]	@ tmp135, GPIO_InitStructure.GPIO_Mode
 311:main.c        ****   GPIO_InitStructure.GPIO_Speed = GPIO_Speed_50MHz;
 336              		.loc 1 311 0
 337 001c 8DF80550 		strb	r5, [sp, #5]	@ tmp135, GPIO_InitStructure.GPIO_Speed
 338              		.loc 1 312 0
 339 0020 FFF7FEFF 		bl	GPIO_Init	@
 340              	.LVL17:
 313:main.c        **** 
 314:main.c        ****   /* Connect USART pins to AF */
ARM GAS  /tmp/cchfKgtF.s 			page 13


 315:main.c        ****   GPIO_PinAFConfig(GPIOA, GPIO_PinSource2, GPIO_AF_USART2);  // USART2_TX
 341              		.loc 1 315 0
 342 0024 2046     		mov	r0, r4	@, tmp143
 343 0026 2946     		mov	r1, r5	@, tmp135
 344 0028 0722     		movs	r2, #7	@,
 345 002a FFF7FEFF 		bl	GPIO_PinAFConfig	@
 346              	.LVL18:
 316:main.c        ****   GPIO_PinAFConfig(GPIOA, GPIO_PinSource3, GPIO_AF_USART2);  // USART2_RX
 347              		.loc 1 316 0
 348 002e 2046     		mov	r0, r4	@, tmp143
 349 0030 0321     		movs	r1, #3	@,
 350 0032 0722     		movs	r2, #7	@,
 351 0034 FFF7FEFF 		bl	GPIO_PinAFConfig	@
 352              	.LVL19:
 317:main.c        **** 
 318:main.c        **** 
 319:main.c        **** }
 353              		.loc 1 319 0
 354 0038 3EBD     		pop	{r1, r2, r3, r4, r5, pc}
 355              	.L19:
 356 003a 00BF     		.align	2
 357              	.L18:
 358 003c 00000240 		.word	1073872896
 359              		.cfi_endproc
 360              	.LFE114:
 361              		.size	GPIO_Configuration, .-GPIO_Configuration
 362              		.section	.text.USART2_Configuration,"ax",%progbits
 363              		.align	1
 364              		.global	USART2_Configuration
 365              		.thumb
 366              		.thumb_func
 367              		.type	USART2_Configuration, %function
 368              	USART2_Configuration:
 369              	.LFB115:
 320:main.c        **** 
 321:main.c        **** /**************************************************************************************/
 322:main.c        **** 
 323:main.c        **** void USART2_Configuration(void)
 324:main.c        **** {
 370              		.loc 1 324 0
 371              		.cfi_startproc
 372              		@ args = 0, pretend = 0, frame = 16
 373              		@ frame_needed = 0, uses_anonymous_args = 0
 374 0000 1FB5     		push	{r0, r1, r2, r3, r4, lr}	@
 375              	.LCFI6:
 376              		.cfi_def_cfa_offset 24
 377              		.cfi_offset 0, -24
 378              		.cfi_offset 1, -20
 379              		.cfi_offset 2, -16
 380              		.cfi_offset 3, -12
 381              		.cfi_offset 4, -8
 382              		.cfi_offset 14, -4
 325:main.c        **** 	USART_InitTypeDef USART_InitStructure;
 326:main.c        **** 
 327:main.c        ****   /* USARTx configuration ------------------------------------------------------*/
 328:main.c        ****   /* USARTx configured as follow:
 329:main.c        ****         - BaudRate = 115200 baud
ARM GAS  /tmp/cchfKgtF.s 			page 14


 330:main.c        ****         - Word Length = 8 Bits
 331:main.c        ****         - One Stop Bit
 332:main.c        ****         - No parity
 333:main.c        ****         - Hardware flow control disabled (RTS and CTS signals)
 334:main.c        ****         - Receive and transmit enabled
 335:main.c        ****   */
 336:main.c        ****   USART_InitStructure.USART_BaudRate = 115200;
 337:main.c        ****   USART_InitStructure.USART_WordLength = USART_WordLength_8b;
 338:main.c        ****   USART_InitStructure.USART_StopBits = USART_StopBits_1;
 339:main.c        ****   USART_InitStructure.USART_Parity = USART_Parity_No;
 340:main.c        ****   USART_InitStructure.USART_HardwareFlowControl = USART_HardwareFlowControl_None;
 341:main.c        **** 
 342:main.c        ****   USART_InitStructure.USART_Mode = USART_Mode_Rx | USART_Mode_Tx;
 343:main.c        **** 
 344:main.c        ****   USART_Init(USART2, &USART_InitStructure);
 383              		.loc 1 344 0
 384 0002 0C4C     		ldr	r4, .L21	@ tmp145,
 337:main.c        ****   USART_InitStructure.USART_WordLength = USART_WordLength_8b;
 385              		.loc 1 337 0
 386 0004 0020     		movs	r0, #0	@ tmp136,
 342:main.c        ****   USART_InitStructure.USART_Mode = USART_Mode_Rx | USART_Mode_Tx;
 387              		.loc 1 342 0
 388 0006 0C21     		movs	r1, #12	@ tmp144,
 336:main.c        ****   USART_InitStructure.USART_BaudRate = 115200;
 389              		.loc 1 336 0
 390 0008 4FF4E133 		mov	r3, #115200	@ tmp134,
 337:main.c        ****   USART_InitStructure.USART_WordLength = USART_WordLength_8b;
 391              		.loc 1 337 0
 392 000c ADF80400 		strh	r0, [sp, #4]	@ movhi	@ tmp136, USART_InitStructure.USART_WordLength
 338:main.c        ****   USART_InitStructure.USART_StopBits = USART_StopBits_1;
 393              		.loc 1 338 0
 394 0010 ADF80600 		strh	r0, [sp, #6]	@ movhi	@ tmp136, USART_InitStructure.USART_StopBits
 339:main.c        ****   USART_InitStructure.USART_Parity = USART_Parity_No;
 395              		.loc 1 339 0
 396 0014 ADF80800 		strh	r0, [sp, #8]	@ movhi	@ tmp136, USART_InitStructure.USART_Parity
 340:main.c        ****   USART_InitStructure.USART_HardwareFlowControl = USART_HardwareFlowControl_None;
 397              		.loc 1 340 0
 398 0018 ADF80C00 		strh	r0, [sp, #12]	@ movhi	@ tmp136, USART_InitStructure.USART_HardwareFlowControl
 342:main.c        ****   USART_InitStructure.USART_Mode = USART_Mode_Rx | USART_Mode_Tx;
 399              		.loc 1 342 0
 400 001c ADF80A10 		strh	r1, [sp, #10]	@ movhi	@ tmp144, USART_InitStructure.USART_Mode
 401              		.loc 1 344 0
 402 0020 2046     		mov	r0, r4	@, tmp145
 403 0022 6946     		mov	r1, sp	@,
 336:main.c        ****   USART_InitStructure.USART_BaudRate = 115200;
 404              		.loc 1 336 0
 405 0024 0093     		str	r3, [sp, #0]	@ tmp134, USART_InitStructure.USART_BaudRate
 406              		.loc 1 344 0
 407 0026 FFF7FEFF 		bl	USART_Init	@
 408              	.LVL20:
 345:main.c        **** 
 346:main.c        ****   USART_Cmd(USART2, ENABLE);
 409              		.loc 1 346 0
 410 002a 2046     		mov	r0, r4	@, tmp145
 411 002c 0121     		movs	r1, #1	@,
 412 002e FFF7FEFF 		bl	USART_Cmd	@
 413              	.LVL21:
ARM GAS  /tmp/cchfKgtF.s 			page 15


 347:main.c        **** }
 414              		.loc 1 347 0
 415 0032 1FBD     		pop	{r0, r1, r2, r3, r4, pc}
 416              	.L22:
 417              		.align	2
 418              	.L21:
 419 0034 00440040 		.word	1073759232
 420              		.cfi_endproc
 421              	.LFE115:
 422              		.size	USART2_Configuration, .-USART2_Configuration
 423              		.section	.text.fputc,"ax",%progbits
 424              		.align	1
 425              		.global	fputc
 426              		.thumb
 427              		.thumb_func
 428              		.type	fputc, %function
 429              	fputc:
 430              	.LFB116:
 348:main.c        **** 
 349:main.c        **** //******************************************************************************
 350:main.c        **** // Hosting of stdio functionality through USART2
 351:main.c        **** //******************************************************************************
 352:main.c        **** 
 353:main.c        **** // #include <rt_misc.h>
 354:main.c        **** 
 355:main.c        **** 
 356:main.c        **** struct __FILE { int handle; /* Add whatever you need here */ };
 357:main.c        **** FILE __stdout;
 358:main.c        **** FILE __stdin;
 359:main.c        **** 
 360:main.c        **** int fputc(int ch, FILE *f)
 361:main.c        **** {
 431              		.loc 1 361 0
 432              		.cfi_startproc
 433              		@ args = 0, pretend = 0, frame = 0
 434              		@ frame_needed = 0, uses_anonymous_args = 0
 435              	.LVL22:
 362:main.c        **** 	static int last;
 363:main.c        **** 
 364:main.c        **** 	if ((ch == (int)'\n') && (last != (int)'\r'))
 436              		.loc 1 364 0
 437 0000 0A28     		cmp	r0, #10	@ ch,
 361:main.c        **** {
 438              		.loc 1 361 0
 439 0002 10B5     		push	{r4, lr}	@
 440              	.LCFI7:
 441              		.cfi_def_cfa_offset 8
 442              		.cfi_offset 4, -8
 443              		.cfi_offset 14, -4
 444 0004 104B     		ldr	r3, .L40	@ tmp159,
 361:main.c        **** {
 445              		.loc 1 361 0
 446 0006 0446     		mov	r4, r0	@ ch, ch
 447              		.loc 1 364 0
 448 0008 10D1     		bne	.L24	@,
 449              		.loc 1 364 0 is_stmt 0 discriminator 1
 450 000a 1A68     		ldr	r2, [r3, #0]	@ last, last
ARM GAS  /tmp/cchfKgtF.s 			page 16


 451 000c 0D2A     		cmp	r2, #13	@ last,
 452 000e 0DD0     		beq	.L24	@,
 365:main.c        **** 	{
 366:main.c        **** 		last = (int)'\r';
 453              		.loc 1 366 0 is_stmt 1
 454 0010 0D20     		movs	r0, #13	@ tmp146,
 455              	.LVL23:
 456 0012 1860     		str	r0, [r3, #0]	@ tmp146, last
 457              	.LVL24:
 458              	.L25:
 367:main.c        **** 
 368:main.c        ****   	while(USART_GetFlagStatus(USART2, USART_FLAG_TXE) == RESET);
 459              		.loc 1 368 0 discriminator 1
 460 0014 0D48     		ldr	r0, .L40+4	@,
 461 0016 8021     		movs	r1, #128	@,
 462 0018 FFF7FEFF 		bl	USART_GetFlagStatus	@
 463              	.LVL25:
 464 001c 0028     		cmp	r0, #0	@
 465 001e F9D0     		beq	.L25	@
 369:main.c        **** 
 370:main.c        ****  	  USART_SendData(USART2, last);
 466              		.loc 1 370 0
 467 0020 0949     		ldr	r1, .L40	@ tmp150,
 468 0022 0A48     		ldr	r0, .L40+4	@,
 469 0024 0988     		ldrh	r1, [r1, #0]	@, last
 470 0026 FFF7FEFF 		bl	USART_SendData	@
 471              	.LVL26:
 472 002a 00E0     		b	.L34	@
 473              	.LVL27:
 474              	.L24:
 371:main.c        **** 	}
 372:main.c        **** 	else
 373:main.c        **** 		last = ch;
 475              		.loc 1 373 0
 476 002c 1C60     		str	r4, [r3, #0]	@ ch, last
 477              	.LVL28:
 478              	.L34:
 374:main.c        **** 
 375:main.c        **** 	while(USART_GetFlagStatus(USART2, USART_FLAG_TXE) == RESET);
 479              		.loc 1 375 0 discriminator 1
 480 002e 0748     		ldr	r0, .L40+4	@,
 481 0030 8021     		movs	r1, #128	@,
 482 0032 FFF7FEFF 		bl	USART_GetFlagStatus	@
 483              	.LVL29:
 484 0036 0028     		cmp	r0, #0	@
 485 0038 F9D0     		beq	.L34	@
 376:main.c        **** 
 377:main.c        ****   USART_SendData(USART2, ch);
 486              		.loc 1 377 0
 487 003a 0448     		ldr	r0, .L40+4	@,
 488 003c A1B2     		uxth	r1, r4	@, ch
 489 003e FFF7FEFF 		bl	USART_SendData	@
 490              	.LVL30:
 378:main.c        **** 
 379:main.c        ****   return(ch);
 380:main.c        **** }
 491              		.loc 1 380 0
ARM GAS  /tmp/cchfKgtF.s 			page 17


 492 0042 2046     		mov	r0, r4	@, ch
 493 0044 10BD     		pop	{r4, pc}	@
 494              	.L41:
 495 0046 00BF     		.align	2
 496              	.L40:
 497 0048 00000000 		.word	.LANCHOR1
 498 004c 00440040 		.word	1073759232
 499              		.cfi_endproc
 500              	.LFE116:
 501              		.size	fputc, .-fputc
 502              		.section	.text.fgetc,"ax",%progbits
 503              		.align	1
 504              		.global	fgetc
 505              		.thumb
 506              		.thumb_func
 507              		.type	fgetc, %function
 508              	fgetc:
 509              	.LFB117:
 381:main.c        **** 
 382:main.c        **** int fgetc(FILE *f)
 383:main.c        **** {
 510              		.loc 1 383 0
 511              		.cfi_startproc
 512              		@ args = 0, pretend = 0, frame = 0
 513              		@ frame_needed = 0, uses_anonymous_args = 0
 514              	.LVL31:
 515 0000 08B5     		push	{r3, lr}	@
 516              	.LCFI8:
 517              		.cfi_def_cfa_offset 8
 518              		.cfi_offset 3, -8
 519              		.cfi_offset 14, -4
 520              	.LVL32:
 521              	.L43:
 384:main.c        **** 	char ch;
 385:main.c        **** 
 386:main.c        **** 	while(USART_GetFlagStatus(USART2, USART_FLAG_RXNE) == RESET);
 522              		.loc 1 386 0 discriminator 1
 523 0002 0548     		ldr	r0, .L48	@,
 524 0004 2021     		movs	r1, #32	@,
 525 0006 FFF7FEFF 		bl	USART_GetFlagStatus	@
 526              	.LVL33:
 527 000a 0028     		cmp	r0, #0	@
 528 000c F9D0     		beq	.L43	@
 387:main.c        **** 
 388:main.c        **** 	ch = USART_ReceiveData(USART2);
 529              		.loc 1 388 0
 530 000e 0248     		ldr	r0, .L48	@,
 531 0010 FFF7FEFF 		bl	USART_ReceiveData	@
 532              	.LVL34:
 389:main.c        **** 
 390:main.c        ****   return((int)ch);
 391:main.c        **** }
 533              		.loc 1 391 0
 534 0014 C0B2     		uxtb	r0, r0	@,
 535 0016 08BD     		pop	{r3, pc}	@
 536              	.L49:
 537              		.align	2
ARM GAS  /tmp/cchfKgtF.s 			page 18


 538              	.L48:
 539 0018 00440040 		.word	1073759232
 540              		.cfi_endproc
 541              	.LFE117:
 542              		.size	fgetc, .-fgetc
 543              		.section	.text._ttywrch,"ax",%progbits
 544              		.align	1
 545              		.global	_ttywrch
 546              		.thumb
 547              		.thumb_func
 548              		.type	_ttywrch, %function
 549              	_ttywrch:
 550              	.LFB118:
 392:main.c        **** 
 393:main.c        **** /*
 394:main.c        **** int ferror(FILE *f)
 395:main.c        **** {
 396:main.c        ****   // Your implementation of ferror 
 397:main.c        ****   return EOF;
 398:main.c        **** }
 399:main.c        **** */
 400:main.c        **** void _ttywrch(int ch)
 401:main.c        **** {
 551              		.loc 1 401 0
 552              		.cfi_startproc
 553              		@ args = 0, pretend = 0, frame = 0
 554              		@ frame_needed = 0, uses_anonymous_args = 0
 555              	.LVL35:
 402:main.c        **** 	static int last;
 403:main.c        **** 
 404:main.c        **** 	if ((ch == (int)'\n') && (last != (int)'\r'))
 556              		.loc 1 404 0
 557 0000 0A28     		cmp	r0, #10	@ ch,
 401:main.c        **** {
 558              		.loc 1 401 0
 559 0002 10B5     		push	{r4, lr}	@
 560              	.LCFI9:
 561              		.cfi_def_cfa_offset 8
 562              		.cfi_offset 4, -8
 563              		.cfi_offset 14, -4
 564 0004 104B     		ldr	r3, .L67	@ tmp156,
 401:main.c        **** {
 565              		.loc 1 401 0
 566 0006 0446     		mov	r4, r0	@ ch, ch
 567              		.loc 1 404 0
 568 0008 10D1     		bne	.L51	@,
 569              		.loc 1 404 0 is_stmt 0 discriminator 1
 570 000a 1A68     		ldr	r2, [r3, #0]	@ last, last
 571 000c 0D2A     		cmp	r2, #13	@ last,
 572 000e 0DD0     		beq	.L51	@,
 405:main.c        **** 	{
 406:main.c        **** 		last = (int)'\r';
 573              		.loc 1 406 0 is_stmt 1
 574 0010 0D20     		movs	r0, #13	@ tmp144,
 575              	.LVL36:
 576 0012 1860     		str	r0, [r3, #0]	@ tmp144, last
 577              	.L52:
ARM GAS  /tmp/cchfKgtF.s 			page 19


 407:main.c        **** 
 408:main.c        ****   	while(USART_GetFlagStatus(USART2, USART_FLAG_TXE) == RESET);
 578              		.loc 1 408 0 discriminator 1
 579 0014 0D48     		ldr	r0, .L67+4	@,
 580 0016 8021     		movs	r1, #128	@,
 581 0018 FFF7FEFF 		bl	USART_GetFlagStatus	@
 582              	.LVL37:
 583 001c 0028     		cmp	r0, #0	@
 584 001e F9D0     		beq	.L52	@
 409:main.c        **** 
 410:main.c        ****  	  USART_SendData(USART2, last);
 585              		.loc 1 410 0
 586 0020 0949     		ldr	r1, .L67	@ tmp148,
 587 0022 0A48     		ldr	r0, .L67+4	@,
 588 0024 0988     		ldrh	r1, [r1, #0]	@, last
 589 0026 FFF7FEFF 		bl	USART_SendData	@
 590              	.LVL38:
 591 002a 00E0     		b	.L61	@
 592              	.LVL39:
 593              	.L51:
 411:main.c        **** 	}
 412:main.c        **** 	else
 413:main.c        **** 		last = ch;
 594              		.loc 1 413 0
 595 002c 1C60     		str	r4, [r3, #0]	@ ch, last
 596              	.LVL40:
 597              	.L61:
 414:main.c        **** 
 415:main.c        **** 	while(USART_GetFlagStatus(USART2, USART_FLAG_TXE) == RESET);
 598              		.loc 1 415 0 discriminator 1
 599 002e 0748     		ldr	r0, .L67+4	@,
 600 0030 8021     		movs	r1, #128	@,
 601 0032 FFF7FEFF 		bl	USART_GetFlagStatus	@
 602              	.LVL41:
 603 0036 0028     		cmp	r0, #0	@
 604 0038 F9D0     		beq	.L61	@
 416:main.c        **** 
 417:main.c        ****   USART_SendData(USART2, ch);
 605              		.loc 1 417 0
 606 003a 0448     		ldr	r0, .L67+4	@,
 607 003c A1B2     		uxth	r1, r4	@, ch
 418:main.c        **** }
 608              		.loc 1 418 0
 609 003e BDE81040 		pop	{r4, lr}	@
 417:main.c        ****   USART_SendData(USART2, ch);
 610              		.loc 1 417 0
 611 0042 FFF7FEBF 		b	USART_SendData	@
 612              	.LVL42:
 613              	.L68:
 614 0046 00BF     		.align	2
 615              	.L67:
 616 0048 00000000 		.word	.LANCHOR2
 617 004c 00440040 		.word	1073759232
 618              		.cfi_endproc
 619              	.LFE118:
 620              		.size	_ttywrch, .-_ttywrch
 621              		.section	.text._sys_exit,"ax",%progbits
ARM GAS  /tmp/cchfKgtF.s 			page 20


 622              		.align	1
 623              		.global	_sys_exit
 624              		.thumb
 625              		.thumb_func
 626              		.type	_sys_exit, %function
 627              	_sys_exit:
 628              	.LFB119:
 419:main.c        **** 
 420:main.c        **** void _sys_exit(int return_code)
 421:main.c        **** {
 629              		.loc 1 421 0
 630              		.cfi_startproc
 631              		@ Volatile: function does not return.
 632              		@ args = 0, pretend = 0, frame = 0
 633              		@ frame_needed = 0, uses_anonymous_args = 0
 634              		@ link register save eliminated.
 635              	.L70:
 636              	.LVL43:
 637              	.L71:
 638 0000 FEE7     		b	.L71	@
 639              		.cfi_endproc
 640              	.LFE119:
 641              		.size	_sys_exit, .-_sys_exit
 642              		.comm	__stdin,104,4
 643              		.comm	__stdout,104,4
 644              		.comm	path,4,4
 645              		.comm	fs32,560,4
 646              		.comm	dir,28,4
 647              		.comm	fil,548,4
 648              		.comm	fno,24,4
 649              		.comm	res,1,1
 650              		.section	.bss.last.7860,"aw",%nobits
 651              		.align	2
 652              		.set	.LANCHOR1,. + 0
 653              		.type	last.7860, %object
 654              		.size	last.7860, 4
 655              	last.7860:
 656 0000 00000000 		.space	4
 657              		.section	.bss.last.7877,"aw",%nobits
 658              		.align	2
 659              		.set	.LANCHOR2,. + 0
 660              		.type	last.7877, %object
 661              		.size	last.7877, 4
 662              	last.7877:
 663 0000 00000000 		.space	4
 664              		.section	.rodata.str1.1,"aMS",%progbits,1
 665              	.LC0:
 666 0000 4D455353 		.ascii	"MESSAGE.TXT\000"
 666      4147452E 
 666      54585400 
 667              		.section	.bss.str.7824,"aw",%nobits
 668              		.set	.LANCHOR0,. + 0
 669              		.type	str.7824, %object
 670              		.size	str.7824, 16
 671              	str.7824:
 672 0000 00000000 		.space	16
 672      00000000 
ARM GAS  /tmp/cchfKgtF.s 			page 21


 672      00000000 
 672      00000000 
 673              		.text
 674              	.Letext0:
 675              		.file 2 "/usr/bin/../lib/gcc/arm-none-eabi/4.7.4/../../../../arm-none-eabi/include/sys/lock.h"
 676              		.file 3 "/usr/bin/../lib/gcc/arm-none-eabi/4.7.4/../../../../arm-none-eabi/include/sys/_types.h"
 677              		.file 4 "/usr/bin/../lib/gcc/arm-none-eabi/4.7.4/include/stddef.h"
 678              		.file 5 "/usr/bin/../lib/gcc/arm-none-eabi/4.7.4/../../../../arm-none-eabi/include/sys/reent.h"
 679              		.file 6 "/usr/bin/../lib/gcc/arm-none-eabi/4.7.4/../../../../arm-none-eabi/include/stdio.h"
 680              		.file 7 "/usr/bin/../lib/gcc/arm-none-eabi/4.7.4/../../../../arm-none-eabi/include/stdint.h"
 681              		.file 8 "stm32f4xx.h"
 682              		.file 9 "stm32f4xx_gpio.h"
 683              		.file 10 "stm32f4xx_usart.h"
 684              		.file 11 "misc.h"
 685              		.file 12 "integer.h"
 686              		.file 13 "ff.h"
 687              		.file 14 "cmsis/core_cm4.h"
 688              		.file 15 "stm32f4xx_rcc.h"