ARM GAS  /tmp/ccM6Ffe8.s 			page 1


   1              		.syntax unified
   2              		.cpu cortex-m4
   3              		.eabi_attribute 27, 3	@ Tag_ABI_HardFP_use
   4              		.eabi_attribute 28, 1	@ Tag_ABI_VFP_args
   5              		.fpu fpv4-sp-d16
   6              		.eabi_attribute 20, 1	@ Tag_ABI_FP_denormal
   7              		.eabi_attribute 21, 1	@ Tag_ABI_FP_exceptions
   8              		.eabi_attribute 23, 3	@ Tag_ABI_FP_number_model
   9              		.eabi_attribute 24, 1	@ Tag_ABI_align8_needed
  10              		.eabi_attribute 25, 1	@ Tag_ABI_align8_preserved
  11              		.eabi_attribute 26, 1	@ Tag_ABI_enum_size
  12              		.eabi_attribute 30, 4	@ Tag_ABI_optimization_goals
  13              		.eabi_attribute 34, 1	@ Tag_CPU_unaligned_access
  14              		.eabi_attribute 18, 4	@ Tag_ABI_PCS_wchar_t
  15              		.file	"misc.c"
  16              	@ GNU C (GNU Tools for ARM Embedded Processors) version 4.7.4 20130913 (release) [ARM/embedded-4_7-
  17              	@	compiled by GNU C version 4.7.3, GMP version 5.0.5, MPFR version 3.1.1-p2, MPC version 0.9
  18              	@ GGC heuristics: --param ggc-min-expand=100 --param ggc-min-heapsize=131072
  19              	@ options passed:  -I . -I ../ -I cmsis/ -imultilib armv7e-m/fpu
  20              	@ -iprefix /usr/bin/../lib/gcc/arm-none-eabi/4.7.4/
  21              	@ -isysroot /usr/bin/../arm-none-eabi -MD misc.d -MF .dep/misc.o.d -MP
  22              	@ -MQ misc.o -D__USES_INITFINI__ -D __FPU_USED=1 -D __arm__ -D __ASSEMBLY__
  23              	@ -D USE_STDPERIPH_DRIVER -D STM32F4XX -D HSE_VALUE=8000000
  24              	@ -D __FPU_PRESENT=1 -D __FPU_USED=1 -D STM32F405VG -D USE_USB_OTG_FS
  25              	@ -D RUN_FROM_FLASH=1 misc.c -mthumb -mcpu=cortex-m4 -mfloat-abi=hard
  26              	@ -mfpu=fpv4-sp-d16 -mthumb -auxbase-strip misc.o -gdwarf-2 -Os -Wall
  27              	@ -Wstrict-prototypes -std=gnu99 -falign-functions=16 -fno-inline
  28              	@ -fomit-frame-pointer -fverbose-asm -ffunction-sections -fdata-sections
  29              	@ options enabled:  -fauto-inc-dec -fbranch-count-reg -fcaller-saves
  30              	@ -fcombine-stack-adjustments -fcommon -fcompare-elim -fcprop-registers
  31              	@ -fcrossjumping -fcse-follow-jumps -fdata-sections -fdebug-types-section
  32              	@ -fdefer-pop -fdelete-null-pointer-checks -fdevirtualize -fdwarf2-cfi-asm
  33              	@ -fearly-inlining -feliminate-unused-debug-types -fexpensive-optimizations
  34              	@ -fforward-propagate -ffunction-cse -ffunction-sections -fgcse -fgcse-lm
  35              	@ -fgnu-runtime -fguess-branch-probability -fident -fif-conversion
  36              	@ -fif-conversion2 -findirect-inlining -finline-atomics -finline-functions
  37              	@ -finline-functions-called-once -finline-small-functions -fipa-cp
  38              	@ -fipa-profile -fipa-pure-const -fipa-reference -fipa-sra
  39              	@ -fira-share-save-slots -fira-share-spill-slots -fivopts
  40              	@ -fkeep-static-consts -fleading-underscore -fmath-errno -fmerge-constants
  41              	@ -fmerge-debug-strings -fomit-frame-pointer -foptimize-register-move
  42              	@ -foptimize-sibling-calls -fpartial-inlining -fpeephole -fpeephole2
  43              	@ -fprefetch-loop-arrays -freg-struct-return -fregmove -frename-registers
  44              	@ -freorder-blocks -freorder-functions -frerun-cse-after-loop
  45              	@ -fsched-critical-path-heuristic -fsched-dep-count-heuristic
  46              	@ -fsched-group-heuristic -fsched-interblock -fsched-last-insn-heuristic
  47              	@ -fsched-rank-heuristic -fsched-spec -fsched-spec-insn-heuristic
  48              	@ -fsched-stalled-insns-dep -fschedule-insns2 -fsection-anchors
  49              	@ -fshow-column -fshrink-wrap -fsigned-zeros -fsplit-ivs-in-unroller
  50              	@ -fsplit-wide-types -fstrict-aliasing -fstrict-overflow
  51              	@ -fstrict-volatile-bitfields -fthread-jumps -ftoplevel-reorder
  52              	@ -ftrapping-math -ftree-bit-ccp -ftree-builtin-call-dce -ftree-ccp
  53              	@ -ftree-ch -ftree-copy-prop -ftree-copyrename -ftree-cselim -ftree-dce
  54              	@ -ftree-dominator-opts -ftree-dse -ftree-forwprop -ftree-fre
  55              	@ -ftree-loop-if-convert -ftree-loop-im -ftree-loop-ivcanon
  56              	@ -ftree-loop-optimize -ftree-parallelize-loops= -ftree-phiprop -ftree-pre
  57              	@ -ftree-pta -ftree-reassoc -ftree-scev-cprop -ftree-sink
ARM GAS  /tmp/ccM6Ffe8.s 			page 2


  58              	@ -ftree-slp-vectorize -ftree-sra -ftree-switch-conversion
  59              	@ -ftree-tail-merge -ftree-ter -ftree-vect-loop-version -ftree-vrp
  60              	@ -funit-at-a-time -funroll-loops -fvar-tracking -fvar-tracking-assignments
  61              	@ -fverbose-asm -fweb -fzero-initialized-in-bss -mlittle-endian
  62              	@ -msched-prolog -mthumb -munaligned-access -mvectorize-with-neon-quad
  63              	
  64              		.text
  65              	.Ltext0:
  66              		.cfi_sections	.debug_frame
  67              		.section	.text.NVIC_PriorityGroupConfig,"ax",%progbits
  68              		.align	1
  69              		.global	NVIC_PriorityGroupConfig
  70              		.thumb
  71              		.thumb_func
  72              		.type	NVIC_PriorityGroupConfig, %function
  73              	NVIC_PriorityGroupConfig:
  74              	.LFB110:
  75              		.file 1 "misc.c"
   1:misc.c        **** /**
   2:misc.c        ****   ******************************************************************************
   3:misc.c        ****   * @file    misc.c
   4:misc.c        ****   * @author  MCD Application Team
   5:misc.c        ****   * @version V1.1.0
   6:misc.c        ****   * @date    11-January-2013
   7:misc.c        ****   * @brief   This file provides all the miscellaneous firmware functions (add-on
   8:misc.c        ****   *          to CMSIS functions).
   9:misc.c        ****   *          
  10:misc.c        ****   *  @verbatim   
  11:misc.c        ****   *                               
  12:misc.c        ****   *          ===================================================================      
  13:misc.c        ****   *                        How to configure Interrupts using driver 
  14:misc.c        ****   *          ===================================================================      
  15:misc.c        ****   * 
  16:misc.c        ****   *            This section provide functions allowing to configure the NVIC interrupts (IRQ).
  17:misc.c        ****   *            The Cortex-M4 exceptions are managed by CMSIS functions.
  18:misc.c        ****   *
  19:misc.c        ****   *            1. Configure the NVIC Priority Grouping using NVIC_PriorityGroupConfig()
  20:misc.c        ****   *                function according to the following table.
  21:misc.c        ****  
  22:misc.c        ****   *  The table below gives the allowed values of the pre-emption priority and subpriority according
  23:misc.c        ****   *  to the Priority Grouping configuration performed by NVIC_PriorityGroupConfig function
  24:misc.c        ****   *    ============================================================================================
  25:misc.c        ****   *      NVIC_PriorityGroup   | NVIC_IRQChannelPreemptionPriority | NVIC_IRQChannelSubPriority  |  
  26:misc.c        ****   *    ============================================================================================
  27:misc.c        ****   *     NVIC_PriorityGroup_0  |                0                  |            0-15             | 0
  28:misc.c        ****   *                           |                                   |                             | 4
  29:misc.c        ****   *    --------------------------------------------------------------------------------------------
  30:misc.c        ****   *     NVIC_PriorityGroup_1  |                0-1                |            0-7              | 1
  31:misc.c        ****   *                           |                                   |                             | 3
  32:misc.c        ****   *    --------------------------------------------------------------------------------------------
  33:misc.c        ****   *     NVIC_PriorityGroup_2  |                0-3                |            0-3              | 2
  34:misc.c        ****   *                           |                                   |                             | 2
  35:misc.c        ****   *    --------------------------------------------------------------------------------------------
  36:misc.c        ****   *     NVIC_PriorityGroup_3  |                0-7                |            0-1              | 3
  37:misc.c        ****   *                           |                                   |                             | 1
  38:misc.c        ****   *    --------------------------------------------------------------------------------------------
  39:misc.c        ****   *     NVIC_PriorityGroup_4  |                0-15               |            0                | 4
ARM GAS  /tmp/ccM6Ffe8.s 			page 3


  40:misc.c        ****   *                           |                                   |                             | 0
  41:misc.c        ****   *    ============================================================================================
  42:misc.c        ****   *
  43:misc.c        ****   *            2. Enable and Configure the priority of the selected IRQ Channels using NVIC_Init() 
  44:misc.c        ****   *
  45:misc.c        ****   * @note  When the NVIC_PriorityGroup_0 is selected, IRQ pre-emption is no more possible. 
  46:misc.c        ****   *        The pending IRQ priority will be managed only by the subpriority.
  47:misc.c        ****   *
  48:misc.c        ****   * @note  IRQ priority order (sorted by highest to lowest priority):
  49:misc.c        ****   *         - Lowest pre-emption priority
  50:misc.c        ****   *         - Lowest subpriority
  51:misc.c        ****   *         - Lowest hardware priority (IRQ number)
  52:misc.c        ****   *
  53:misc.c        ****   *  @endverbatim
  54:misc.c        ****   *
  55:misc.c        ****   ******************************************************************************
  56:misc.c        ****   * @attention
  57:misc.c        ****   *
  58:misc.c        ****   * <h2><center>&copy; COPYRIGHT 2013 STMicroelectronics</center></h2>
  59:misc.c        ****   *
  60:misc.c        ****   * Licensed under MCD-ST Liberty SW License Agreement V2, (the "License");
  61:misc.c        ****   * You may not use this file except in compliance with the License.
  62:misc.c        ****   * You may obtain a copy of the License at:
  63:misc.c        ****   *
  64:misc.c        ****   *        http://www.st.com/software_license_agreement_liberty_v2
  65:misc.c        ****   *
  66:misc.c        ****   * Unless required by applicable law or agreed to in writing, software 
  67:misc.c        ****   * distributed under the License is distributed on an "AS IS" BASIS, 
  68:misc.c        ****   * WITHOUT WARRANTIES OR CONDITIONS OF ANY KIND, either express or implied.
  69:misc.c        ****   * See the License for the specific language governing permissions and
  70:misc.c        ****   * limitations under the License.
  71:misc.c        ****   *
  72:misc.c        ****   ******************************************************************************
  73:misc.c        ****   */
  74:misc.c        **** 
  75:misc.c        **** /* Includes ------------------------------------------------------------------*/
  76:misc.c        **** #include "misc.h"
  77:misc.c        **** 
  78:misc.c        **** /** @addtogroup STM32F4xx_StdPeriph_Driver
  79:misc.c        ****   * @{
  80:misc.c        ****   */
  81:misc.c        **** 
  82:misc.c        **** /** @defgroup MISC 
  83:misc.c        ****   * @brief MISC driver modules
  84:misc.c        ****   * @{
  85:misc.c        ****   */
  86:misc.c        **** 
  87:misc.c        **** /* Private typedef -----------------------------------------------------------*/
  88:misc.c        **** /* Private define ------------------------------------------------------------*/
  89:misc.c        **** #define AIRCR_VECTKEY_MASK    ((uint32_t)0x05FA0000)
  90:misc.c        **** 
  91:misc.c        **** /* Private macro -------------------------------------------------------------*/
  92:misc.c        **** /* Private variables ---------------------------------------------------------*/
  93:misc.c        **** /* Private function prototypes -----------------------------------------------*/
  94:misc.c        **** /* Private functions ---------------------------------------------------------*/
  95:misc.c        **** 
  96:misc.c        **** /** @defgroup MISC_Private_Functions
ARM GAS  /tmp/ccM6Ffe8.s 			page 4


  97:misc.c        ****   * @{
  98:misc.c        ****   */
  99:misc.c        **** 
 100:misc.c        **** /**
 101:misc.c        ****   * @brief  Configures the priority grouping: pre-emption priority and subpriority.
 102:misc.c        ****   * @param  NVIC_PriorityGroup: specifies the priority grouping bits length. 
 103:misc.c        ****   *   This parameter can be one of the following values:
 104:misc.c        ****   *     @arg NVIC_PriorityGroup_0: 0 bits for pre-emption priority
 105:misc.c        ****   *                                4 bits for subpriority
 106:misc.c        ****   *     @arg NVIC_PriorityGroup_1: 1 bits for pre-emption priority
 107:misc.c        ****   *                                3 bits for subpriority
 108:misc.c        ****   *     @arg NVIC_PriorityGroup_2: 2 bits for pre-emption priority
 109:misc.c        ****   *                                2 bits for subpriority
 110:misc.c        ****   *     @arg NVIC_PriorityGroup_3: 3 bits for pre-emption priority
 111:misc.c        ****   *                                1 bits for subpriority
 112:misc.c        ****   *     @arg NVIC_PriorityGroup_4: 4 bits for pre-emption priority
 113:misc.c        ****   *                                0 bits for subpriority
 114:misc.c        ****   * @note   When the NVIC_PriorityGroup_0 is selected, IRQ pre-emption is no more possible. 
 115:misc.c        ****   *         The pending IRQ priority will be managed only by the subpriority. 
 116:misc.c        ****   * @retval None
 117:misc.c        ****   */
 118:misc.c        **** void NVIC_PriorityGroupConfig(uint32_t NVIC_PriorityGroup)
 119:misc.c        **** {
  76              		.loc 1 119 0
  77              		.cfi_startproc
  78              		@ args = 0, pretend = 0, frame = 0
  79              		@ frame_needed = 0, uses_anonymous_args = 0
  80              		@ link register save eliminated.
  81              	.LVL0:
 120:misc.c        ****   /* Check the parameters */
 121:misc.c        ****   assert_param(IS_NVIC_PRIORITY_GROUP(NVIC_PriorityGroup));
 122:misc.c        ****   
 123:misc.c        ****   /* Set the PRIGROUP[10:8] bits according to NVIC_PriorityGroup value */
 124:misc.c        ****   SCB->AIRCR = AIRCR_VECTKEY_MASK | NVIC_PriorityGroup;
  82              		.loc 1 124 0
  83 0000 40F0BF60 		orr	r0, r0, #100139008	@ tmp136, NVIC_PriorityGroup,
  84              	.LVL1:
  85 0004 024B     		ldr	r3, .L2	@ tmp137,
  86 0006 40F40031 		orr	r1, r0, #131072	@ D.5976, tmp136,
  87 000a D960     		str	r1, [r3, #12]	@ D.5976, MEM[(struct SCB_Type *)3758157056B].AIRCR
  88 000c 7047     		bx	lr	@
  89              	.L3:
  90 000e 00BF     		.align	2
  91              	.L2:
  92 0010 00ED00E0 		.word	-536810240
  93              		.cfi_endproc
  94              	.LFE110:
  95              		.size	NVIC_PriorityGroupConfig, .-NVIC_PriorityGroupConfig
  96              		.section	.text.NVIC_Init,"ax",%progbits
  97              		.align	1
  98              		.global	NVIC_Init
  99              		.thumb
 100              		.thumb_func
 101              		.type	NVIC_Init, %function
 102              	NVIC_Init:
 103              	.LFB111:
 125:misc.c        **** }
ARM GAS  /tmp/ccM6Ffe8.s 			page 5


 126:misc.c        **** 
 127:misc.c        **** /**
 128:misc.c        ****   * @brief  Initializes the NVIC peripheral according to the specified
 129:misc.c        ****   *         parameters in the NVIC_InitStruct.
 130:misc.c        ****   * @note   To configure interrupts priority correctly, the NVIC_PriorityGroupConfig()
 131:misc.c        ****   *         function should be called before. 
 132:misc.c        ****   * @param  NVIC_InitStruct: pointer to a NVIC_InitTypeDef structure that contains
 133:misc.c        ****   *         the configuration information for the specified NVIC peripheral.
 134:misc.c        ****   * @retval None
 135:misc.c        ****   */
 136:misc.c        **** void NVIC_Init(NVIC_InitTypeDef* NVIC_InitStruct)
 137:misc.c        **** {
 104              		.loc 1 137 0
 105              		.cfi_startproc
 106              		@ args = 0, pretend = 0, frame = 0
 107              		@ frame_needed = 0, uses_anonymous_args = 0
 108              		@ link register save eliminated.
 109              	.LVL2:
 138:misc.c        ****   uint8_t tmppriority = 0x00, tmppre = 0x00, tmpsub = 0x0F;
 139:misc.c        ****   
 140:misc.c        ****   /* Check the parameters */
 141:misc.c        ****   assert_param(IS_FUNCTIONAL_STATE(NVIC_InitStruct->NVIC_IRQChannelCmd));
 142:misc.c        ****   assert_param(IS_NVIC_PREEMPTION_PRIORITY(NVIC_InitStruct->NVIC_IRQChannelPreemptionPriority));  
 143:misc.c        ****   assert_param(IS_NVIC_SUB_PRIORITY(NVIC_InitStruct->NVIC_IRQChannelSubPriority));
 144:misc.c        ****     
 145:misc.c        ****   if (NVIC_InitStruct->NVIC_IRQChannelCmd != DISABLE)
 110              		.loc 1 145 0
 111 0000 C378     		ldrb	r3, [r0, #3]	@ zero_extendqisi2	@ NVIC_InitStruct_4(D)->NVIC_IRQChannelCmd, NVIC_InitStruct_4
 112 0002 13B3     		cbz	r3, .L5	@ NVIC_InitStruct_4(D)->NVIC_IRQChannelCmd,
 146:misc.c        ****   {
 147:misc.c        ****     /* Compute the Corresponding IRQ Priority --------------------------------*/    
 148:misc.c        ****     tmppriority = (0x700 - ((SCB->AIRCR) & (uint32_t)0x700))>> 0x08;
 113              		.loc 1 148 0
 114 0004 1749     		ldr	r1, .L9	@ tmp169,
 115 0006 CB68     		ldr	r3, [r1, #12]	@ D.5954, MEM[(struct SCB_Type *)3758157056B].AIRCR
 149:misc.c        ****     tmppre = (0x4 - tmppriority);
 150:misc.c        ****     tmpsub = tmpsub >> tmppriority;
 151:misc.c        **** 
 152:misc.c        ****     tmppriority = NVIC_InitStruct->NVIC_IRQChannelPreemptionPriority << tmppre;
 116              		.loc 1 152 0
 117 0008 4178     		ldrb	r1, [r0, #1]	@ zero_extendqisi2	@ NVIC_InitStruct_4(D)->NVIC_IRQChannelPreemptionPriority, NV
 148:misc.c        ****     tmppriority = (0x700 - ((SCB->AIRCR) & (uint32_t)0x700))>> 0x08;
 118              		.loc 1 148 0
 119 000a DA43     		mvns	r2, r3	@ tmp170, D.5954
 120 000c C2F30223 		ubfx	r3, r2, #8, #3	@ D.5980, tmp170,,
 121              	.LVL3:
 149:misc.c        ****     tmppre = (0x4 - tmppriority);
 122              		.loc 1 149 0
 123 0010 C3F10402 		rsb	r2, r3, #4	@ tmp174, D.5980,
 124              		.loc 1 152 0
 125 0014 D2B2     		uxtb	r2, r2	@ tmp175, tmp174
 126 0016 01FA02F1 		lsl	r1, r1, r2	@ D.5964, NVIC_InitStruct_4(D)->NVIC_IRQChannelPreemptionPriority, tmp175
 127 001a CAB2     		uxtb	r2, r1	@ tmppriority, D.5964
 128              	.LVL4:
 150:misc.c        ****     tmpsub = tmpsub >> tmppriority;
 129              		.loc 1 150 0
 130 001c 0F21     		movs	r1, #15	@ tmp177,
ARM GAS  /tmp/ccM6Ffe8.s 			page 6


 131              	.LVL5:
 132 001e 41FA03F3 		asr	r3, r1, r3	@ tmp176, tmp177, D.5980
 133              	.LVL6:
 153:misc.c        ****     tmppriority |=  (uint8_t)(NVIC_InitStruct->NVIC_IRQChannelSubPriority & tmpsub);
 134              		.loc 1 153 0
 135 0022 8178     		ldrb	r1, [r0, #2]	@ zero_extendqisi2	@ NVIC_InitStruct_4(D)->NVIC_IRQChannelSubPriority, NVIC_Init
 136 0024 0B40     		ands	r3, r3, r1	@, tmp181, tmp176, NVIC_InitStruct_4(D)->NVIC_IRQChannelSubPriority
 137 0026 1A43     		orrs	r2, r2, r3	@, tmppriority, tmppriority, tmp181
 138              	.LVL7:
 154:misc.c        ****         
 155:misc.c        ****     tmppriority = tmppriority << 0x04;
 156:misc.c        ****         
 157:misc.c        ****     NVIC->IP[NVIC_InitStruct->NVIC_IRQChannel] = tmppriority;
 139              		.loc 1 157 0
 140 0028 0378     		ldrb	r3, [r0, #0]	@ zero_extendqisi2	@ D.5969, NVIC_InitStruct_4(D)->NVIC_IRQChannel
 155:misc.c        ****     tmppriority = tmppriority << 0x04;
 141              		.loc 1 155 0
 142 002a 1201     		lsls	r2, r2, #4	@ tmp184, tmppriority,
 143              	.LVL8:
 144 002c D1B2     		uxtb	r1, r2	@ tmppriority, tmp184
 145              	.LVL9:
 146              		.loc 1 157 0
 147 002e 03F16042 		add	r2, r3, #-536870912	@ tmp186, D.5969,
 148              	.LVL10:
 149 0032 02F56143 		add	r3, r2, #57600	@ tmp186, tmp186,
 158:misc.c        ****     
 159:misc.c        ****     /* Enable the Selected IRQ Channels --------------------------------------*/
 160:misc.c        ****     NVIC->ISER[NVIC_InitStruct->NVIC_IRQChannel >> 0x05] =
 161:misc.c        ****       (uint32_t)0x01 << (NVIC_InitStruct->NVIC_IRQChannel & (uint8_t)0x1F);
 150              		.loc 1 161 0
 151 0036 0122     		movs	r2, #1	@ tmp191,
 157:misc.c        ****     NVIC->IP[NVIC_InitStruct->NVIC_IRQChannel] = tmppriority;
 152              		.loc 1 157 0
 153 0038 83F80013 		strb	r1, [r3, #768]	@ tmppriority, MEM[(struct NVIC_Type *)3758153984B].IP
 160:misc.c        ****     NVIC->ISER[NVIC_InitStruct->NVIC_IRQChannel >> 0x05] =
 154              		.loc 1 160 0
 155 003c 0078     		ldrb	r0, [r0, #0]	@ zero_extendqisi2	@ D.5968, NVIC_InitStruct_4(D)->NVIC_IRQChannel
 156              	.LVL11:
 157              		.loc 1 161 0
 158 003e 00F01F03 		and	r3, r0, #31	@ tmp190, D.5968,
 160:misc.c        ****     NVIC->ISER[NVIC_InitStruct->NVIC_IRQChannel >> 0x05] =
 159              		.loc 1 160 0
 160 0042 4109     		lsrs	r1, r0, #5	@ D.5971, D.5968,
 161              	.LVL12:
 162              		.loc 1 161 0
 163 0044 02FA03F0 		lsl	r0, r2, r3	@ D.5973, tmp191, tmp190
 164 0048 07E0     		b	.L7	@
 165              	.LVL13:
 166              	.L5:
 162:misc.c        ****   }
 163:misc.c        ****   else
 164:misc.c        ****   {
 165:misc.c        ****     /* Disable the Selected IRQ Channels -------------------------------------*/
 166:misc.c        ****     NVIC->ICER[NVIC_InitStruct->NVIC_IRQChannel >> 0x05] =
 167              		.loc 1 166 0
 168 004a 0078     		ldrb	r0, [r0, #0]	@ zero_extendqisi2	@ D.5968, NVIC_InitStruct_4(D)->NVIC_IRQChannel
 169              	.LVL14:
ARM GAS  /tmp/ccM6Ffe8.s 			page 7


 167:misc.c        ****       (uint32_t)0x01 << (NVIC_InitStruct->NVIC_IRQChannel & (uint8_t)0x1F);
 170              		.loc 1 167 0
 171 004c 0122     		movs	r2, #1	@ tmp196,
 166:misc.c        ****     NVIC->ICER[NVIC_InitStruct->NVIC_IRQChannel >> 0x05] =
 172              		.loc 1 166 0
 173 004e 4109     		lsrs	r1, r0, #5	@ D.5971, D.5968,
 174              		.loc 1 167 0
 175 0050 00F01F03 		and	r3, r0, #31	@ tmp195, D.5968,
 176 0054 02FA03F0 		lsl	r0, r2, r3	@ D.5973, tmp196, tmp195
 166:misc.c        ****     NVIC->ICER[NVIC_InitStruct->NVIC_IRQChannel >> 0x05] =
 177              		.loc 1 166 0
 178 0058 2031     		adds	r1, r1, #32	@ tmp198, D.5971,
 179              	.LVL15:
 180              	.L7:
 181 005a 034B     		ldr	r3, .L9+4	@ tmp197,
 182 005c 43F82100 		str	r0, [r3, r1, lsl #2]	@ D.5973,
 183 0060 7047     		bx	lr	@
 184              	.L10:
 185 0062 00BF     		.align	2
 186              	.L9:
 187 0064 00ED00E0 		.word	-536810240
 188 0068 00E100E0 		.word	-536813312
 189              		.cfi_endproc
 190              	.LFE111:
 191              		.size	NVIC_Init, .-NVIC_Init
 192              		.section	.text.NVIC_SetVectorTable,"ax",%progbits
 193              		.align	1
 194              		.global	NVIC_SetVectorTable
 195              		.thumb
 196              		.thumb_func
 197              		.type	NVIC_SetVectorTable, %function
 198              	NVIC_SetVectorTable:
 199              	.LFB112:
 168:misc.c        ****   }
 169:misc.c        **** }
 170:misc.c        **** 
 171:misc.c        **** /**
 172:misc.c        ****   * @brief  Sets the vector table location and Offset.
 173:misc.c        ****   * @param  NVIC_VectTab: specifies if the vector table is in RAM or FLASH memory.
 174:misc.c        ****   *   This parameter can be one of the following values:
 175:misc.c        ****   *     @arg NVIC_VectTab_RAM: Vector Table in internal SRAM.
 176:misc.c        ****   *     @arg NVIC_VectTab_FLASH: Vector Table in internal FLASH.
 177:misc.c        ****   * @param  Offset: Vector Table base offset field. This value must be a multiple of 0x200.
 178:misc.c        ****   * @retval None
 179:misc.c        ****   */
 180:misc.c        **** void NVIC_SetVectorTable(uint32_t NVIC_VectTab, uint32_t Offset)
 181:misc.c        **** { 
 200              		.loc 1 181 0
 201              		.cfi_startproc
 202              		@ args = 0, pretend = 0, frame = 0
 203              		@ frame_needed = 0, uses_anonymous_args = 0
 204              		@ link register save eliminated.
 205              	.LVL16:
 182:misc.c        ****   /* Check the parameters */
 183:misc.c        ****   assert_param(IS_NVIC_VECTTAB(NVIC_VectTab));
 184:misc.c        ****   assert_param(IS_NVIC_OFFSET(Offset));  
 185:misc.c        ****    
ARM GAS  /tmp/ccM6Ffe8.s 			page 8


 186:misc.c        ****   SCB->VTOR = NVIC_VectTab | (Offset & (uint32_t)0x1FFFFF80);
 206              		.loc 1 186 0
 207 0000 21F06041 		bic	r1, r1, #-536870912	@ tmp139, Offset,
 208              	.LVL17:
 209 0004 21F07F02 		bic	r2, r1, #127	@ tmp138, tmp139,
 210 0008 014B     		ldr	r3, .L12	@ tmp140,
 211 000a 1043     		orrs	r0, r0, r2	@, D.5949, NVIC_VectTab, tmp138
 212              	.LVL18:
 213 000c 9860     		str	r0, [r3, #8]	@ D.5949, MEM[(struct SCB_Type *)3758157056B].VTOR
 214 000e 7047     		bx	lr	@
 215              	.L13:
 216              		.align	2
 217              	.L12:
 218 0010 00ED00E0 		.word	-536810240
 219              		.cfi_endproc
 220              	.LFE112:
 221              		.size	NVIC_SetVectorTable, .-NVIC_SetVectorTable
 222              		.section	.text.NVIC_SystemLPConfig,"ax",%progbits
 223              		.align	1
 224              		.global	NVIC_SystemLPConfig
 225              		.thumb
 226              		.thumb_func
 227              		.type	NVIC_SystemLPConfig, %function
 228              	NVIC_SystemLPConfig:
 229              	.LFB113:
 187:misc.c        **** }
 188:misc.c        **** 
 189:misc.c        **** /**
 190:misc.c        ****   * @brief  Selects the condition for the system to enter low power mode.
 191:misc.c        ****   * @param  LowPowerMode: Specifies the new mode for the system to enter low power mode.
 192:misc.c        ****   *   This parameter can be one of the following values:
 193:misc.c        ****   *     @arg NVIC_LP_SEVONPEND: Low Power SEV on Pend.
 194:misc.c        ****   *     @arg NVIC_LP_SLEEPDEEP: Low Power DEEPSLEEP request.
 195:misc.c        ****   *     @arg NVIC_LP_SLEEPONEXIT: Low Power Sleep on Exit.
 196:misc.c        ****   * @param  NewState: new state of LP condition. This parameter can be: ENABLE or DISABLE.
 197:misc.c        ****   * @retval None
 198:misc.c        ****   */
 199:misc.c        **** void NVIC_SystemLPConfig(uint8_t LowPowerMode, FunctionalState NewState)
 200:misc.c        **** {
 230              		.loc 1 200 0
 231              		.cfi_startproc
 232              		@ args = 0, pretend = 0, frame = 0
 233              		@ frame_needed = 0, uses_anonymous_args = 0
 234              		@ link register save eliminated.
 235              	.LVL19:
 236 0000 044B     		ldr	r3, .L18	@ tmp148,
 201:misc.c        ****   /* Check the parameters */
 202:misc.c        ****   assert_param(IS_NVIC_LP(LowPowerMode));
 203:misc.c        ****   assert_param(IS_FUNCTIONAL_STATE(NewState));  
 204:misc.c        ****   
 205:misc.c        ****   if (NewState != DISABLE)
 206:misc.c        ****   {
 207:misc.c        ****     SCB->SCR |= LowPowerMode;
 237              		.loc 1 207 0
 238 0002 1A69     		ldr	r2, [r3, #16]	@ D.5940,
 205:misc.c        ****   if (NewState != DISABLE)
 239              		.loc 1 205 0
ARM GAS  /tmp/ccM6Ffe8.s 			page 9


 240 0004 09B1     		cbz	r1, .L15	@ NewState,
 241              		.loc 1 207 0
 242 0006 1043     		orrs	r0, r0, r2	@, D.5942, LowPowerMode, D.5940
 243              	.LVL20:
 244 0008 01E0     		b	.L17	@
 245              	.LVL21:
 246              	.L15:
 208:misc.c        ****   }
 209:misc.c        ****   else
 210:misc.c        ****   {
 211:misc.c        ****     SCB->SCR &= (uint32_t)(~(uint32_t)LowPowerMode);
 247              		.loc 1 211 0
 248 000a 22EA0000 		bic	r0, r2, r0	@ D.5946, D.5944, LowPowerMode
 249              	.LVL22:
 250              	.L17:
 251 000e 1861     		str	r0, [r3, #16]	@ D.5946,
 252 0010 7047     		bx	lr	@
 253              	.L19:
 254 0012 00BF     		.align	2
 255              	.L18:
 256 0014 00ED00E0 		.word	-536810240
 257              		.cfi_endproc
 258              	.LFE113:
 259              		.size	NVIC_SystemLPConfig, .-NVIC_SystemLPConfig
 260              		.section	.text.SysTick_CLKSourceConfig,"ax",%progbits
 261              		.align	1
 262              		.global	SysTick_CLKSourceConfig
 263              		.thumb
 264              		.thumb_func
 265              		.type	SysTick_CLKSourceConfig, %function
 266              	SysTick_CLKSourceConfig:
 267              	.LFB114:
 212:misc.c        ****   }
 213:misc.c        **** }
 214:misc.c        **** 
 215:misc.c        **** /**
 216:misc.c        ****   * @brief  Configures the SysTick clock source.
 217:misc.c        ****   * @param  SysTick_CLKSource: specifies the SysTick clock source.
 218:misc.c        ****   *   This parameter can be one of the following values:
 219:misc.c        ****   *     @arg SysTick_CLKSource_HCLK_Div8: AHB clock divided by 8 selected as SysTick clock source.
 220:misc.c        ****   *     @arg SysTick_CLKSource_HCLK: AHB clock selected as SysTick clock source.
 221:misc.c        ****   * @retval None
 222:misc.c        ****   */
 223:misc.c        **** void SysTick_CLKSourceConfig(uint32_t SysTick_CLKSource)
 224:misc.c        **** {
 268              		.loc 1 224 0
 269              		.cfi_startproc
 270              		@ args = 0, pretend = 0, frame = 0
 271              		@ frame_needed = 0, uses_anonymous_args = 0
 272              		@ link register save eliminated.
 273              	.LVL23:
 274 0000 044B     		ldr	r3, .L24	@ tmp143,
 225:misc.c        ****   /* Check the parameters */
 226:misc.c        ****   assert_param(IS_SYSTICK_CLK_SOURCE(SysTick_CLKSource));
 227:misc.c        ****   if (SysTick_CLKSource == SysTick_CLKSource_HCLK)
 228:misc.c        ****   {
 229:misc.c        ****     SysTick->CTRL |= SysTick_CLKSource_HCLK;
ARM GAS  /tmp/ccM6Ffe8.s 			page 10


 275              		.loc 1 229 0
 276 0002 1A68     		ldr	r2, [r3, #0]	@ D.5932,
 227:misc.c        ****   if (SysTick_CLKSource == SysTick_CLKSource_HCLK)
 277              		.loc 1 227 0
 278 0004 0428     		cmp	r0, #4	@ SysTick_CLKSource,
 279              		.loc 1 229 0
 280 0006 0CBF     		ite	eq
 281 0008 42F00402 		orreq	r2, r2, #4	@ D.5933, D.5932,
 230:misc.c        ****   }
 231:misc.c        ****   else
 232:misc.c        ****   {
 233:misc.c        ****     SysTick->CTRL &= SysTick_CLKSource_HCLK_Div8;
 282              		.loc 1 233 0
 283 000c 22F00402 		bicne	r2, r2, #4	@ D.5936, D.5935,
 284 0010 1A60     		str	r2, [r3, #0]	@ D.5936,
 285 0012 7047     		bx	lr	@
 286              	.L25:
 287              		.align	2
 288              	.L24:
 289 0014 10E000E0 		.word	-536813552
 290              		.cfi_endproc
 291              	.LFE114:
 292              		.size	SysTick_CLKSourceConfig, .-SysTick_CLKSourceConfig
 293              		.text
 294              	.Letext0:
 295              		.file 2 "/usr/bin/../lib/gcc/arm-none-eabi/4.7.4/../../../../arm-none-eabi/include/stdint.h"
 296              		.file 3 "cmsis/core_cm4.h"
 297              		.file 4 "stm32f4xx.h"
 298              		.file 5 "misc.h"