ARM GAS  /tmp/ccM6Ffe8.s 			page 1


   1              		.syntax unified
   2              		.cpu cortex-m4
   3              		.eabi_attribute 27, 3	@ Tag_ABI_HardFP_use
   4              		.eabi_attribute 28, 1	@ Tag_ABI_VFP_args
   5              		.fpu fpv4-sp-d16
   6              		.eabi_attribute 20, 1	@ Tag_ABI_FP_denormal
   7              		.eabi_attribute 21, 1	@ Tag_ABI_FP_exceptions
   8              		.eabi_attribute 23, 3	@ Tag_ABI_FP_number_model
   9              		.eabi_attribute 24, 1	@ Tag_ABI_align8_needed
  10              		.eabi_attribute 25, 1	@ Tag_ABI_align8_preserved
  11              		.eabi_attribute 26, 1	@ Tag_ABI_enum_size
  12              		.eabi_attribute 30, 4	@ Tag_ABI_optimization_goals
  13              		.eabi_attribute 34, 1	@ Tag_CPU_unaligned_access
  14              		.eabi_attribute 18, 4	@ Tag_ABI_PCS_wchar_t
  15              		.file	"misc.c"
  16              	@ GNU C (GNU Tools for ARM Embedded Processors) version 4.7.4 20130913 (release) [ARM/embedded-4_7-
  17              	@	compiled by GNU C version 4.7.3, GMP version 5.0.5, MPFR version 3.1.1-p2, MPC version 0.9
  18              	@ GGC heuristics: --param ggc-min-expand=100 --param ggc-min-heapsize=131072
  19              	@ options passed:  -I . -I ../ -I cmsis/ -imultilib armv7e-m/fpu
  20              	@ -iprefix /usr/bin/../lib/gcc/arm-none-eabi/4.7.4/
  21              	@ -isysroot /usr/bin/../arm-none-eabi -MD misc.d -MF .dep/misc.o.d -MP
  22              	@ -MQ misc.o -D__USES_INITFINI__ -D __FPU_USED=1 -D __arm__ -D __ASSEMBLY__
  23              	@ -D USE_STDPERIPH_DRIVER -D STM32F4XX -D HSE_VALUE=8000000
  24              	@ -D __FPU_PRESENT=1 -D __FPU_USED=1 -D STM32F405VG -D USE_USB_OTG_FS
  25              	@ -D RUN_FROM_FLASH=1 misc.c -mthumb -mcpu=cortex-m4 -mfloat-abi=hard
  26              	@ -mfpu=fpv4-sp-d16 -mthumb -auxbase-strip misc.o -gdwarf-2 -Os -Wall
  27              	@ -Wstrict-prototypes -std=gnu99 -falign-functions=16 -fno-inline
  28              	@ -fomit-frame-pointer -fverbose-asm -ffunction-sections -fdata-sections
  29              	@ options enabled:  -fauto-inc-dec -fbranch-count-reg -fcaller-saves
  30              	@ -fcombine-stack-adjustments -fcommon -fcompare-elim -fcprop-registers
  31              	@ -fcrossjumping -fcse-follow-jumps -fdata-sections -fdebug-types-section
  32              	@ -fdefer-pop -fdelete-null-pointer-checks -fdevirtualize -fdwarf2-cfi-asm
  33              	@ -fearly-inlining -feliminate-unused-debug-types -fexpensive-optimizations
  34              	@ -fforward-propagate -ffunction-cse -ffunction-sections -fgcse -fgcse-lm
  35              	@ -fgnu-runtime -fguess-branch-probability -fident -fif-conversion
  36              	@ -fif-conversion2 -findirect-inlining -finline-atomics -finline-functions
  37              	@ -finline-functions-called-once -finline-small-functions -fipa-cp
  38              	@ -fipa-profile -fipa-pure-const -fipa-reference -fipa-sra
  39              	@ -fira-share-save-slots -fira-share-spill-slots -fivopts
  40              	@ -fkeep-static-consts -fleading-underscore -fmath-errno -fmerge-constants
  41              	@ -fmerge-debug-strings -fomit-frame-pointer -foptimize-register-move
  42              	@ -foptimize-sibling-calls -fpartial-inlining -fpeephole -fpeephole2
  43              	@ -fprefetch-loop-arrays -freg-struct-return -fregmove -frename-registers
  44              	@ -freorder-blocks -freorder-functions -frerun-cse-after-loop
  45              	@ -fsched-critical-path-heuristic -fsched-dep-count-heuristic
  46              	@ -fsched-group-heuristic -fsched-interblock -fsched-last-insn-heuristic
  47              	@ -fsched-rank-heuristic -fsched-spec -fsched-spec-insn-heuristic
  48              	@ -fsched-stalled-insns-dep -fschedule-insns2 -fsection-anchors
  49              	@ -fshow-column -fshrink-wrap -fsigned-zeros -fsplit-ivs-in-unroller
  50              	@ -fsplit-wide-types -fstrict-aliasing -fstrict-overflow
  51              	@ -fstrict-volatile-bitfields -fthread-jumps -ftoplevel-reorder
  52              	@ -ftrapping-math -ftree-bit-ccp -ftree-builtin-call-dce -ftree-ccp
  53              	@ -ftree-ch -ftree-copy-prop -ftree-copyrename -ftree-cselim -ftree-dce
  54              	@ -ftree-dominator-opts -ftree-dse -ftree-forwprop -ftree-fre
  55              	@ -ftree-loop-if-convert -ftree-loop-im -ftree-loop-ivcanon
  56              	@ -ftree-loop-optimize -ftree-parallelize-loops= -ftree-phiprop -ftree-pre
  57              	@ -ftree-pta -ftree-reassoc -ftree-scev-cprop -ftree-sink
ARM GAS  /tmp/ccM6Ffe8.s 			page 2


  58              	@ -ftree-slp-vectorize -ftree-sra -ftree-switch-conversion
  59              	@ -ftree-tail-merge -ftree-ter -ftree-vect-loop-version -ftree-vrp
  60              	@ -funit-at-a-time -funroll-loops -fvar-tracking -fvar-tracking-assignments
  61              	@ -fverbose-asm -fweb -fzero-initialized-in-bss -mlittle-endian
  62              	@ -msched-prolog -mthumb -munaligned-access -mvectorize-with-neon-quad
  63              	
  64              		.text
  65              	.Ltext0:
  66              		.cfi_sections	.debug_frame
  67              		.section	.text.NVIC_PriorityGroupConfig,"ax",%progbits
  68              		.align	1
  69              		.global	NVIC_PriorityGroupConfig
  70              		.thumb
  71              		.thumb_func
  72              		.type	NVIC_PriorityGroupConfig, %function
  73              	NVIC_PriorityGroupConfig:
  74              	.LFB110:
  75              		.file 1 "misc.c"
   1:misc.c        **** /**
   2:misc.c        ****   ******************************************************************************
   3:misc.c        ****   * @file    misc.c
   4:misc.c        ****   * @author  MCD Application Team
   5:misc.c        ****   * @version V1.1.0
   6:misc.c        ****   * @date    11-January-2013
   7:misc.c        ****   * @brief   This file provides all the miscellaneous firmware functions (add-on
   8:misc.c        ****   *          to CMSIS functions).
   9:misc.c        ****   *          
  10:misc.c        ****   *  @verbatim   
  11:misc.c        ****   *                               
  12:misc.c        ****   *          ===================================================================      
  13:misc.c        ****   *                        How to configure Interrupts using driver 
  14:misc.c        ****   *          ===================================================================      
  15:misc.c        ****   * 
  16:misc.c        ****   *            This section provide functions allowing to configure the NVIC interrupts (IRQ).
  17:misc.c        ****   *            The Cortex-M4 exceptions are managed by CMSIS functions.
  18:misc.c        ****   *
  19:misc.c        ****   *            1. Configure the NVIC Priority Grouping using NVIC_PriorityGroupConfig()
  20:misc.c        ****   *                function according to the following table.
  21:misc.c        ****  
  22:misc.c        ****   *  The table below gives the allowed values of the pre-emption priority and subpriority according
  23:misc.c        ****   *  to the Priority Grouping configuration performed by NVIC_PriorityGroupConfig function
  24:misc.c        ****   *    ============================================================================================
  25:misc.c        ****   *      NVIC_PriorityGroup   | NVIC_IRQChannelPreemptionPriority | NVIC_IRQChannelSubPriority  |  
  26:misc.c        ****   *    ============================================================================================
  27:misc.c        ****   *     NVIC_PriorityGroup_0  |                0                  |            0-15             | 0
  28:misc.c        ****   *                           |                                   |                             | 4
  29:misc.c        ****   *    --------------------------------------------------------------------------------------------
  30:misc.c        ****   *     NVIC_PriorityGroup_1  |                0-1                |            0-7              | 1
  31:misc.c        ****   *                           |                                   |                             | 3
  32:misc.c        ****   *    --------------------------------------------------------------------------------------------
  33:misc.c        ****   *     NVIC_PriorityGroup_2  |                0-3                |            0-3              | 2
  34:misc.c        ****   *                           |                                   |                             | 2
  35:misc.c        ****   *    --------------------------------------------------------------------------------------------
  36:misc.c        ****   *     NVIC_PriorityGroup_3  |                0-7                |            0-1              | 3
  37:misc.c        ****   *                           |                                   |                             | 1
  38:misc.c        ****   *    --------------------------------------------------------------------------------------------
  39:misc.c        ****   *     NVIC_PriorityGroup_4  |                0-15               |            0                | 4
ARM GAS  /tmp/ccM6Ffe8.s 			page 3


  40:misc.c        ****   *                           |                                   |                             | 0
  41:misc.c        ****   *    ============================================================================================
  42:misc.c        ****   *
  43:misc.c        ****   *            2. Enable and Configure the priority of the selected IRQ Channels using NVIC_Init() 
  44:misc.c        ****   *
  45:misc.c        ****   * @note  When the NVIC_PriorityGroup_0 is selected, IRQ pre-emption is no more possible. 
  46:misc.c        ****   *        The pending IRQ priority will be managed only by the subpriority.
  47:misc.c        ****   *
  48:misc.c        ****   * @note  IRQ priority order (sorted by highest to lowest priority):
  49:misc.c        ****   *         - Lowest pre-emption priority
  50:misc.c        ****   *         - Lowest subpriority
  51:misc.c        ****   *         - Lowest hardware priority (IRQ number)
  52:misc.c        ****   *
  53:misc.c        ****   *  @endverbatim
  54:misc.c        ****   *
  55:misc.c        ****   ******************************************************************************
  56:misc.c        ****   * @attention
  57:misc.c        ****   *
  58:misc.c        ****   * <h2><center>&copy; COPYRIGHT 2013 STMicroelectronics</center></h2>
  59:misc.c        ****   *
  60:misc.c        ****   * Licensed under MCD-ST Liberty SW License Agreement V2, (the "License");
  61:misc.c        ****   * You may not use this file except in compliance with the License.
  62:misc.c        ****   * You may obtain a copy of the License at:
  63:misc.c        ****   *
  64:misc.c        ****   *        http://www.st.com/software_license_agreement_liberty_v2
  65:misc.c        ****   *
  66:misc.c        ****   * Unless required by applicable law or agreed to in writing, software 
  67:misc.c        ****   * distributed under the License is distributed on an "AS IS" BASIS, 
  68:misc.c        ****   * WITHOUT WARRANTIES OR CONDITIONS OF ANY KIND, either express or implied.
  69:misc.c        ****   * See the License for the specific language governing permissions and
  70:misc.c        ****   * limitations under the License.
  71:misc.c        ****   *
  72:misc.c        ****   ******************************************************************************
  73:misc.c        ****   */
  74:misc.c        **** 
  75:misc.c        **** /* Includes ------------------------------------------------------------------*/
  76:misc.c        **** #include "misc.h"
  77:misc.c        **** 
  78:misc.c        **** /** @addtogroup STM32F4xx_StdPeriph_Driver
  79:misc.c        ****   * @{
  80:misc.c        ****   */
  81:misc.c        **** 
  82:misc.c        **** /** @defgroup MISC 
  83:misc.c        ****   * @brief MISC driver modules
  84:misc.c        ****   * @{
  85:misc.c        ****   */
  86:misc.c        **** 
  87:misc.c        **** /* Private typedef -----------------------------------------------------------*/
  88:misc.c        **** /* Private define ------------------------------------------------------------*/
  89:misc.c        **** #define AIRCR_VECTKEY_MASK    ((uint32_t)0x05FA0000)
  90:misc.c        **** 
  91:misc.c        **** /* Private macro -------------------------------------------------------------*/
  92:misc.c        **** /* Private variables ---------------------------------------------------------*/
  93:misc.c        **** /* Private function prototypes -----------------------------------------------*/
  94:misc.c        **** /* Private functions ---------------------------------------------------------*/
  95:misc.c        **** 
  96:misc.c        **** /** @defgroup MISC_Private_Functions
ARM GAS  /tmp/ccM6Ffe8.s 			page 4


  97:misc.c        ****   * @{
  98:misc.c        ****   */
  99:misc.c        **** 
 100:misc.c        **** /**
 101:misc.c        ****   * @brief  Configures the priority grouping: pre-emption priority and subpriority.
 102:misc.c        ****   * @param  NVIC_PriorityGroup: specifies the priority grouping bits length. 
 103:misc.c        ****   *   This parameter can be one of the following values:
 104:misc.c        ****   *     @arg NVIC_PriorityGroup_0: 0 bits for pre-emption priority
 105:misc.c        ****   *                                4 bits for subpriority
 106:misc.c        ****   *     @arg NVIC_PriorityGroup_1: 1 bits for pre-emption priority
 107:misc.c        ****   *                                3 bits for subpriority
 108:misc.c        ****   *     @arg NVIC_PriorityGroup_2: 2 bits for pre-emption priority
 109:misc.c        ****   *                                2 bits for subpriority
 110:misc.c        ****   *     @arg NVIC_PriorityGroup_3: 3 bits for pre-emption priority
 111:misc.c        ****   *                                1 bits for subpriority
 112:misc.c        ****   *     @arg NVIC_PriorityGroup_4: 4 bits for pre-emption priority
 113:misc.c        ****   *                                0 bits for subpriority
 114:misc.c        ****   * @note   When the NVIC_PriorityGroup_0 is selected, IRQ pre-emption is no more possible. 
 115:misc.c        ****   *         The pending IRQ priority will be managed only by the subpriority. 
 116:misc.c        ****   * @retval None
 117:misc.c        ****   */
 118:misc.c        **** void NVIC_PriorityGroupConfig(uint32_t NVIC_PriorityGroup)
 119:misc.c        **** {
  76              		.loc 1 119 0
  77              		.cfi_startproc
  78              		@ args = 0, pretend = 0, frame = 0
  79              		@ frame_needed = 0, uses_anonymous_args = 0
  80              		@ link register save eliminated.
  81              	.LVL0:
 120:misc.c        ****   /* Check the parameters */
 121:misc.c        ****   assert_param(IS_NVIC_PRIORITY_GROUP(NVIC_PriorityGroup));
 122:misc.c        ****   
 123:misc.c        ****   /* Set the PRIGROUP[10:8] bits according to NVIC_PriorityGroup value */
 124:misc.c        ****   SCB->AIRCR = AIRCR_VECTKEY_MASK | NVIC_PriorityGroup;
  82              		.loc 1 124 0
  83 0000 40F0BF60 		orr	r0, r0, #100139008	@ tmp136, NVIC_PriorityGroup,
  84              	.LVL1:
  85 0004 024B     		ldr	r3, .L2	@ tmp137,
  86 0006 40F40031 		orr	r1, r0, #131072	@ D.5976, tmp136,
  87 000a D960     		str	r1, [r3, #12]	@ D.5976, MEM[(struct SCB_Type *)3758157056B].AIRCR
  88 000c 7047     		bx	lr	@
  89              	.L3:
  90 000e 00BF     		.align	2
  91              	.L2:
  92 0010 00ED00E0 		.word	-536810240
  93              		.cfi_endproc
  94              	.LFE110:
  95              		.size	NVIC_PriorityGroupConfig, .-NVIC_PriorityGroupConfig
  96              		.section	.text.NVIC_Init,"ax",%progbits
  97              		.align	1
  98              		.global	NVIC_Init
  99              		.thumb
 100              		.thumb_func
 101              		.type	NVIC_Init, %function
 102              	NVIC_Init:
 103              	.LFB111:
 125:misc.c        **** }
ARM GAS  /tmp/ccM6Ffe8.s 			page 5


 126:misc.c        **** 
 127:misc.c        **** /**
 128:misc.c        ****   * @brief  Initializes the NVIC peripheral according to the specified
 129:misc.c        ****   *         parameters in the NVIC_InitStruct.
 130:misc.c        ****   * @note   To configure interrupts priority correctly, the NVIC_PriorityGroupConfig()
 131:misc.c        ****   *         function should be called before. 
 132:misc.c        ****   * @param  NVIC_InitStruct: pointer to a NVIC_InitTypeDef structure that contains
 133:misc.c        ****   *         the configuration information for the specified NVIC peripheral.
 134:misc.c        ****   * @retval None
 135:misc.c        ****   */
 136:misc.c        **** void NVIC_Init(NVIC_InitTypeDef* NVIC_InitStruct)
 137:misc.c        **** {
 104              		.loc 1 137 0
 105              		.cfi_startproc
 106              		@ args = 0, pretend = 0, frame = 0
 107              		@ frame_needed = 0, uses_anonymous_args = 0
 108              		@ link register save eliminated.
 109              	.LVL2:
 138:misc.c        ****   uint8_t tmppriority = 0x00, tmppre = 0x00, tmpsub = 0x0F;
 139:misc.c        ****   
 140:misc.c        ****   /* Check the parameters */
 141:misc.c        ****   assert_param(IS_FUNCTIONAL_STATE(NVIC_InitStruct->NVIC_IRQChannelCmd));
 142:misc.c        ****   assert_param(IS_NVIC_PREEMPTION_PRIORITY(NVIC_InitStruct->NVIC_IRQChannelPreemptionPriority));  
 143:misc.c        ****   assert_param(IS_NVIC_SUB_PRIORITY(NVIC_InitStruct->NVIC_IRQChannelSubPriority));
 144:misc.c        ****     
 145:misc.c        ****   if (NVIC_InitStruct->NVIC_IRQChannelCmd != DISABLE)
 110              		.loc 1 145 0
 111 0000 C378     		ldrb	r3, [r0, #3]	@ zero_extendqisi2	@ NVIC_InitStruct_4(D)->NVIC_IRQChannelCmd, NVIC_InitStruct_4
 112 0002 13B3     		cbz	r3, .L5	@ NVIC_InitStruct_4(D)->NVIC_IRQChannelCmd,
 146:misc.c        ****   {
 147:misc.c        ****     /* Compute the Corresponding IRQ Priority --------------------------------*/    
 148:misc.c        ****     tmppriority = (0x700 - ((SCB->AIRCR) & (uint32_t)0x700))>> 0x08;
 113              		.loc 1 148 0
 114 0004 1749     		ldr	r1, .L9	@ tmp169,
 115 0006 CB68     		ldr	r3, [r1, #12]	@ D.5954, MEM[(struct SCB_Type *)3758157056B].AIRCR
 149:misc.c        ****     tmppre = (0x4 - tmppriority);
 150:misc.c        ****     tmpsub = tmpsub >> tmppriority;
 151:misc.c        **** 
 152:misc.c        ****     tmppriority = NVIC_InitStruct->NVIC_IRQChannelPreemptionPriority << tmppre;
 116              		.loc 1 152 0
 117 0008 4178     		ldrb	r1, [r0, #1]	@ zero_extendqisi2	@ NVIC_InitStruct_4(D)->NVIC_IRQChannelPreemptionPriority, NV
 148:misc.c        ****     tmppriority = (0x700 - ((SCB->AIRCR) & (uint32_t)0x700))>> 0x08;
 118              		.loc 1 148 0
 119 000a DA43     		mvns	r2, r3	@ tmp170, D.5954
 120 000c C2F30223 		ubfx	r3, r2, #8, #3	@ D.5980, tmp170,,
 121              	.LVL3:
 149:misc.c        ****     tmppre = (0x4 - tmppriority);
 122              		.loc 1 149 0
 123 0010 C3F10402 		rsb	r2, r3, #4	@ tmp174, D.5980,
 124              		.loc 1 152 0
 125 0014 D2B2     		uxtb	r2, r2	@ tmp175, tmp174
 126 0016 01FA02F1 		lsl	r1, r1, r2	@ D.5964, NVIC_InitStruct_4(D)->NVIC_IRQChannelPreemptionPriority, tmp175
 127 001a CAB2     		uxtb	r2, r1	@ tmppriority, D.5964
 128              	.LVL4:
 150:misc.c        ****     tmpsub = tmpsub >> tmppriority;
 129              		.loc 1 150 0
 130 001c 0F21     		movs	r1, #15	@ tmp177,
ARM GAS  /tmp/ccM6Ffe8.s 			page 6


 131              	.LVL5:
 132 001e 41FA03F3 		asr	r3, r1, r3	@ tmp176, tmp177, D.5980
 133              	.LVL6:
 153:misc.c        ****     tmppriority |=  (uint8_t)(NVIC_InitStruct->NVIC_IRQChannelSubPriority & tmpsub);
 134              		.loc 1 153 0
 135 0022 8178     		ldrb	r1, [r0, #2]	@ zero_extendqisi2	@ NVIC_InitStruct_4(D)->NVIC_IRQChannelSubPriority, NVIC_Init
 136 0024 0B40     		ands	r3, r3, r1	@, tmp181, tmp176, NVIC_InitStruct_4(D)->NVIC_IRQChannelSubPriority
 137 0026 1A43     		orrs	r2, r2, r3	@, tmppriority, tmppriority, tmp181
 138              	.LVL7:
 154:misc.c        ****         
 155:misc.c        ****     tmppriority = tmppriority << 0x04;
 156:misc.c        ****         
 157:misc.c        ****     NVIC->IP[NVIC_InitStruct->NVIC_IRQChannel] = tmppriority;
 139              		.loc 1 157 0
 140 0028 0378     		ldrb	r3, [r0, #0]	@ zero_extendqisi2	@ D.5969, NVIC_InitStruct_4(D)->NVIC_IRQChannel
 155:misc.c        ****     tmppriority = tmppriority << 0x04;
 141              		.loc 1 155 0
 142 002a 1201     		lsls	r2, r2, #4	@ tmp184, tmppriority,
 143              	.LVL8:
 144 002c D1B2     		uxtb	r1, r2	@ tmppriority, tmp184
 145              	.LVL9:
 146              		.loc 1 157 0
 147 002e 03F16042 		add	r2, r3, #-536870912	@ tmp186, D.5969,
 148              	.LVL10:
 149 0032 02F56143 		add	r3, r2, #57600	@ tmp186, tmp186,
 158:misc.c        ****     
 159:misc.c        ****     /* Enable the Selected IRQ Channels --------------------------------------*/
 160:misc.c        ****     NVIC->ISER[NVIC_InitStruct->NVIC_IRQChannel >> 0x05] =
 161:misc.c        ****       (uint32_t)0x01 << (NVIC_InitStruct->NVIC_IRQChannel & (uint8_t)0x1F);
 150              		.loc 1 161 0
 151 0036 0122     		movs	r2, #1	@ tmp191,
 157:misc.c        ****     NVIC->IP[NVIC_InitStruct->NVIC_IRQChannel] = tmppriority;
 152              		.loc 1 157 0
 153 0038 83F80013 		strb	r1, [r3, #768]	@ tmppriority, MEM[(struct NVIC_Type *)3758153984B].IP
 160:misc.c        ****     NVIC->ISER[NVIC_InitStruct->NVIC_IRQChannel >> 0x05] =
 154              		.loc 1 160 0
 155 003c 0078     		ldrb	r0, [r0, #0]	@ zero_extendqisi2	@ D.5968, NVIC_InitStruct_4(D)->NVIC_IRQChannel
 156              	.LVL11:
 157              		.loc 1 161 0
 158 003e 00F01F03 		and	r3, r0, #31	@ tmp190, D.5968,
 160:misc.c        ****     NVIC->ISER[NVIC_InitStruct->NVIC_IRQChannel >> 0x05] =
 159              		.loc 1 160 0
 160 0042 4109     		lsrs	r1, r0, #5	@ D.5971, D.5968,
 161              	.LVL12:
 162              		.loc 1 161 0
 163 0044 02FA03F0 		lsl	r0, r2, r3	@ D.5973, tmp191, tmp190
 164 0048 07E0     		b	.L7	@
 165              	.LVL13:
 166              	.L5:
 162:misc.c        ****   }
 163:misc.c        ****   else
 164:misc.c        ****   {
 165:misc.c        ****     /* Disable the Selected IRQ Channels -------------------------------------*/
 166:misc.c        ****     NVIC->ICER[NVIC_InitStruct->NVIC_IRQChannel >> 0x05] =
 167              		.loc 1 166 0
 168 004a 0078     		ldrb	r0, [r0, #0]	@ zero_extendqisi2	@ D.5968, NVIC_InitStruct_4(D)->NVIC_IRQChannel
 169              	.LVL14:
ARM GAS  /tmp/ccM6Ffe8.s 			page 7


 167:misc.c        ****       (uint32_t)0x01 << (NVIC_InitStruct->NVIC_IRQChannel & (uint8_t)0x1F);
 170              		.loc 1 167 0
 171 004c 0122     		movs	r2, #1	@ tmp196,
 166:misc.c        ****     NVIC->ICER[NVIC_InitStruct->NVIC_IRQChannel >> 0x05] =
 172              		.loc 1 166 0
 173 004e 4109     		lsrs	r1, r0, #5	@ D.5971, D.5968,
 174              		.loc 1 167 0
 175 0050 00F01F03 		and	r3, r0, #31	@ tmp195, D.5968,
 176 0054 02FA03F0 		lsl	r0, r2, r3	@ D.5973, tmp196, tmp195
 166:misc.c        ****     NVIC->ICER[NVIC_InitStruct->NVIC_IRQChannel >> 0x05] =
 177              		.loc 1 166 0
 178 0058 2031     		adds	r1, r1, #32	@ tmp198, D.5971,
 179              	.LVL15:
 180              	.L7:
 181 005a 034B     		ldr	r3, .L9+4	@ tmp197,
 182 005c 43F82100 		str	r0, [r3, r1, lsl #2]	@ D.5973,
 183 0060 7047     		bx	lr	@
 184              	.L10:
 185 0062 00BF     		.align	2
 186              	.L9:
 187 0064 00ED00E0 		.word	-536810240
 188 0068 00E100E0 		.word	-536813312
 189              		.cfi_endproc
 190              	.LFE111:
 191              		.size	NVIC_Init, .-NVIC_Init
 192              		.section	.text.NVIC_SetVectorTable,"ax",%progbits
 193              		.align	1
 194              		.global	NVIC_SetVectorTable
 195              		.thumb
 196              		.thumb_func
 197              		.type	NVIC_SetVectorTable, %function
 198              	NVIC_SetVectorTable:
 199              	.LFB112:
 168:misc.c        ****   }
 169:misc.c        **** }
 170:misc.c        **** 
 171:misc.c        **** /**
 172:misc.c        ****   * @brief  Sets the vector table location and Offset.
 173:misc.c        ****   * @param  NVIC_VectTab: specifies if the vector table is in RAM or FLASH memory.
 174:misc.c        ****   *   This parameter can be one of the following values:
 175:misc.c        ****   *     @arg NVIC_VectTab_RAM: Vector Table in internal SRAM.
 176:misc.c        ****   *     @arg NVIC_VectTab_FLASH: Vector Table in internal FLASH.
 177:misc.c        ****   * @param  Offset: Vector Table base offset field. This value must be a multiple of 0x200.
 178:misc.c        ****   * @retval None
 179:misc.c        ****   */
 180:misc.c        **** void NVIC_SetVectorTable(uint32_t NVIC_VectTab, uint32_t Offset)
 181:misc.c        **** { 
 200              		.loc 1 181 0
 201              		.cfi_startproc
 202              		@ args = 0, pretend = 0, frame = 0
 203              		@ frame_needed = 0, uses_anonymous_args = 0
 204              		@ link register save eliminated.
 205              	.LVL16:
 182:misc.c        ****   /* Check the parameters */
 183:misc.c        ****   assert_param(IS_NVIC_VECTTAB(NVIC_VectTab));
 184:misc.c        ****   assert_param(IS_NVIC_OFFSET(Offset));  
 185:misc.c        ****    
ARM GAS  /tmp/ccM6Ffe8.s 			page 8


 186:misc.c        ****   SCB->VTOR = NVIC_VectTab | (Offset & (uint32_t)0x1FFFFF80);
 206              		.loc 1 186 0
 207 0000 21F06041 		bic	r1, r1, #-536870912	@ tmp139, Offset,
 208              	.LVL17:
 209 0004 21F07F02 		bic	r2, r1, #127	@ tmp138, tmp139,
 210 0008 014B     		ldr	r3, .L12	@ tmp140,
 211 000a 1043     		orrs	r0, r0, r2	@, D.5949, NVIC_VectTab, tmp138
 212              	.LVL18:
 213 000c 9860     		str	r0, [r3, #8]	@ D.5949, MEM[(struct SCB_Type *)3758157056B].VTOR
 214 000e 7047     		bx	lr	@
 215              	.L13:
 216              		.align	2
 217              	.L12:
 218 0010 00ED00E0 		.word	-536810240
 219              		.cfi_endproc
 220              	.LFE112:
 221              		.size	NVIC_SetVectorTable, .-NVIC_SetVectorTable
 222              		.section	.text.NVIC_SystemLPConfig,"ax",%progbits
 223              		.align	1
 224              		.global	NVIC_SystemLPConfig
 225              		.thumb
 226              		.thumb_func
 227              		.type	NVIC_SystemLPConfig, %function
 228              	NVIC_SystemLPConfig:
 229              	.LFB113:
 187:misc.c        **** }
 188:misc.c        **** 
 189:misc.c        **** /**
 190:misc.c        ****   * @brief  Selects the condition for the system to enter low power mode.
 191:misc.c        ****   * @param  LowPowerMode: Specifies the new mode for the system to enter low power mode.
 192:misc.c        ****   *   This parameter can be one of the following values:
 193:misc.c        ****   *     @arg NVIC_LP_SEVONPEND: Low Power SEV on Pend.
 194:misc.c        ****   *     @arg NVIC_LP_SLEEPDEEP: Low Power DEEPSLEEP request.
 195:misc.c        ****   *     @arg NVIC_LP_SLEEPONEXIT: Low Power Sleep on Exit.
 196:misc.c        ****   * @param  NewState: new state of LP condition. This parameter can be: ENABLE or DISABLE.
 197:misc.c        ****   * @retval None
 198:misc.c        ****   */
 199:misc.c        **** void NVIC_SystemLPConfig(uint8_t LowPowerMode, FunctionalState NewState)
 200:misc.c        **** {
 230              		.loc 1 200 0
 231              		.cfi_startproc
 232              		@ args = 0, pretend = 0, frame = 0
 233              		@ frame_needed = 0, uses_anonymous_args = 0
 234              		@ link register save eliminated.
 235              	.LVL19:
 236 0000 044B     		ldr	r3, .L18	@ tmp148,
 201:misc.c        ****   /* Check the parameters */
 202:misc.c        ****   assert_param(IS_NVIC_LP(LowPowerMode));
 203:misc.c        ****   assert_param(IS_FUNCTIONAL_STATE(NewState));  
 204:misc.c        ****   
 205:misc.c        ****   if (NewState != DISABLE)
 206:misc.c        ****   {
 207:misc.c        ****     SCB->SCR |= LowPowerMode;
 237              		.loc 1 207 0
 238 0002 1A69     		ldr	r2, [r3, #16]	@ D.5940,
 205:misc.c        ****   if (NewState != DISABLE)
 239              		.loc 1 205 0
ARM GAS  /tmp/ccM6Ffe8.s 			page 9


 240 0004 09B1     		cbz	r1, .L15	@ NewState,
 241              		.loc 1 207 0
 242 0006 1043     		orrs	r0, r0, r2	@, D.5942, LowPowerMode, D.5940
 243              	.LVL20:
 244 0008 01E0     		b	.L17	@
 245              	.LVL21:
 246              	.L15:
 208:misc.c        ****   }
 209:misc.c        ****   else
 210:misc.c        ****   {
 211:misc.c        ****     SCB->SCR &= (uint32_t)(~(uint32_t)LowPowerMode);
 247              		.loc 1 211 0
 248 000a 22EA0000 		bic	r0, r2, r0	@ D.5946, D.5944, LowPowerMode
 249              	.LVL22:
 250              	.L17:
 251 000e 1861     		str	r0, [r3, #16]	@ D.5946,
 252 0010 7047     		bx	lr	@
 253              	.L19:
 254 0012 00BF     		.align	2
 255              	.L18:
 256 0014 00ED00E0 		.word	-536810240
 257              		.cfi_endproc
 258              	.LFE113:
 259              		.size	NVIC_SystemLPConfig, .-NVIC_SystemLPConfig
 260              		.section	.text.SysTick_CLKSourceConfig,"ax",%progbits
 261              		.align	1
 262              		.global	SysTick_CLKSourceConfig
 263              		.thumb
 264              		.thumb_func
 265              		.type	SysTick_CLKSourceConfig, %function
 266              	SysTick_CLKSourceConfig:
 267              	.LFB114:
 212:misc.c        ****   }
 213:misc.c        **** }
 214:misc.c        **** 
 215:misc.c        **** /**
 216:misc.c        ****   * @brief  Configures the SysTick clock source.
 217:misc.c        ****   * @param  SysTick_CLKSource: specifies the SysTick clock source.
 218:misc.c        ****   *   This parameter can be one of the following values:
 219:misc.c        ****   *     @arg SysTick_CLKSource_HCLK_Div8: AHB clock divided by 8 selected as SysTick clock source.
 220:misc.c        ****   *     @arg SysTick_CLKSource_HCLK: AHB clock selected as SysTick clock source.
 221:misc.c        ****   * @retval None
 222:misc.c        ****   */
 223:misc.c        **** void SysTick_CLKSourceConfig(uint32_t SysTick_CLKSource)
 224:misc.c        **** {
 268              		.loc 1 224 0
 269              		.cfi_startproc
 270              		@ args = 0, pretend = 0, frame = 0
 271              		@ frame_needed = 0, uses_anonymous_args = 0
 272              		@ link register save eliminated.
 273              	.LVL23:
 274 0000 044B     		ldr	r3, .L24	@ tmp143,
 225:misc.c        ****   /* Check the parameters */
 226:misc.c        ****   assert_param(IS_SYSTICK_CLK_SOURCE(SysTick_CLKSource));
 227:misc.c        ****   if (SysTick_CLKSource == SysTick_CLKSource_HCLK)
 228:misc.c        ****   {
 229:misc.c        ****     SysTick->CTRL |= SysTick_CLKSource_HCLK;
ARM GAS  /tmp/ccM6Ffe8.s 			page 10


 275              		.loc 1 229 0
 276 0002 1A68     		ldr	r2, [r3, #0]	@ D.5932,
 227:misc.c        ****   if (SysTick_CLKSource == SysTick_CLKSource_HCLK)
 277              		.loc 1 227 0
 278 0004 0428     		cmp	r0, #4	@ SysTick_CLKSource,
 279              		.loc 1 229 0
 280 0006 0CBF     		ite	eq
 281 0008 42F00402 		orreq	r2, r2, #4	@ D.5933, D.5932,
 230:misc.c        ****   }
 231:misc.c        ****   else
 232:misc.c        ****   {
 233:misc.c        ****     SysTick->CTRL &= SysTick_CLKSource_HCLK_Div8;
 282              		.loc 1 233 0
 283 000c 22F00402 		bicne	r2, r2, #4	@ D.5936, D.5935,
 284 0010 1A60     		str	r2, [r3, #0]	@ D.5936,
 285 0012 7047     		bx	lr	@
 286              	.L25:
 287              		.align	2
 288              	.L24:
 289 0014 10E000E0 		.word	-536813552
 290              		.cfi_endproc
 291              	.LFE114:
 292              		.size	SysTick_CLKSourceConfig, .-SysTick_CLKSourceConfig
 293              		.text
 294              	.Letext0:
 295              		.file 2 "/usr/bin/../lib/gcc/arm-none-eabi/4.7.4/../../../../arm-none-eabi/include/stdint.h"
 296              		.file 3 "cmsis/core_cm4.h"
 297              		.file 4 "stm32f4xx.h"
 298              		.file 5 "misc.h"
 299              		.section	.debug_info,"",%progbits
 300              	.Ldebug_info0:
 301 0000 93050000 		.4byte	0x593
 302 0004 0200     		.2byte	0x2
 303 0006 00000000 		.4byte	.Ldebug_abbrev0
 304 000a 04       		.byte	0x4
 305 000b 01       		.uleb128 0x1
 306 000c B3010000 		.4byte	.LASF68
 307 0010 01       		.byte	0x1
 308 0011 39010000 		.4byte	.LASF69
 309 0015 6D000000 		.4byte	.LASF70
 310 0019 00000000 		.4byte	.Ldebug_ranges0+0
 311 001d 00000000 		.4byte	0
 312 0021 00000000 		.4byte	0
 313 0025 00000000 		.4byte	.Ldebug_line0
 314 0029 02       		.uleb128 0x2
 315 002a 01       		.byte	0x1
 316 002b 06       		.byte	0x6
 317 002c 77010000 		.4byte	.LASF0
 318 0030 03       		.uleb128 0x3
 319 0031 E1000000 		.4byte	.LASF4
 320 0035 02       		.byte	0x2
 321 0036 2A       		.byte	0x2a
 322 0037 3B000000 		.4byte	0x3b
 323 003b 02       		.uleb128 0x2
 324 003c 01       		.byte	0x1
 325 003d 08       		.byte	0x8
 326 003e 4B010000 		.4byte	.LASF1
ARM GAS  /tmp/ccM6Ffe8.s 			page 11


 327 0042 02       		.uleb128 0x2
 328 0043 02       		.byte	0x2
 329 0044 05       		.byte	0x5
 330 0045 B2000000 		.4byte	.LASF2
 331 0049 02       		.uleb128 0x2
 332 004a 02       		.byte	0x2
 333 004b 07       		.byte	0x7
 334 004c 41020000 		.4byte	.LASF3
 335 0050 03       		.uleb128 0x3
 336 0051 65020000 		.4byte	.LASF5
 337 0055 02       		.byte	0x2
 338 0056 4F       		.byte	0x4f
 339 0057 5B000000 		.4byte	0x5b
 340 005b 02       		.uleb128 0x2
 341 005c 04       		.byte	0x4
 342 005d 05       		.byte	0x5
 343 005e 30010000 		.4byte	.LASF6
 344 0062 03       		.uleb128 0x3
 345 0063 00000000 		.4byte	.LASF7
 346 0067 02       		.byte	0x2
 347 0068 50       		.byte	0x50
 348 0069 6D000000 		.4byte	0x6d
 349 006d 02       		.uleb128 0x2
 350 006e 04       		.byte	0x4
 351 006f 07       		.byte	0x7
 352 0070 E3020000 		.4byte	.LASF8
 353 0074 02       		.uleb128 0x2
 354 0075 08       		.byte	0x8
 355 0076 05       		.byte	0x5
 356 0077 16010000 		.4byte	.LASF9
 357 007b 02       		.uleb128 0x2
 358 007c 08       		.byte	0x8
 359 007d 07       		.byte	0x7
 360 007e 83010000 		.4byte	.LASF10
 361 0082 04       		.uleb128 0x4
 362 0083 04       		.byte	0x4
 363 0084 05       		.byte	0x5
 364 0085 696E7400 		.ascii	"int\000"
 365 0089 02       		.uleb128 0x2
 366 008a 04       		.byte	0x4
 367 008b 07       		.byte	0x7
 368 008c A6010000 		.4byte	.LASF11
 369 0090 05       		.uleb128 0x5
 370 0091 040E     		.2byte	0xe04
 371 0093 03       		.byte	0x3
 372 0094 4101     		.2byte	0x141
 373 0096 68010000 		.4byte	0x168
 374 009a 06       		.uleb128 0x6
 375 009b DC000000 		.4byte	.LASF12
 376 009f 03       		.byte	0x3
 377 00a0 4301     		.2byte	0x143
 378 00a2 7F010000 		.4byte	0x17f
 379 00a6 02       		.byte	0x2
 380 00a7 23       		.byte	0x23
 381 00a8 00       		.uleb128 0
 382 00a9 06       		.uleb128 0x6
 383 00aa B1020000 		.4byte	.LASF13
ARM GAS  /tmp/ccM6Ffe8.s 			page 12


 384 00ae 03       		.byte	0x3
 385 00af 4401     		.2byte	0x144
 386 00b1 84010000 		.4byte	0x184
 387 00b5 02       		.byte	0x2
 388 00b6 23       		.byte	0x23
 389 00b7 20       		.uleb128 0x20
 390 00b8 06       		.uleb128 0x6
 391 00b9 FC010000 		.4byte	.LASF14
 392 00bd 03       		.byte	0x3
 393 00be 4501     		.2byte	0x145
 394 00c0 94010000 		.4byte	0x194
 395 00c4 03       		.byte	0x3
 396 00c5 23       		.byte	0x23
 397 00c6 8001     		.uleb128 0x80
 398 00c8 06       		.uleb128 0x6
 399 00c9 0D010000 		.4byte	.LASF15
 400 00cd 03       		.byte	0x3
 401 00ce 4601     		.2byte	0x146
 402 00d0 84010000 		.4byte	0x184
 403 00d4 03       		.byte	0x3
 404 00d5 23       		.byte	0x23
 405 00d6 A001     		.uleb128 0xa0
 406 00d8 06       		.uleb128 0x6
 407 00d9 72020000 		.4byte	.LASF16
 408 00dd 03       		.byte	0x3
 409 00de 4701     		.2byte	0x147
 410 00e0 99010000 		.4byte	0x199
 411 00e4 03       		.byte	0x3
 412 00e5 23       		.byte	0x23
 413 00e6 8002     		.uleb128 0x100
 414 00e8 06       		.uleb128 0x6
 415 00e9 BB020000 		.4byte	.LASF17
 416 00ed 03       		.byte	0x3
 417 00ee 4801     		.2byte	0x148
 418 00f0 84010000 		.4byte	0x184
 419 00f4 03       		.byte	0x3
 420 00f5 23       		.byte	0x23
 421 00f6 A002     		.uleb128 0x120
 422 00f8 06       		.uleb128 0x6
 423 00f9 72010000 		.4byte	.LASF18
 424 00fd 03       		.byte	0x3
 425 00fe 4901     		.2byte	0x149
 426 0100 9E010000 		.4byte	0x19e
 427 0104 03       		.byte	0x3
 428 0105 23       		.byte	0x23
 429 0106 8003     		.uleb128 0x180
 430 0108 06       		.uleb128 0x6
 431 0109 C5020000 		.4byte	.LASF19
 432 010d 03       		.byte	0x3
 433 010e 4A01     		.2byte	0x14a
 434 0110 84010000 		.4byte	0x184
 435 0114 03       		.byte	0x3
 436 0115 23       		.byte	0x23
 437 0116 A003     		.uleb128 0x1a0
 438 0118 06       		.uleb128 0x6
 439 0119 09000000 		.4byte	.LASF20
 440 011d 03       		.byte	0x3
ARM GAS  /tmp/ccM6Ffe8.s 			page 13


 441 011e 4B01     		.2byte	0x14b
 442 0120 A3010000 		.4byte	0x1a3
 443 0124 03       		.byte	0x3
 444 0125 23       		.byte	0x23
 445 0126 8004     		.uleb128 0x200
 446 0128 06       		.uleb128 0x6
 447 0129 CF020000 		.4byte	.LASF21
 448 012d 03       		.byte	0x3
 449 012e 4C01     		.2byte	0x14c
 450 0130 A8010000 		.4byte	0x1a8
 451 0134 03       		.byte	0x3
 452 0135 23       		.byte	0x23
 453 0136 A004     		.uleb128 0x220
 454 0138 07       		.uleb128 0x7
 455 0139 495000   		.ascii	"IP\000"
 456 013c 03       		.byte	0x3
 457 013d 4D01     		.2byte	0x14d
 458 013f C8010000 		.4byte	0x1c8
 459 0143 03       		.byte	0x3
 460 0144 23       		.byte	0x23
 461 0145 8006     		.uleb128 0x300
 462 0147 06       		.uleb128 0x6
 463 0148 D9020000 		.4byte	.LASF22
 464 014c 03       		.byte	0x3
 465 014d 4E01     		.2byte	0x14e
 466 014f CD010000 		.4byte	0x1cd
 467 0153 03       		.byte	0x3
 468 0154 23       		.byte	0x23
 469 0155 F007     		.uleb128 0x3f0
 470 0157 06       		.uleb128 0x6
 471 0158 FB000000 		.4byte	.LASF23
 472 015c 03       		.byte	0x3
 473 015d 4F01     		.2byte	0x14f
 474 015f DE010000 		.4byte	0x1de
 475 0163 03       		.byte	0x3
 476 0164 23       		.byte	0x23
 477 0165 801C     		.uleb128 0xe00
 478 0167 00       		.byte	0
 479 0168 08       		.uleb128 0x8
 480 0169 62000000 		.4byte	0x62
 481 016d 78010000 		.4byte	0x178
 482 0171 09       		.uleb128 0x9
 483 0172 78010000 		.4byte	0x178
 484 0176 07       		.byte	0x7
 485 0177 00       		.byte	0
 486 0178 02       		.uleb128 0x2
 487 0179 04       		.byte	0x4
 488 017a 07       		.byte	0x7
 489 017b BC000000 		.4byte	.LASF24
 490 017f 0A       		.uleb128 0xa
 491 0180 68010000 		.4byte	0x168
 492 0184 08       		.uleb128 0x8
 493 0185 62000000 		.4byte	0x62
 494 0189 94010000 		.4byte	0x194
 495 018d 09       		.uleb128 0x9
 496 018e 78010000 		.4byte	0x178
 497 0192 17       		.byte	0x17
ARM GAS  /tmp/ccM6Ffe8.s 			page 14


 498 0193 00       		.byte	0
 499 0194 0A       		.uleb128 0xa
 500 0195 68010000 		.4byte	0x168
 501 0199 0A       		.uleb128 0xa
 502 019a 68010000 		.4byte	0x168
 503 019e 0A       		.uleb128 0xa
 504 019f 68010000 		.4byte	0x168
 505 01a3 0A       		.uleb128 0xa
 506 01a4 68010000 		.4byte	0x168
 507 01a8 08       		.uleb128 0x8
 508 01a9 62000000 		.4byte	0x62
 509 01ad B8010000 		.4byte	0x1b8
 510 01b1 09       		.uleb128 0x9
 511 01b2 78010000 		.4byte	0x178
 512 01b6 37       		.byte	0x37
 513 01b7 00       		.byte	0
 514 01b8 08       		.uleb128 0x8
 515 01b9 30000000 		.4byte	0x30
 516 01bd C8010000 		.4byte	0x1c8
 517 01c1 09       		.uleb128 0x9
 518 01c2 78010000 		.4byte	0x178
 519 01c6 EF       		.byte	0xef
 520 01c7 00       		.byte	0
 521 01c8 0A       		.uleb128 0xa
 522 01c9 B8010000 		.4byte	0x1b8
 523 01cd 08       		.uleb128 0x8
 524 01ce 62000000 		.4byte	0x62
 525 01d2 DE010000 		.4byte	0x1de
 526 01d6 0B       		.uleb128 0xb
 527 01d7 78010000 		.4byte	0x178
 528 01db 8302     		.2byte	0x283
 529 01dd 00       		.byte	0
 530 01de 0A       		.uleb128 0xa
 531 01df 62000000 		.4byte	0x62
 532 01e3 0C       		.uleb128 0xc
 533 01e4 F5020000 		.4byte	.LASF25
 534 01e8 03       		.byte	0x3
 535 01e9 5001     		.2byte	0x150
 536 01eb 90000000 		.4byte	0x90
 537 01ef 0D       		.uleb128 0xd
 538 01f0 8C       		.byte	0x8c
 539 01f1 03       		.byte	0x3
 540 01f2 6101     		.2byte	0x161
 541 01f4 35030000 		.4byte	0x335
 542 01f8 06       		.uleb128 0x6
 543 01f9 D6000000 		.4byte	.LASF26
 544 01fd 03       		.byte	0x3
 545 01fe 6301     		.2byte	0x163
 546 0200 35030000 		.4byte	0x335
 547 0204 02       		.byte	0x2
 548 0205 23       		.byte	0x23
 549 0206 00       		.uleb128 0
 550 0207 06       		.uleb128 0x6
 551 0208 08010000 		.4byte	.LASF27
 552 020c 03       		.byte	0x3
 553 020d 6401     		.2byte	0x164
 554 020f DE010000 		.4byte	0x1de
ARM GAS  /tmp/ccM6Ffe8.s 			page 15


 555 0213 02       		.byte	0x2
 556 0214 23       		.byte	0x23
 557 0215 04       		.uleb128 0x4
 558 0216 06       		.uleb128 0x6
 559 0217 60020000 		.4byte	.LASF28
 560 021b 03       		.byte	0x3
 561 021c 6501     		.2byte	0x165
 562 021e DE010000 		.4byte	0x1de
 563 0222 02       		.byte	0x2
 564 0223 23       		.byte	0x23
 565 0224 08       		.uleb128 0x8
 566 0225 06       		.uleb128 0x6
 567 0226 45010000 		.4byte	.LASF29
 568 022a 03       		.byte	0x3
 569 022b 6601     		.2byte	0x166
 570 022d DE010000 		.4byte	0x1de
 571 0231 02       		.byte	0x2
 572 0232 23       		.byte	0x23
 573 0233 0C       		.uleb128 0xc
 574 0234 07       		.uleb128 0x7
 575 0235 53435200 		.ascii	"SCR\000"
 576 0239 03       		.byte	0x3
 577 023a 6701     		.2byte	0x167
 578 023c DE010000 		.4byte	0x1de
 579 0240 02       		.byte	0x2
 580 0241 23       		.byte	0x23
 581 0242 10       		.uleb128 0x10
 582 0243 07       		.uleb128 0x7
 583 0244 43435200 		.ascii	"CCR\000"
 584 0248 03       		.byte	0x3
 585 0249 6801     		.2byte	0x168
 586 024b DE010000 		.4byte	0x1de
 587 024f 02       		.byte	0x2
 588 0250 23       		.byte	0x23
 589 0251 14       		.uleb128 0x14
 590 0252 07       		.uleb128 0x7
 591 0253 53485000 		.ascii	"SHP\000"
 592 0257 03       		.byte	0x3
 593 0258 6901     		.2byte	0x169
 594 025a 4A030000 		.4byte	0x34a
 595 025e 02       		.byte	0x2
 596 025f 23       		.byte	0x23
 597 0260 18       		.uleb128 0x18
 598 0261 06       		.uleb128 0x6
 599 0262 A0010000 		.4byte	.LASF30
 600 0266 03       		.byte	0x3
 601 0267 6A01     		.2byte	0x16a
 602 0269 DE010000 		.4byte	0x1de
 603 026d 02       		.byte	0x2
 604 026e 23       		.byte	0x23
 605 026f 24       		.uleb128 0x24
 606 0270 06       		.uleb128 0x6
 607 0271 40010000 		.4byte	.LASF31
 608 0275 03       		.byte	0x3
 609 0276 6B01     		.2byte	0x16b
 610 0278 DE010000 		.4byte	0x1de
 611 027c 02       		.byte	0x2
ARM GAS  /tmp/ccM6Ffe8.s 			page 16


 612 027d 23       		.byte	0x23
 613 027e 28       		.uleb128 0x28
 614 027f 06       		.uleb128 0x6
 615 0280 A7020000 		.4byte	.LASF32
 616 0284 03       		.byte	0x3
 617 0285 6C01     		.2byte	0x16c
 618 0287 DE010000 		.4byte	0x1de
 619 028b 02       		.byte	0x2
 620 028c 23       		.byte	0x23
 621 028d 2C       		.uleb128 0x2c
 622 028e 06       		.uleb128 0x6
 623 028f 77020000 		.4byte	.LASF33
 624 0293 03       		.byte	0x3
 625 0294 6D01     		.2byte	0x16d
 626 0296 DE010000 		.4byte	0x1de
 627 029a 02       		.byte	0x2
 628 029b 23       		.byte	0x23
 629 029c 30       		.uleb128 0x30
 630 029d 06       		.uleb128 0x6
 631 029e 67000000 		.4byte	.LASF34
 632 02a2 03       		.byte	0x3
 633 02a3 6E01     		.2byte	0x16e
 634 02a5 DE010000 		.4byte	0x1de
 635 02a9 02       		.byte	0x2
 636 02aa 23       		.byte	0x23
 637 02ab 34       		.uleb128 0x34
 638 02ac 06       		.uleb128 0x6
 639 02ad 2B010000 		.4byte	.LASF35
 640 02b1 03       		.byte	0x3
 641 02b2 6F01     		.2byte	0x16f
 642 02b4 DE010000 		.4byte	0x1de
 643 02b8 02       		.byte	0x2
 644 02b9 23       		.byte	0x23
 645 02ba 38       		.uleb128 0x38
 646 02bb 06       		.uleb128 0x6
 647 02bc 43030000 		.4byte	.LASF36
 648 02c0 03       		.byte	0x3
 649 02c1 7001     		.2byte	0x170
 650 02c3 DE010000 		.4byte	0x1de
 651 02c7 02       		.byte	0x2
 652 02c8 23       		.byte	0x23
 653 02c9 3C       		.uleb128 0x3c
 654 02ca 07       		.uleb128 0x7
 655 02cb 50465200 		.ascii	"PFR\000"
 656 02cf 03       		.byte	0x3
 657 02d0 7101     		.2byte	0x171
 658 02d2 5F030000 		.4byte	0x35f
 659 02d6 02       		.byte	0x2
 660 02d7 23       		.byte	0x23
 661 02d8 40       		.uleb128 0x40
 662 02d9 07       		.uleb128 0x7
 663 02da 44465200 		.ascii	"DFR\000"
 664 02de 03       		.byte	0x3
 665 02df 7201     		.2byte	0x172
 666 02e1 35030000 		.4byte	0x335
 667 02e5 02       		.byte	0x2
 668 02e6 23       		.byte	0x23
ARM GAS  /tmp/ccM6Ffe8.s 			page 17


 669 02e7 48       		.uleb128 0x48
 670 02e8 07       		.uleb128 0x7
 671 02e9 41445200 		.ascii	"ADR\000"
 672 02ed 03       		.byte	0x3
 673 02ee 7301     		.2byte	0x173
 674 02f0 35030000 		.4byte	0x335
 675 02f4 02       		.byte	0x2
 676 02f5 23       		.byte	0x23
 677 02f6 4C       		.uleb128 0x4c
 678 02f7 06       		.uleb128 0x6
 679 02f8 AC020000 		.4byte	.LASF37
 680 02fc 03       		.byte	0x3
 681 02fd 7401     		.2byte	0x174
 682 02ff 79030000 		.4byte	0x379
 683 0303 02       		.byte	0x2
 684 0304 23       		.byte	0x23
 685 0305 50       		.uleb128 0x50
 686 0306 06       		.uleb128 0x6
 687 0307 6D020000 		.4byte	.LASF38
 688 030b 03       		.byte	0x3
 689 030c 7501     		.2byte	0x175
 690 030e 93030000 		.4byte	0x393
 691 0312 02       		.byte	0x2
 692 0313 23       		.byte	0x23
 693 0314 60       		.uleb128 0x60
 694 0315 06       		.uleb128 0x6
 695 0316 B1020000 		.4byte	.LASF13
 696 031a 03       		.byte	0x3
 697 031b 7601     		.2byte	0x176
 698 031d 83030000 		.4byte	0x383
 699 0321 02       		.byte	0x2
 700 0322 23       		.byte	0x23
 701 0323 74       		.uleb128 0x74
 702 0324 06       		.uleb128 0x6
 703 0325 62030000 		.4byte	.LASF39
 704 0329 03       		.byte	0x3
 705 032a 7701     		.2byte	0x177
 706 032c DE010000 		.4byte	0x1de
 707 0330 03       		.byte	0x3
 708 0331 23       		.byte	0x23
 709 0332 8801     		.uleb128 0x88
 710 0334 00       		.byte	0
 711 0335 0E       		.uleb128 0xe
 712 0336 DE010000 		.4byte	0x1de
 713 033a 08       		.uleb128 0x8
 714 033b 30000000 		.4byte	0x30
 715 033f 4A030000 		.4byte	0x34a
 716 0343 09       		.uleb128 0x9
 717 0344 78010000 		.4byte	0x178
 718 0348 0B       		.byte	0xb
 719 0349 00       		.byte	0
 720 034a 0A       		.uleb128 0xa
 721 034b 3A030000 		.4byte	0x33a
 722 034f 08       		.uleb128 0x8
 723 0350 62000000 		.4byte	0x62
 724 0354 5F030000 		.4byte	0x35f
 725 0358 09       		.uleb128 0x9
ARM GAS  /tmp/ccM6Ffe8.s 			page 18


 726 0359 78010000 		.4byte	0x178
 727 035d 01       		.byte	0x1
 728 035e 00       		.byte	0
 729 035f 0E       		.uleb128 0xe
 730 0360 64030000 		.4byte	0x364
 731 0364 0A       		.uleb128 0xa
 732 0365 4F030000 		.4byte	0x34f
 733 0369 08       		.uleb128 0x8
 734 036a 62000000 		.4byte	0x62
 735 036e 79030000 		.4byte	0x379
 736 0372 09       		.uleb128 0x9
 737 0373 78010000 		.4byte	0x178
 738 0377 03       		.byte	0x3
 739 0378 00       		.byte	0
 740 0379 0E       		.uleb128 0xe
 741 037a 7E030000 		.4byte	0x37e
 742 037e 0A       		.uleb128 0xa
 743 037f 69030000 		.4byte	0x369
 744 0383 08       		.uleb128 0x8
 745 0384 62000000 		.4byte	0x62
 746 0388 93030000 		.4byte	0x393
 747 038c 09       		.uleb128 0x9
 748 038d 78010000 		.4byte	0x178
 749 0391 04       		.byte	0x4
 750 0392 00       		.byte	0
 751 0393 0E       		.uleb128 0xe
 752 0394 98030000 		.4byte	0x398
 753 0398 0A       		.uleb128 0xa
 754 0399 83030000 		.4byte	0x383
 755 039d 0C       		.uleb128 0xc
 756 039e E9000000 		.4byte	.LASF40
 757 03a2 03       		.byte	0x3
 758 03a3 7801     		.2byte	0x178
 759 03a5 EF010000 		.4byte	0x1ef
 760 03a9 0D       		.uleb128 0xd
 761 03aa 10       		.byte	0x10
 762 03ab 03       		.byte	0x3
 763 03ac 6002     		.2byte	0x260
 764 03ae EF030000 		.4byte	0x3ef
 765 03b2 06       		.uleb128 0x6
 766 03b3 59010000 		.4byte	.LASF41
 767 03b7 03       		.byte	0x3
 768 03b8 6202     		.2byte	0x262
 769 03ba DE010000 		.4byte	0x1de
 770 03be 02       		.byte	0x2
 771 03bf 23       		.byte	0x23
 772 03c0 00       		.uleb128 0
 773 03c1 06       		.uleb128 0x6
 774 03c2 3E030000 		.4byte	.LASF42
 775 03c6 03       		.byte	0x3
 776 03c7 6302     		.2byte	0x263
 777 03c9 DE010000 		.4byte	0x1de
 778 03cd 02       		.byte	0x2
 779 03ce 23       		.byte	0x23
 780 03cf 04       		.uleb128 0x4
 781 03d0 07       		.uleb128 0x7
 782 03d1 56414C00 		.ascii	"VAL\000"
ARM GAS  /tmp/ccM6Ffe8.s 			page 19


 783 03d5 03       		.byte	0x3
 784 03d6 6402     		.2byte	0x264
 785 03d8 DE010000 		.4byte	0x1de
 786 03dc 02       		.byte	0x2
 787 03dd 23       		.byte	0x23
 788 03de 08       		.uleb128 0x8
 789 03df 06       		.uleb128 0x6
 790 03e0 9A010000 		.4byte	.LASF43
 791 03e4 03       		.byte	0x3
 792 03e5 6502     		.2byte	0x265
 793 03e7 35030000 		.4byte	0x335
 794 03eb 02       		.byte	0x2
 795 03ec 23       		.byte	0x23
 796 03ed 0C       		.uleb128 0xc
 797 03ee 00       		.byte	0
 798 03ef 0C       		.uleb128 0xc
 799 03f0 34020000 		.4byte	.LASF44
 800 03f4 03       		.byte	0x3
 801 03f5 6602     		.2byte	0x266
 802 03f7 A9030000 		.4byte	0x3a9
 803 03fb 0A       		.uleb128 0xa
 804 03fc 50000000 		.4byte	0x50
 805 0400 0F       		.uleb128 0xf
 806 0401 01       		.byte	0x1
 807 0402 04       		.byte	0x4
 808 0403 1F01     		.2byte	0x11f
 809 0405 16040000 		.4byte	0x416
 810 0409 10       		.uleb128 0x10
 811 040a 00010000 		.4byte	.LASF45
 812 040e 00       		.sleb128 0
 813 040f 10       		.uleb128 0x10
 814 0410 68030000 		.4byte	.LASF46
 815 0414 01       		.sleb128 1
 816 0415 00       		.byte	0
 817 0416 0C       		.uleb128 0xc
 818 0417 21030000 		.4byte	.LASF47
 819 041b 04       		.byte	0x4
 820 041c 1F01     		.2byte	0x11f
 821 041e 00040000 		.4byte	0x400
 822 0422 11       		.uleb128 0x11
 823 0423 04       		.byte	0x4
 824 0424 05       		.byte	0x5
 825 0425 36       		.byte	0x36
 826 0426 63040000 		.4byte	0x463
 827 042a 12       		.uleb128 0x12
 828 042b 7C020000 		.4byte	.LASF48
 829 042f 05       		.byte	0x5
 830 0430 38       		.byte	0x38
 831 0431 30000000 		.4byte	0x30
 832 0435 02       		.byte	0x2
 833 0436 23       		.byte	0x23
 834 0437 00       		.uleb128 0
 835 0438 12       		.uleb128 0x12
 836 0439 FF020000 		.4byte	.LASF49
 837 043d 05       		.byte	0x5
 838 043e 3D       		.byte	0x3d
 839 043f 30000000 		.4byte	0x30
ARM GAS  /tmp/ccM6Ffe8.s 			page 20


 840 0443 02       		.byte	0x2
 841 0444 23       		.byte	0x23
 842 0445 01       		.uleb128 0x1
 843 0446 12       		.uleb128 0x12
 844 0447 8C020000 		.4byte	.LASF50
 845 044b 05       		.byte	0x5
 846 044c 42       		.byte	0x42
 847 044d 30000000 		.4byte	0x30
 848 0451 02       		.byte	0x2
 849 0452 23       		.byte	0x23
 850 0453 02       		.uleb128 0x2
 851 0454 12       		.uleb128 0x12
 852 0455 1F000000 		.4byte	.LASF51
 853 0459 05       		.byte	0x5
 854 045a 47       		.byte	0x47
 855 045b 16040000 		.4byte	0x416
 856 045f 02       		.byte	0x2
 857 0460 23       		.byte	0x23
 858 0461 03       		.uleb128 0x3
 859 0462 00       		.byte	0
 860 0463 03       		.uleb128 0x3
 861 0464 0E000000 		.4byte	.LASF52
 862 0468 05       		.byte	0x5
 863 0469 4A       		.byte	0x4a
 864 046a 22040000 		.4byte	0x422
 865 046e 13       		.uleb128 0x13
 866 046f 01       		.byte	0x1
 867 0470 6F030000 		.4byte	.LASF53
 868 0474 01       		.byte	0x1
 869 0475 76       		.byte	0x76
 870 0476 01       		.byte	0x1
 871 0477 00000000 		.4byte	.LFB110
 872 047b 14000000 		.4byte	.LFE110
 873 047f 02       		.byte	0x2
 874 0480 7D       		.byte	0x7d
 875 0481 00       		.sleb128 0
 876 0482 01       		.byte	0x1
 877 0483 97040000 		.4byte	0x497
 878 0487 14       		.uleb128 0x14
 879 0488 54000000 		.4byte	.LASF55
 880 048c 01       		.byte	0x1
 881 048d 76       		.byte	0x76
 882 048e 62000000 		.4byte	0x62
 883 0492 00000000 		.4byte	.LLST0
 884 0496 00       		.byte	0
 885 0497 13       		.uleb128 0x13
 886 0498 01       		.byte	0x1
 887 0499 C5000000 		.4byte	.LASF54
 888 049d 01       		.byte	0x1
 889 049e 88       		.byte	0x88
 890 049f 01       		.byte	0x1
 891 04a0 00000000 		.4byte	.LFB111
 892 04a4 6C000000 		.4byte	.LFE111
 893 04a8 02       		.byte	0x2
 894 04a9 7D       		.byte	0x7d
 895 04aa 00       		.sleb128 0
 896 04ab 01       		.byte	0x1
ARM GAS  /tmp/ccM6Ffe8.s 			page 21


 897 04ac ED040000 		.4byte	0x4ed
 898 04b0 14       		.uleb128 0x14
 899 04b1 44000000 		.4byte	.LASF56
 900 04b5 01       		.byte	0x1
 901 04b6 88       		.byte	0x88
 902 04b7 ED040000 		.4byte	0x4ed
 903 04bb 21000000 		.4byte	.LLST1
 904 04bf 15       		.uleb128 0x15
 905 04c0 54020000 		.4byte	.LASF57
 906 04c4 01       		.byte	0x1
 907 04c5 8A       		.byte	0x8a
 908 04c6 30000000 		.4byte	0x30
 909 04ca 5B000000 		.4byte	.LLST2
 910 04ce 15       		.uleb128 0x15
 911 04cf CF000000 		.4byte	.LASF58
 912 04d3 01       		.byte	0x1
 913 04d4 8A       		.byte	0x8a
 914 04d5 30000000 		.4byte	0x30
 915 04d9 B2000000 		.4byte	.LLST3
 916 04dd 15       		.uleb128 0x15
 917 04de 01020000 		.4byte	.LASF59
 918 04e2 01       		.byte	0x1
 919 04e3 8A       		.byte	0x8a
 920 04e4 30000000 		.4byte	0x30
 921 04e8 E1000000 		.4byte	.LLST4
 922 04ec 00       		.byte	0
 923 04ed 16       		.uleb128 0x16
 924 04ee 04       		.byte	0x4
 925 04ef 63040000 		.4byte	0x463
 926 04f3 13       		.uleb128 0x13
 927 04f4 01       		.byte	0x1
 928 04f5 5E010000 		.4byte	.LASF60
 929 04f9 01       		.byte	0x1
 930 04fa B4       		.byte	0xb4
 931 04fb 01       		.byte	0x1
 932 04fc 00000000 		.4byte	.LFB112
 933 0500 14000000 		.4byte	.LFE112
 934 0504 02       		.byte	0x2
 935 0505 7D       		.byte	0x7d
 936 0506 00       		.sleb128 0
 937 0507 01       		.byte	0x1
 938 0508 2B050000 		.4byte	0x52b
 939 050c 14       		.uleb128 0x14
 940 050d 31030000 		.4byte	.LASF61
 941 0511 01       		.byte	0x1
 942 0512 B4       		.byte	0xb4
 943 0513 62000000 		.4byte	0x62
 944 0517 10010000 		.4byte	.LLST5
 945 051b 14       		.uleb128 0x14
 946 051c 24010000 		.4byte	.LASF62
 947 0520 01       		.byte	0x1
 948 0521 B4       		.byte	0xb4
 949 0522 62000000 		.4byte	0x62
 950 0526 31010000 		.4byte	.LLST6
 951 052a 00       		.byte	0
 952 052b 13       		.uleb128 0x13
 953 052c 01       		.byte	0x1
ARM GAS  /tmp/ccM6Ffe8.s 			page 22


 954 052d 08020000 		.4byte	.LASF63
 955 0531 01       		.byte	0x1
 956 0532 C7       		.byte	0xc7
 957 0533 01       		.byte	0x1
 958 0534 00000000 		.4byte	.LFB113
 959 0538 18000000 		.4byte	.LFE113
 960 053c 02       		.byte	0x2
 961 053d 7D       		.byte	0x7d
 962 053e 00       		.sleb128 0
 963 053f 01       		.byte	0x1
 964 0540 61050000 		.4byte	0x561
 965 0544 14       		.uleb128 0x14
 966 0545 48030000 		.4byte	.LASF64
 967 0549 01       		.byte	0x1
 968 054a C7       		.byte	0xc7
 969 054b 30000000 		.4byte	0x30
 970 054f 52010000 		.4byte	.LLST7
 971 0553 17       		.uleb128 0x17
 972 0554 F2000000 		.4byte	.LASF65
 973 0558 01       		.byte	0x1
 974 0559 C7       		.byte	0xc7
 975 055a 16040000 		.4byte	0x416
 976 055e 01       		.byte	0x1
 977 055f 51       		.byte	0x51
 978 0560 00       		.byte	0
 979 0561 13       		.uleb128 0x13
 980 0562 01       		.byte	0x1
 981 0563 1C020000 		.4byte	.LASF66
 982 0567 01       		.byte	0x1
 983 0568 DF       		.byte	0xdf
 984 0569 01       		.byte	0x1
 985 056a 00000000 		.4byte	.LFB114
 986 056e 18000000 		.4byte	.LFE114
 987 0572 02       		.byte	0x2
 988 0573 7D       		.byte	0x7d
 989 0574 00       		.sleb128 0
 990 0575 01       		.byte	0x1
 991 0576 88050000 		.4byte	0x588
 992 057a 17       		.uleb128 0x17
 993 057b 32000000 		.4byte	.LASF67
 994 057f 01       		.byte	0x1
 995 0580 DF       		.byte	0xdf
 996 0581 62000000 		.4byte	0x62
 997 0585 01       		.byte	0x1
 998 0586 50       		.byte	0x50
 999 0587 00       		.byte	0
 1000 0588 18       		.uleb128 0x18
 1001 0589 55030000 		.4byte	.LASF71
 1002 058d 03       		.byte	0x3
 1003 058e 9806     		.2byte	0x698
 1004 0590 FB030000 		.4byte	0x3fb
 1005 0594 01       		.byte	0x1
 1006 0595 01       		.byte	0x1
 1007 0596 00       		.byte	0
 1008              		.section	.debug_abbrev,"",%progbits
 1009              	.Ldebug_abbrev0:
 1010 0000 01       		.uleb128 0x1
ARM GAS  /tmp/ccM6Ffe8.s 			page 23


 1011 0001 11       		.uleb128 0x11
 1012 0002 01       		.byte	0x1
 1013 0003 25       		.uleb128 0x25
 1014 0004 0E       		.uleb128 0xe
 1015 0005 13       		.uleb128 0x13
 1016 0006 0B       		.uleb128 0xb
 1017 0007 03       		.uleb128 0x3
 1018 0008 0E       		.uleb128 0xe
 1019 0009 1B       		.uleb128 0x1b
 1020 000a 0E       		.uleb128 0xe
 1021 000b 55       		.uleb128 0x55
 1022 000c 06       		.uleb128 0x6
 1023 000d 11       		.uleb128 0x11
 1024 000e 01       		.uleb128 0x1
 1025 000f 52       		.uleb128 0x52
 1026 0010 01       		.uleb128 0x1
 1027 0011 10       		.uleb128 0x10
 1028 0012 06       		.uleb128 0x6
 1029 0013 00       		.byte	0
 1030 0014 00       		.byte	0
 1031 0015 02       		.uleb128 0x2
 1032 0016 24       		.uleb128 0x24
 1033 0017 00       		.byte	0
 1034 0018 0B       		.uleb128 0xb
 1035 0019 0B       		.uleb128 0xb
 1036 001a 3E       		.uleb128 0x3e
 1037 001b 0B       		.uleb128 0xb
 1038 001c 03       		.uleb128 0x3
 1039 001d 0E       		.uleb128 0xe
 1040 001e 00       		.byte	0
 1041 001f 00       		.byte	0
 1042 0020 03       		.uleb128 0x3
 1043 0021 16       		.uleb128 0x16
 1044 0022 00       		.byte	0
 1045 0023 03       		.uleb128 0x3
 1046 0024 0E       		.uleb128 0xe
 1047 0025 3A       		.uleb128 0x3a
 1048 0026 0B       		.uleb128 0xb
 1049 0027 3B       		.uleb128 0x3b
 1050 0028 0B       		.uleb128 0xb
 1051 0029 49       		.uleb128 0x49
 1052 002a 13       		.uleb128 0x13
 1053 002b 00       		.byte	0
 1054 002c 00       		.byte	0
 1055 002d 04       		.uleb128 0x4
 1056 002e 24       		.uleb128 0x24
 1057 002f 00       		.byte	0
 1058 0030 0B       		.uleb128 0xb
 1059 0031 0B       		.uleb128 0xb
 1060 0032 3E       		.uleb128 0x3e
 1061 0033 0B       		.uleb128 0xb
 1062 0034 03       		.uleb128 0x3
 1063 0035 08       		.uleb128 0x8
 1064 0036 00       		.byte	0
 1065 0037 00       		.byte	0
 1066 0038 05       		.uleb128 0x5
 1067 0039 13       		.uleb128 0x13
ARM GAS  /tmp/ccM6Ffe8.s 			page 24


 1068 003a 01       		.byte	0x1
 1069 003b 0B       		.uleb128 0xb
 1070 003c 05       		.uleb128 0x5
 1071 003d 3A       		.uleb128 0x3a
 1072 003e 0B       		.uleb128 0xb
 1073 003f 3B       		.uleb128 0x3b
 1074 0040 05       		.uleb128 0x5
 1075 0041 01       		.uleb128 0x1
 1076 0042 13       		.uleb128 0x13
 1077 0043 00       		.byte	0
 1078 0044 00       		.byte	0
 1079 0045 06       		.uleb128 0x6
 1080 0046 0D       		.uleb128 0xd
 1081 0047 00       		.byte	0
 1082 0048 03       		.uleb128 0x3
 1083 0049 0E       		.uleb128 0xe
 1084 004a 3A       		.uleb128 0x3a
 1085 004b 0B       		.uleb128 0xb
 1086 004c 3B       		.uleb128 0x3b
 1087 004d 05       		.uleb128 0x5
 1088 004e 49       		.uleb128 0x49
 1089 004f 13       		.uleb128 0x13
 1090 0050 38       		.uleb128 0x38
 1091 0051 0A       		.uleb128 0xa
 1092 0052 00       		.byte	0
 1093 0053 00       		.byte	0
 1094 0054 07       		.uleb128 0x7
 1095 0055 0D       		.uleb128 0xd
 1096 0056 00       		.byte	0
 1097 0057 03       		.uleb128 0x3
 1098 0058 08       		.uleb128 0x8
 1099 0059 3A       		.uleb128 0x3a
 1100 005a 0B       		.uleb128 0xb
 1101 005b 3B       		.uleb128 0x3b
 1102 005c 05       		.uleb128 0x5
 1103 005d 49       		.uleb128 0x49
 1104 005e 13       		.uleb128 0x13
 1105 005f 38       		.uleb128 0x38
 1106 0060 0A       		.uleb128 0xa
 1107 0061 00       		.byte	0
 1108 0062 00       		.byte	0
 1109 0063 08       		.uleb128 0x8
 1110 0064 01       		.uleb128 0x1
 1111 0065 01       		.byte	0x1
 1112 0066 49       		.uleb128 0x49
 1113 0067 13       		.uleb128 0x13
 1114 0068 01       		.uleb128 0x1
 1115 0069 13       		.uleb128 0x13
 1116 006a 00       		.byte	0
 1117 006b 00       		.byte	0
 1118 006c 09       		.uleb128 0x9
 1119 006d 21       		.uleb128 0x21
 1120 006e 00       		.byte	0
 1121 006f 49       		.uleb128 0x49
 1122 0070 13       		.uleb128 0x13
 1123 0071 2F       		.uleb128 0x2f
 1124 0072 0B       		.uleb128 0xb
ARM GAS  /tmp/ccM6Ffe8.s 			page 25


 1125 0073 00       		.byte	0
 1126 0074 00       		.byte	0
 1127 0075 0A       		.uleb128 0xa
 1128 0076 35       		.uleb128 0x35
 1129 0077 00       		.byte	0
 1130 0078 49       		.uleb128 0x49
 1131 0079 13       		.uleb128 0x13
 1132 007a 00       		.byte	0
 1133 007b 00       		.byte	0
 1134 007c 0B       		.uleb128 0xb
 1135 007d 21       		.uleb128 0x21
 1136 007e 00       		.byte	0
 1137 007f 49       		.uleb128 0x49
 1138 0080 13       		.uleb128 0x13
 1139 0081 2F       		.uleb128 0x2f
 1140 0082 05       		.uleb128 0x5
 1141 0083 00       		.byte	0
 1142 0084 00       		.byte	0
 1143 0085 0C       		.uleb128 0xc
 1144 0086 16       		.uleb128 0x16
 1145 0087 00       		.byte	0
 1146 0088 03       		.uleb128 0x3
 1147 0089 0E       		.uleb128 0xe
 1148 008a 3A       		.uleb128 0x3a
 1149 008b 0B       		.uleb128 0xb
 1150 008c 3B       		.uleb128 0x3b
 1151 008d 05       		.uleb128 0x5
 1152 008e 49       		.uleb128 0x49
 1153 008f 13       		.uleb128 0x13
 1154 0090 00       		.byte	0
 1155 0091 00       		.byte	0
 1156 0092 0D       		.uleb128 0xd
 1157 0093 13       		.uleb128 0x13
 1158 0094 01       		.byte	0x1
 1159 0095 0B       		.uleb128 0xb
 1160 0096 0B       		.uleb128 0xb
 1161 0097 3A       		.uleb128 0x3a
 1162 0098 0B       		.uleb128 0xb
 1163 0099 3B       		.uleb128 0x3b
 1164 009a 05       		.uleb128 0x5
 1165 009b 01       		.uleb128 0x1
 1166 009c 13       		.uleb128 0x13
 1167 009d 00       		.byte	0
 1168 009e 00       		.byte	0
 1169 009f 0E       		.uleb128 0xe
 1170 00a0 26       		.uleb128 0x26
 1171 00a1 00       		.byte	0
 1172 00a2 49       		.uleb128 0x49
 1173 00a3 13       		.uleb128 0x13
 1174 00a4 00       		.byte	0
 1175 00a5 00       		.byte	0
 1176 00a6 0F       		.uleb128 0xf
 1177 00a7 04       		.uleb128 0x4
 1178 00a8 01       		.byte	0x1
 1179 00a9 0B       		.uleb128 0xb
 1180 00aa 0B       		.uleb128 0xb
 1181 00ab 3A       		.uleb128 0x3a
ARM GAS  /tmp/ccM6Ffe8.s 			page 26


 1182 00ac 0B       		.uleb128 0xb
 1183 00ad 3B       		.uleb128 0x3b
 1184 00ae 05       		.uleb128 0x5
 1185 00af 01       		.uleb128 0x1
 1186 00b0 13       		.uleb128 0x13
 1187 00b1 00       		.byte	0
 1188 00b2 00       		.byte	0
 1189 00b3 10       		.uleb128 0x10
 1190 00b4 28       		.uleb128 0x28
 1191 00b5 00       		.byte	0
 1192 00b6 03       		.uleb128 0x3
 1193 00b7 0E       		.uleb128 0xe
 1194 00b8 1C       		.uleb128 0x1c
 1195 00b9 0D       		.uleb128 0xd
 1196 00ba 00       		.byte	0
 1197 00bb 00       		.byte	0
 1198 00bc 11       		.uleb128 0x11
 1199 00bd 13       		.uleb128 0x13
 1200 00be 01       		.byte	0x1
 1201 00bf 0B       		.uleb128 0xb
 1202 00c0 0B       		.uleb128 0xb
 1203 00c1 3A       		.uleb128 0x3a
 1204 00c2 0B       		.uleb128 0xb
 1205 00c3 3B       		.uleb128 0x3b
 1206 00c4 0B       		.uleb128 0xb
 1207 00c5 01       		.uleb128 0x1
 1208 00c6 13       		.uleb128 0x13
 1209 00c7 00       		.byte	0
 1210 00c8 00       		.byte	0
 1211 00c9 12       		.uleb128 0x12
 1212 00ca 0D       		.uleb128 0xd
 1213 00cb 00       		.byte	0
 1214 00cc 03       		.uleb128 0x3
 1215 00cd 0E       		.uleb128 0xe
 1216 00ce 3A       		.uleb128 0x3a
 1217 00cf 0B       		.uleb128 0xb
 1218 00d0 3B       		.uleb128 0x3b
 1219 00d1 0B       		.uleb128 0xb
 1220 00d2 49       		.uleb128 0x49
 1221 00d3 13       		.uleb128 0x13
 1222 00d4 38       		.uleb128 0x38
 1223 00d5 0A       		.uleb128 0xa
 1224 00d6 00       		.byte	0
 1225 00d7 00       		.byte	0
 1226 00d8 13       		.uleb128 0x13
 1227 00d9 2E       		.uleb128 0x2e
 1228 00da 01       		.byte	0x1
 1229 00db 3F       		.uleb128 0x3f
 1230 00dc 0C       		.uleb128 0xc
 1231 00dd 03       		.uleb128 0x3
 1232 00de 0E       		.uleb128 0xe
 1233 00df 3A       		.uleb128 0x3a
 1234 00e0 0B       		.uleb128 0xb
 1235 00e1 3B       		.uleb128 0x3b
 1236 00e2 0B       		.uleb128 0xb
 1237 00e3 27       		.uleb128 0x27
 1238 00e4 0C       		.uleb128 0xc
ARM GAS  /tmp/ccM6Ffe8.s 			page 27


 1239 00e5 11       		.uleb128 0x11
 1240 00e6 01       		.uleb128 0x1
 1241 00e7 12       		.uleb128 0x12
 1242 00e8 01       		.uleb128 0x1
 1243 00e9 40       		.uleb128 0x40
 1244 00ea 0A       		.uleb128 0xa
 1245 00eb 9742     		.uleb128 0x2117
 1246 00ed 0C       		.uleb128 0xc
 1247 00ee 01       		.uleb128 0x1
 1248 00ef 13       		.uleb128 0x13
 1249 00f0 00       		.byte	0
 1250 00f1 00       		.byte	0
 1251 00f2 14       		.uleb128 0x14
 1252 00f3 05       		.uleb128 0x5
 1253 00f4 00       		.byte	0
 1254 00f5 03       		.uleb128 0x3
 1255 00f6 0E       		.uleb128 0xe
 1256 00f7 3A       		.uleb128 0x3a
 1257 00f8 0B       		.uleb128 0xb
 1258 00f9 3B       		.uleb128 0x3b
 1259 00fa 0B       		.uleb128 0xb
 1260 00fb 49       		.uleb128 0x49
 1261 00fc 13       		.uleb128 0x13
 1262 00fd 02       		.uleb128 0x2
 1263 00fe 06       		.uleb128 0x6
 1264 00ff 00       		.byte	0
 1265 0100 00       		.byte	0
 1266 0101 15       		.uleb128 0x15
 1267 0102 34       		.uleb128 0x34
 1268 0103 00       		.byte	0
 1269 0104 03       		.uleb128 0x3
 1270 0105 0E       		.uleb128 0xe
 1271 0106 3A       		.uleb128 0x3a
 1272 0107 0B       		.uleb128 0xb
 1273 0108 3B       		.uleb128 0x3b
 1274 0109 0B       		.uleb128 0xb
 1275 010a 49       		.uleb128 0x49
 1276 010b 13       		.uleb128 0x13
 1277 010c 02       		.uleb128 0x2
 1278 010d 06       		.uleb128 0x6
 1279 010e 00       		.byte	0
 1280 010f 00       		.byte	0
 1281 0110 16       		.uleb128 0x16
 1282 0111 0F       		.uleb128 0xf
 1283 0112 00       		.byte	0
 1284 0113 0B       		.uleb128 0xb
 1285 0114 0B       		.uleb128 0xb
 1286 0115 49       		.uleb128 0x49
 1287 0116 13       		.uleb128 0x13
 1288 0117 00       		.byte	0
 1289 0118 00       		.byte	0
 1290 0119 17       		.uleb128 0x17
 1291 011a 05       		.uleb128 0x5
 1292 011b 00       		.byte	0
 1293 011c 03       		.uleb128 0x3
 1294 011d 0E       		.uleb128 0xe
 1295 011e 3A       		.uleb128 0x3a
ARM GAS  /tmp/ccM6Ffe8.s 			page 28


 1296 011f 0B       		.uleb128 0xb
 1297 0120 3B       		.uleb128 0x3b
 1298 0121 0B       		.uleb128 0xb
 1299 0122 49       		.uleb128 0x49
 1300 0123 13       		.uleb128 0x13
 1301 0124 02       		.uleb128 0x2
 1302 0125 0A       		.uleb128 0xa
 1303 0126 00       		.byte	0
 1304 0127 00       		.byte	0
 1305 0128 18       		.uleb128 0x18
 1306 0129 34       		.uleb128 0x34
 1307 012a 00       		.byte	0
 1308 012b 03       		.uleb128 0x3
 1309 012c 0E       		.uleb128 0xe
 1310 012d 3A       		.uleb128 0x3a
 1311 012e 0B       		.uleb128 0xb
 1312 012f 3B       		.uleb128 0x3b
 1313 0130 05       		.uleb128 0x5
 1314 0131 49       		.uleb128 0x49
 1315 0132 13       		.uleb128 0x13
 1316 0133 3F       		.uleb128 0x3f
 1317 0134 0C       		.uleb128 0xc
 1318 0135 3C       		.uleb128 0x3c
 1319 0136 0C       		.uleb128 0xc
 1320 0137 00       		.byte	0
 1321 0138 00       		.byte	0
 1322 0139 00       		.byte	0
 1323              		.section	.debug_loc,"",%progbits
 1324              	.Ldebug_loc0:
 1325              	.LLST0:
 1326 0000 00000000 		.4byte	.LVL0
 1327 0004 04000000 		.4byte	.LVL1
 1328 0008 0100     		.2byte	0x1
 1329 000a 50       		.byte	0x50
 1330 000b 04000000 		.4byte	.LVL1
 1331 000f 14000000 		.4byte	.LFE110
 1332 0013 0400     		.2byte	0x4
 1333 0015 F3       		.byte	0xf3
 1334 0016 01       		.uleb128 0x1
 1335 0017 50       		.byte	0x50
 1336 0018 9F       		.byte	0x9f
 1337 0019 00000000 		.4byte	0
 1338 001d 00000000 		.4byte	0
 1339              	.LLST1:
 1340 0021 00000000 		.4byte	.LVL2
 1341 0025 3E000000 		.4byte	.LVL11
 1342 0029 0100     		.2byte	0x1
 1343 002b 50       		.byte	0x50
 1344 002c 3E000000 		.4byte	.LVL11
 1345 0030 4A000000 		.4byte	.LVL13
 1346 0034 0400     		.2byte	0x4
 1347 0036 F3       		.byte	0xf3
 1348 0037 01       		.uleb128 0x1
 1349 0038 50       		.byte	0x50
 1350 0039 9F       		.byte	0x9f
 1351 003a 4A000000 		.4byte	.LVL13
 1352 003e 4C000000 		.4byte	.LVL14
ARM GAS  /tmp/ccM6Ffe8.s 			page 29


 1353 0042 0100     		.2byte	0x1
 1354 0044 50       		.byte	0x50
 1355 0045 4C000000 		.4byte	.LVL14
 1356 0049 6C000000 		.4byte	.LFE111
 1357 004d 0400     		.2byte	0x4
 1358 004f F3       		.byte	0xf3
 1359 0050 01       		.uleb128 0x1
 1360 0051 50       		.byte	0x50
 1361 0052 9F       		.byte	0x9f
 1362 0053 00000000 		.4byte	0
 1363 0057 00000000 		.4byte	0
 1364              	.LLST2:
 1365 005b 00000000 		.4byte	.LVL2
 1366 005f 10000000 		.4byte	.LVL3
 1367 0063 0200     		.2byte	0x2
 1368 0065 30       		.byte	0x30
 1369 0066 9F       		.byte	0x9f
 1370 0067 10000000 		.4byte	.LVL3
 1371 006b 1C000000 		.4byte	.LVL4
 1372 006f 0100     		.2byte	0x1
 1373 0071 53       		.byte	0x53
 1374 0072 1C000000 		.4byte	.LVL4
 1375 0076 1E000000 		.4byte	.LVL5
 1376 007a 0100     		.2byte	0x1
 1377 007c 51       		.byte	0x51
 1378 007d 1E000000 		.4byte	.LVL5
 1379 0081 2C000000 		.4byte	.LVL8
 1380 0085 0100     		.2byte	0x1
 1381 0087 52       		.byte	0x52
 1382 0088 2E000000 		.4byte	.LVL9
 1383 008c 32000000 		.4byte	.LVL10
 1384 0090 0100     		.2byte	0x1
 1385 0092 52       		.byte	0x52
 1386 0093 32000000 		.4byte	.LVL10
 1387 0097 44000000 		.4byte	.LVL12
 1388 009b 0100     		.2byte	0x1
 1389 009d 51       		.byte	0x51
 1390 009e 4A000000 		.4byte	.LVL13
 1391 00a2 5A000000 		.4byte	.LVL15
 1392 00a6 0200     		.2byte	0x2
 1393 00a8 30       		.byte	0x30
 1394 00a9 9F       		.byte	0x9f
 1395 00aa 00000000 		.4byte	0
 1396 00ae 00000000 		.4byte	0
 1397              	.LLST3:
 1398 00b2 00000000 		.4byte	.LVL2
 1399 00b6 10000000 		.4byte	.LVL3
 1400 00ba 0200     		.2byte	0x2
 1401 00bc 30       		.byte	0x30
 1402 00bd 9F       		.byte	0x9f
 1403 00be 10000000 		.4byte	.LVL3
 1404 00c2 22000000 		.4byte	.LVL6
 1405 00c6 0500     		.2byte	0x5
 1406 00c8 34       		.byte	0x34
 1407 00c9 73       		.byte	0x73
 1408 00ca 00       		.sleb128 0
 1409 00cb 1C       		.byte	0x1c
ARM GAS  /tmp/ccM6Ffe8.s 			page 30


 1410 00cc 9F       		.byte	0x9f
 1411 00cd 4A000000 		.4byte	.LVL13
 1412 00d1 5A000000 		.4byte	.LVL15
 1413 00d5 0200     		.2byte	0x2
 1414 00d7 30       		.byte	0x30
 1415 00d8 9F       		.byte	0x9f
 1416 00d9 00000000 		.4byte	0
 1417 00dd 00000000 		.4byte	0
 1418              	.LLST4:
 1419 00e1 00000000 		.4byte	.LVL2
 1420 00e5 10000000 		.4byte	.LVL3
 1421 00e9 0200     		.2byte	0x2
 1422 00eb 3F       		.byte	0x3f
 1423 00ec 9F       		.byte	0x9f
 1424 00ed 10000000 		.4byte	.LVL3
 1425 00f1 22000000 		.4byte	.LVL6
 1426 00f5 0500     		.2byte	0x5
 1427 00f7 3F       		.byte	0x3f
 1428 00f8 73       		.byte	0x73
 1429 00f9 00       		.sleb128 0
 1430 00fa 26       		.byte	0x26
 1431 00fb 9F       		.byte	0x9f
 1432 00fc 4A000000 		.4byte	.LVL13
 1433 0100 5A000000 		.4byte	.LVL15
 1434 0104 0200     		.2byte	0x2
 1435 0106 3F       		.byte	0x3f
 1436 0107 9F       		.byte	0x9f
 1437 0108 00000000 		.4byte	0
 1438 010c 00000000 		.4byte	0
 1439              	.LLST5:
 1440 0110 00000000 		.4byte	.LVL16
 1441 0114 0C000000 		.4byte	.LVL18
 1442 0118 0100     		.2byte	0x1
 1443 011a 50       		.byte	0x50
 1444 011b 0C000000 		.4byte	.LVL18
 1445 011f 14000000 		.4byte	.LFE112
 1446 0123 0400     		.2byte	0x4
 1447 0125 F3       		.byte	0xf3
 1448 0126 01       		.uleb128 0x1
 1449 0127 50       		.byte	0x50
 1450 0128 9F       		.byte	0x9f
 1451 0129 00000000 		.4byte	0
 1452 012d 00000000 		.4byte	0
 1453              	.LLST6:
 1454 0131 00000000 		.4byte	.LVL16
 1455 0135 04000000 		.4byte	.LVL17
 1456 0139 0100     		.2byte	0x1
 1457 013b 51       		.byte	0x51
 1458 013c 04000000 		.4byte	.LVL17
 1459 0140 14000000 		.4byte	.LFE112
 1460 0144 0400     		.2byte	0x4
 1461 0146 F3       		.byte	0xf3
 1462 0147 01       		.uleb128 0x1
 1463 0148 51       		.byte	0x51
 1464 0149 9F       		.byte	0x9f
 1465 014a 00000000 		.4byte	0
 1466 014e 00000000 		.4byte	0
ARM GAS  /tmp/ccM6Ffe8.s 			page 31


 1467              	.LLST7:
 1468 0152 00000000 		.4byte	.LVL19
 1469 0156 08000000 		.4byte	.LVL20
 1470 015a 0100     		.2byte	0x1
 1471 015c 50       		.byte	0x50
 1472 015d 08000000 		.4byte	.LVL20
 1473 0161 0A000000 		.4byte	.LVL21
 1474 0165 0400     		.2byte	0x4
 1475 0167 F3       		.byte	0xf3
 1476 0168 01       		.uleb128 0x1
 1477 0169 50       		.byte	0x50
 1478 016a 9F       		.byte	0x9f
 1479 016b 0A000000 		.4byte	.LVL21
 1480 016f 0E000000 		.4byte	.LVL22
 1481 0173 0100     		.2byte	0x1
 1482 0175 50       		.byte	0x50
 1483 0176 0E000000 		.4byte	.LVL22
 1484 017a 18000000 		.4byte	.LFE113
 1485 017e 0400     		.2byte	0x4
 1486 0180 F3       		.byte	0xf3
 1487 0181 01       		.uleb128 0x1
 1488 0182 50       		.byte	0x50
 1489 0183 9F       		.byte	0x9f
 1490 0184 00000000 		.4byte	0
 1491 0188 00000000 		.4byte	0
 1492              		.section	.debug_aranges,"",%progbits
 1493 0000 3C000000 		.4byte	0x3c
 1494 0004 0200     		.2byte	0x2
 1495 0006 00000000 		.4byte	.Ldebug_info0
 1496 000a 04       		.byte	0x4
 1497 000b 00       		.byte	0
 1498 000c 0000     		.2byte	0
 1499 000e 0000     		.2byte	0
 1500 0010 00000000 		.4byte	.LFB110
 1501 0014 14000000 		.4byte	.LFE110-.LFB110
 1502 0018 00000000 		.4byte	.LFB111
 1503 001c 6C000000 		.4byte	.LFE111-.LFB111
 1504 0020 00000000 		.4byte	.LFB112
 1505 0024 14000000 		.4byte	.LFE112-.LFB112
 1506 0028 00000000 		.4byte	.LFB113
 1507 002c 18000000 		.4byte	.LFE113-.LFB113
 1508 0030 00000000 		.4byte	.LFB114
 1509 0034 18000000 		.4byte	.LFE114-.LFB114
 1510 0038 00000000 		.4byte	0
 1511 003c 00000000 		.4byte	0
 1512              		.section	.debug_ranges,"",%progbits
 1513              	.Ldebug_ranges0:
 1514 0000 00000000 		.4byte	.LFB110
 1515 0004 14000000 		.4byte	.LFE110
 1516 0008 00000000 		.4byte	.LFB111
 1517 000c 6C000000 		.4byte	.LFE111
 1518 0010 00000000 		.4byte	.LFB112
 1519 0014 14000000 		.4byte	.LFE112
 1520 0018 00000000 		.4byte	.LFB113
 1521 001c 18000000 		.4byte	.LFE113
 1522 0020 00000000 		.4byte	.LFB114
 1523 0024 18000000 		.4byte	.LFE114
ARM GAS  /tmp/ccM6Ffe8.s 			page 32


 1524 0028 00000000 		.4byte	0
 1525 002c 00000000 		.4byte	0
 1526              		.section	.debug_line,"",%progbits
 1527              	.Ldebug_line0:
 1528 0000 16010000 		.section	.debug_str,"MS",%progbits,1
 1528      0200A000 
 1528      00000201 
 1528      FB0E0D00 
 1528      01010101 
 1529              	.LASF7:
 1530 0000 75696E74 		.ascii	"uint32_t\000"
 1530      33325F74 
 1530      00
 1531              	.LASF20:
 1532 0009 49414252 		.ascii	"IABR\000"
 1532      00
 1533              	.LASF52:
 1534 000e 4E564943 		.ascii	"NVIC_InitTypeDef\000"
 1534      5F496E69 
 1534      74547970 
 1534      65446566 
 1534      00
 1535              	.LASF51:
 1536 001f 4E564943 		.ascii	"NVIC_IRQChannelCmd\000"
 1536      5F495251 
 1536      4368616E 
 1536      6E656C43 
 1536      6D6400
 1537              	.LASF67:
 1538 0032 53797354 		.ascii	"SysTick_CLKSource\000"
 1538      69636B5F 
 1538      434C4B53 
 1538      6F757263 
 1538      6500
 1539              	.LASF56:
 1540 0044 4E564943 		.ascii	"NVIC_InitStruct\000"
 1540      5F496E69 
 1540      74537472 
 1540      75637400 
 1541              	.LASF55:
 1542 0054 4E564943 		.ascii	"NVIC_PriorityGroup\000"
 1542      5F507269 
 1542      6F726974 
 1542      7947726F 
 1542      757000
 1543              	.LASF34:
 1544 0067 4D4D4641 		.ascii	"MMFAR\000"
 1544      5200
 1545              	.LASF70:
 1546 006d 2F686F6D 		.ascii	"/home/xavier/Documents/Xav/dev/stm32code/bitbox/boo"
 1546      652F7861 
 1546      76696572 
 1546      2F446F63 
 1546      756D656E 
 1547 00a0 746C6F61 		.ascii	"tloader/FATFS-DBG\000"
 1547      6465722F 
 1547      46415446 
ARM GAS  /tmp/ccM6Ffe8.s 			page 33


 1547      532D4442 
 1547      4700
 1548              	.LASF2:
 1549 00b2 73686F72 		.ascii	"short int\000"
 1549      7420696E 
 1549      7400
 1550              	.LASF24:
 1551 00bc 73697A65 		.ascii	"sizetype\000"
 1551      74797065 
 1551      00
 1552              	.LASF54:
 1553 00c5 4E564943 		.ascii	"NVIC_Init\000"
 1553      5F496E69 
 1553      7400
 1554              	.LASF58:
 1555 00cf 746D7070 		.ascii	"tmppre\000"
 1555      726500
 1556              	.LASF26:
 1557 00d6 43505549 		.ascii	"CPUID\000"
 1557      4400
 1558              	.LASF12:
 1559 00dc 49534552 		.ascii	"ISER\000"
 1559      00
 1560              	.LASF4:
 1561 00e1 75696E74 		.ascii	"uint8_t\000"
 1561      385F7400 
 1562              	.LASF40:
 1563 00e9 5343425F 		.ascii	"SCB_Type\000"
 1563      54797065 
 1563      00
 1564              	.LASF65:
 1565 00f2 4E657753 		.ascii	"NewState\000"
 1565      74617465 
 1565      00
 1566              	.LASF23:
 1567 00fb 53544952 		.ascii	"STIR\000"
 1567      00
 1568              	.LASF45:
 1569 0100 44495341 		.ascii	"DISABLE\000"
 1569      424C4500 
 1570              	.LASF27:
 1571 0108 49435352 		.ascii	"ICSR\000"
 1571      00
 1572              	.LASF15:
 1573 010d 52534552 		.ascii	"RSERVED1\000"
 1573      56454431 
 1573      00
 1574              	.LASF9:
 1575 0116 6C6F6E67 		.ascii	"long long int\000"
 1575      206C6F6E 
 1575      6720696E 
 1575      7400
 1576              	.LASF62:
 1577 0124 4F666673 		.ascii	"Offset\000"
 1577      657400
 1578              	.LASF35:
 1579 012b 42464152 		.ascii	"BFAR\000"
ARM GAS  /tmp/ccM6Ffe8.s 			page 34


 1579      00
 1580              	.LASF6:
 1581 0130 6C6F6E67 		.ascii	"long int\000"
 1581      20696E74 
 1581      00
 1582              	.LASF69:
 1583 0139 6D697363 		.ascii	"misc.c\000"
 1583      2E6300
 1584              	.LASF31:
 1585 0140 43465352 		.ascii	"CFSR\000"
 1585      00
 1586              	.LASF29:
 1587 0145 41495243 		.ascii	"AIRCR\000"
 1587      5200
 1588              	.LASF1:
 1589 014b 756E7369 		.ascii	"unsigned char\000"
 1589      676E6564 
 1589      20636861 
 1589      7200
 1590              	.LASF41:
 1591 0159 4354524C 		.ascii	"CTRL\000"
 1591      00
 1592              	.LASF60:
 1593 015e 4E564943 		.ascii	"NVIC_SetVectorTable\000"
 1593      5F536574 
 1593      56656374 
 1593      6F725461 
 1593      626C6500 
 1594              	.LASF18:
 1595 0172 49435052 		.ascii	"ICPR\000"
 1595      00
 1596              	.LASF0:
 1597 0177 7369676E 		.ascii	"signed char\000"
 1597      65642063 
 1597      68617200 
 1598              	.LASF10:
 1599 0183 6C6F6E67 		.ascii	"long long unsigned int\000"
 1599      206C6F6E 
 1599      6720756E 
 1599      7369676E 
 1599      65642069 
 1600              	.LASF43:
 1601 019a 43414C49 		.ascii	"CALIB\000"
 1601      4200
 1602              	.LASF30:
 1603 01a0 53484353 		.ascii	"SHCSR\000"
 1603      5200
 1604              	.LASF11:
 1605 01a6 756E7369 		.ascii	"unsigned int\000"
 1605      676E6564 
 1605      20696E74 
 1605      00
 1606              	.LASF68:
 1607 01b3 474E5520 		.ascii	"GNU C 4.7.4 20130913 (release) [ARM/embedded-4_7-br"
 1607      4320342E 
 1607      372E3420 
 1607      32303133 
ARM GAS  /tmp/ccM6Ffe8.s 			page 35


 1607      30393133 
 1608 01e6 616E6368 		.ascii	"anch revision 202601]\000"
 1608      20726576 
 1608      6973696F 
 1608      6E203230 
 1608      32363031 
 1609              	.LASF14:
 1610 01fc 49434552 		.ascii	"ICER\000"
 1610      00
 1611              	.LASF59:
 1612 0201 746D7073 		.ascii	"tmpsub\000"
 1612      756200
 1613              	.LASF63:
 1614 0208 4E564943 		.ascii	"NVIC_SystemLPConfig\000"
 1614      5F537973 
 1614      74656D4C 
 1614      50436F6E 
 1614      66696700 
 1615              	.LASF66:
 1616 021c 53797354 		.ascii	"SysTick_CLKSourceConfig\000"
 1616      69636B5F 
 1616      434C4B53 
 1616      6F757263 
 1616      65436F6E 
 1617              	.LASF44:
 1618 0234 53797354 		.ascii	"SysTick_Type\000"
 1618      69636B5F 
 1618      54797065 
 1618      00
 1619              	.LASF3:
 1620 0241 73686F72 		.ascii	"short unsigned int\000"
 1620      7420756E 
 1620      7369676E 
 1620      65642069 
 1620      6E7400
 1621              	.LASF57:
 1622 0254 746D7070 		.ascii	"tmppriority\000"
 1622      72696F72 
 1622      69747900 
 1623              	.LASF28:
 1624 0260 56544F52 		.ascii	"VTOR\000"
 1624      00
 1625              	.LASF5:
 1626 0265 696E7433 		.ascii	"int32_t\000"
 1626      325F7400 
 1627              	.LASF38:
 1628 026d 49534152 		.ascii	"ISAR\000"
 1628      00
 1629              	.LASF16:
 1630 0272 49535052 		.ascii	"ISPR\000"
 1630      00
 1631              	.LASF33:
 1632 0277 44465352 		.ascii	"DFSR\000"
 1632      00
 1633              	.LASF48:
 1634 027c 4E564943 		.ascii	"NVIC_IRQChannel\000"
 1634      5F495251 
ARM GAS  /tmp/ccM6Ffe8.s 			page 36


 1634      4368616E 
 1634      6E656C00 
 1635              	.LASF50:
 1636 028c 4E564943 		.ascii	"NVIC_IRQChannelSubPriority\000"
 1636      5F495251 
 1636      4368616E 
 1636      6E656C53 
 1636      75625072 
 1637              	.LASF32:
 1638 02a7 48465352 		.ascii	"HFSR\000"
 1638      00
 1639              	.LASF37:
 1640 02ac 4D4D4652 		.ascii	"MMFR\000"
 1640      00
 1641              	.LASF13:
 1642 02b1 52455345 		.ascii	"RESERVED0\000"
 1642      52564544 
 1642      3000
 1643              	.LASF17:
 1644 02bb 52455345 		.ascii	"RESERVED2\000"
 1644      52564544 
 1644      3200
 1645              	.LASF19:
 1646 02c5 52455345 		.ascii	"RESERVED3\000"
 1646      52564544 
 1646      3300
 1647              	.LASF21:
 1648 02cf 52455345 		.ascii	"RESERVED4\000"
 1648      52564544 
 1648      3400
 1649              	.LASF22:
 1650 02d9 52455345 		.ascii	"RESERVED5\000"
 1650      52564544 
 1650      3500
 1651              	.LASF8:
 1652 02e3 6C6F6E67 		.ascii	"long unsigned int\000"
 1652      20756E73 
 1652      69676E65 
 1652      6420696E 
 1652      7400
 1653              	.LASF25:
 1654 02f5 4E564943 		.ascii	"NVIC_Type\000"
 1654      5F547970 
 1654      6500
 1655              	.LASF49:
 1656 02ff 4E564943 		.ascii	"NVIC_IRQChannelPreemptionPriority\000"
 1656      5F495251 
 1656      4368616E 
 1656      6E656C50 
 1656      7265656D 
 1657              	.LASF47:
 1658 0321 46756E63 		.ascii	"FunctionalState\000"
 1658      74696F6E 
 1658      616C5374 
 1658      61746500 
 1659              	.LASF61:
 1660 0331 4E564943 		.ascii	"NVIC_VectTab\000"
ARM GAS  /tmp/ccM6Ffe8.s 			page 37


 1660      5F566563 
 1660      74546162 
 1660      00
 1661              	.LASF42:
 1662 033e 4C4F4144 		.ascii	"LOAD\000"
 1662      00
 1663              	.LASF36:
 1664 0343 41465352 		.ascii	"AFSR\000"
 1664      00
 1665              	.LASF64:
 1666 0348 4C6F7750 		.ascii	"LowPowerMode\000"
 1666      6F776572 
 1666      4D6F6465 
 1666      00
 1667              	.LASF71:
 1668 0355 49544D5F 		.ascii	"ITM_RxBuffer\000"
 1668      52784275 
 1668      66666572 
 1668      00
 1669              	.LASF39:
 1670 0362 43504143 		.ascii	"CPACR\000"
 1670      5200
 1671              	.LASF46:
 1672 0368 454E4142 		.ascii	"ENABLE\000"
 1672      4C4500
 1673              	.LASF53:
 1674 036f 4E564943 		.ascii	"NVIC_PriorityGroupConfig\000"
 1674      5F507269 
 1674      6F726974 
 1674      7947726F 
 1674      7570436F 
 1675              		.ident	"GCC: (GNU Tools for ARM Embedded Processors) 4.7.4 20130913 (release) [ARM/embedded-4_7-br
ARM GAS  /tmp/ccM6Ffe8.s 			page 38


DEFINED SYMBOLS
                            *ABS*:0000000000000000 misc.c
     /tmp/ccM6Ffe8.s:68     .text.NVIC_PriorityGroupConfig:0000000000000000 $t
     /tmp/ccM6Ffe8.s:73     .text.NVIC_PriorityGroupConfig:0000000000000000 NVIC_PriorityGroupConfig
     /tmp/ccM6Ffe8.s:92     .text.NVIC_PriorityGroupConfig:0000000000000010 $d
     /tmp/ccM6Ffe8.s:97     .text.NVIC_Init:0000000000000000 $t
     /tmp/ccM6Ffe8.s:102    .text.NVIC_Init:0000000000000000 NVIC_Init
     /tmp/ccM6Ffe8.s:187    .text.NVIC_Init:0000000000000064 $d
     /tmp/ccM6Ffe8.s:193    .text.NVIC_SetVectorTable:0000000000000000 $t
     /tmp/ccM6Ffe8.s:198    .text.NVIC_SetVectorTable:0000000000000000 NVIC_SetVectorTable
     /tmp/ccM6Ffe8.s:218    .text.NVIC_SetVectorTable:0000000000000010 $d
     /tmp/ccM6Ffe8.s:223    .text.NVIC_SystemLPConfig:0000000000000000 $t
     /tmp/ccM6Ffe8.s:228    .text.NVIC_SystemLPConfig:0000000000000000 NVIC_SystemLPConfig
     /tmp/ccM6Ffe8.s:256    .text.NVIC_SystemLPConfig:0000000000000014 $d
     /tmp/ccM6Ffe8.s:261    .text.SysTick_CLKSourceConfig:0000000000000000 $t
     /tmp/ccM6Ffe8.s:266    .text.SysTick_CLKSourceConfig:0000000000000000 SysTick_CLKSourceConfig
     /tmp/ccM6Ffe8.s:289    .text.SysTick_CLKSourceConfig:0000000000000014 $d
                     .debug_frame:0000000000000010 $d

NO UNDEFINED SYMBOLS
