ARM GAS  /tmp/ccXwW9Zw.s 			page 1


   1              		.syntax unified
   2              		.cpu cortex-m4
   3              		.eabi_attribute 27, 3	@ Tag_ABI_HardFP_use
   4              		.eabi_attribute 28, 1	@ Tag_ABI_VFP_args
   5              		.fpu fpv4-sp-d16
   6              		.eabi_attribute 20, 1	@ Tag_ABI_FP_denormal
   7              		.eabi_attribute 21, 1	@ Tag_ABI_FP_exceptions
   8              		.eabi_attribute 23, 3	@ Tag_ABI_FP_number_model
   9              		.eabi_attribute 24, 1	@ Tag_ABI_align8_needed
  10              		.eabi_attribute 25, 1	@ Tag_ABI_align8_preserved
  11              		.eabi_attribute 26, 1	@ Tag_ABI_enum_size
  12              		.eabi_attribute 30, 4	@ Tag_ABI_optimization_goals
  13              		.eabi_attribute 34, 1	@ Tag_CPU_unaligned_access
  14              		.eabi_attribute 18, 4	@ Tag_ABI_PCS_wchar_t
  15              		.file	"stm32f4_discovery.c"
  16              	@ GNU C (GNU Tools for ARM Embedded Processors) version 4.7.4 20130913 (release) [ARM/embedded-4_7-
  17              	@	compiled by GNU C version 4.7.3, GMP version 5.0.5, MPFR version 3.1.1-p2, MPC version 0.9
  18              	@ GGC heuristics: --param ggc-min-expand=100 --param ggc-min-heapsize=131072
  19              	@ options passed:  -I . -I ../ -I cmsis/ -imultilib armv7e-m/fpu
  20              	@ -iprefix /usr/bin/../lib/gcc/arm-none-eabi/4.7.4/
  21              	@ -isysroot /usr/bin/../arm-none-eabi -MD stm32f4_discovery.d
  22              	@ -MF .dep/stm32f4_discovery.o.d -MP -MQ stm32f4_discovery.o
  23              	@ -D__USES_INITFINI__ -D __FPU_USED=1 -D __arm__ -D __ASSEMBLY__
  24              	@ -D USE_STDPERIPH_DRIVER -D STM32F4XX -D HSE_VALUE=8000000
  25              	@ -D __FPU_PRESENT=1 -D __FPU_USED=1 -D STM32F405VG -D USE_USB_OTG_FS
  26              	@ -D RUN_FROM_FLASH=1 stm32f4_discovery.c -mthumb -mcpu=cortex-m4
  27              	@ -mfloat-abi=hard -mfpu=fpv4-sp-d16 -mthumb
  28              	@ -auxbase-strip stm32f4_discovery.o -gdwarf-2 -Os -Wall
  29              	@ -Wstrict-prototypes -std=gnu99 -falign-functions=16 -fno-inline
  30              	@ -fomit-frame-pointer -fverbose-asm -ffunction-sections -fdata-sections
  31              	@ options enabled:  -fauto-inc-dec -fbranch-count-reg -fcaller-saves
  32              	@ -fcombine-stack-adjustments -fcommon -fcompare-elim -fcprop-registers
  33              	@ -fcrossjumping -fcse-follow-jumps -fdata-sections -fdebug-types-section
  34              	@ -fdefer-pop -fdelete-null-pointer-checks -fdevirtualize -fdwarf2-cfi-asm
  35              	@ -fearly-inlining -feliminate-unused-debug-types -fexpensive-optimizations
  36              	@ -fforward-propagate -ffunction-cse -ffunction-sections -fgcse -fgcse-lm
  37              	@ -fgnu-runtime -fguess-branch-probability -fident -fif-conversion
  38              	@ -fif-conversion2 -findirect-inlining -finline-atomics -finline-functions
  39              	@ -finline-functions-called-once -finline-small-functions -fipa-cp
  40              	@ -fipa-profile -fipa-pure-const -fipa-reference -fipa-sra
  41              	@ -fira-share-save-slots -fira-share-spill-slots -fivopts
  42              	@ -fkeep-static-consts -fleading-underscore -fmath-errno -fmerge-constants
  43              	@ -fmerge-debug-strings -fomit-frame-pointer -foptimize-register-move
  44              	@ -foptimize-sibling-calls -fpartial-inlining -fpeephole -fpeephole2
  45              	@ -fprefetch-loop-arrays -freg-struct-return -fregmove -frename-registers
  46              	@ -freorder-blocks -freorder-functions -frerun-cse-after-loop
  47              	@ -fsched-critical-path-heuristic -fsched-dep-count-heuristic
  48              	@ -fsched-group-heuristic -fsched-interblock -fsched-last-insn-heuristic
  49              	@ -fsched-rank-heuristic -fsched-spec -fsched-spec-insn-heuristic
  50              	@ -fsched-stalled-insns-dep -fschedule-insns2 -fsection-anchors
  51              	@ -fshow-column -fshrink-wrap -fsigned-zeros -fsplit-ivs-in-unroller
  52              	@ -fsplit-wide-types -fstrict-aliasing -fstrict-overflow
  53              	@ -fstrict-volatile-bitfields -fthread-jumps -ftoplevel-reorder
  54              	@ -ftrapping-math -ftree-bit-ccp -ftree-builtin-call-dce -ftree-ccp
  55              	@ -ftree-ch -ftree-copy-prop -ftree-copyrename -ftree-cselim -ftree-dce
  56              	@ -ftree-dominator-opts -ftree-dse -ftree-forwprop -ftree-fre
  57              	@ -ftree-loop-if-convert -ftree-loop-im -ftree-loop-ivcanon
ARM GAS  /tmp/ccXwW9Zw.s 			page 2


  58              	@ -ftree-loop-optimize -ftree-parallelize-loops= -ftree-phiprop -ftree-pre
  59              	@ -ftree-pta -ftree-reassoc -ftree-scev-cprop -ftree-sink
  60              	@ -ftree-slp-vectorize -ftree-sra -ftree-switch-conversion
  61              	@ -ftree-tail-merge -ftree-ter -ftree-vect-loop-version -ftree-vrp
  62              	@ -funit-at-a-time -funroll-loops -fvar-tracking -fvar-tracking-assignments
  63              	@ -fverbose-asm -fweb -fzero-initialized-in-bss -mlittle-endian
  64              	@ -msched-prolog -mthumb -munaligned-access -mvectorize-with-neon-quad
  65              	
  66              		.text
  67              	.Ltext0:
  68              		.cfi_sections	.debug_frame
  69              		.section	.text.STM_EVAL_LEDInit,"ax",%progbits
  70              		.align	1
  71              		.global	STM_EVAL_LEDInit
  72              		.thumb
  73              		.thumb_func
  74              		.type	STM_EVAL_LEDInit, %function
  75              	STM_EVAL_LEDInit:
  76              	.LFB110:
  77              		.file 1 "stm32f4_discovery.c"
   1:stm32f4_discovery.c **** /**
   2:stm32f4_discovery.c ****   ******************************************************************************
   3:stm32f4_discovery.c ****   * @file    stm32f4_discovery.c
   4:stm32f4_discovery.c ****   * @author  MCD Application Team
   5:stm32f4_discovery.c ****   * @version V1.1.0
   6:stm32f4_discovery.c ****   * @date    28-October-2011
   7:stm32f4_discovery.c ****   * @brief   This file provides set of firmware functions to manage Leds and
   8:stm32f4_discovery.c ****   *          push-button available on STM32F4-Discovery Kit from STMicroelectronics.
   9:stm32f4_discovery.c ****   ******************************************************************************
  10:stm32f4_discovery.c ****   * @attention
  11:stm32f4_discovery.c ****   *
  12:stm32f4_discovery.c ****   * THE PRESENT FIRMWARE WHICH IS FOR GUIDANCE ONLY AIMS AT PROVIDING CUSTOMERS
  13:stm32f4_discovery.c ****   * WITH CODING INFORMATION REGARDING THEIR PRODUCTS IN ORDER FOR THEM TO SAVE
  14:stm32f4_discovery.c ****   * TIME. AS A RESULT, STMICROELECTRONICS SHALL NOT BE HELD LIABLE FOR ANY
  15:stm32f4_discovery.c ****   * DIRECT, INDIRECT OR CONSEQUENTIAL DAMAGES WITH RESPECT TO ANY CLAIMS ARISING
  16:stm32f4_discovery.c ****   * FROM THE CONTENT OF SUCH FIRMWARE AND/OR THE USE MADE BY CUSTOMERS OF THE
  17:stm32f4_discovery.c ****   * CODING INFORMATION CONTAINED HEREIN IN CONNECTION WITH THEIR PRODUCTS.
  18:stm32f4_discovery.c ****   *
  19:stm32f4_discovery.c ****   * <h2><center>&copy; COPYRIGHT 2011 STMicroelectronics</center></h2>
  20:stm32f4_discovery.c ****   ******************************************************************************
  21:stm32f4_discovery.c **** 
  22:stm32f4_discovery.c ****   PATCHED BY CLIVE SOURCER32@GMAIL.COM TO SDIO
  23:stm32f4_discovery.c **** 
  24:stm32f4_discovery.c ****   ******************************************************************************
  25:stm32f4_discovery.c ****   */
  26:stm32f4_discovery.c **** 
  27:stm32f4_discovery.c **** /* Includes ------------------------------------------------------------------*/
  28:stm32f4_discovery.c **** #include "stm32f4_discovery.h"
  29:stm32f4_discovery.c **** 
  30:stm32f4_discovery.c **** /** @addtogroup Utilities
  31:stm32f4_discovery.c ****   * @{
  32:stm32f4_discovery.c ****   */
  33:stm32f4_discovery.c **** 
  34:stm32f4_discovery.c **** /** @addtogroup STM32F4_DISCOVERY
  35:stm32f4_discovery.c ****   * @{
  36:stm32f4_discovery.c ****   */
  37:stm32f4_discovery.c **** 
ARM GAS  /tmp/ccXwW9Zw.s 			page 3


  38:stm32f4_discovery.c **** /** @defgroup STM32F4_DISCOVERY_LOW_LEVEL
  39:stm32f4_discovery.c ****   * @brief This file provides set of firmware functions to manage Leds and push-button
  40:stm32f4_discovery.c ****   *        available on STM32F4-Discovery Kit from STMicroelectronics.
  41:stm32f4_discovery.c ****   * @{
  42:stm32f4_discovery.c ****   */
  43:stm32f4_discovery.c **** 
  44:stm32f4_discovery.c **** /** @defgroup STM32F4_DISCOVERY_LOW_LEVEL_Private_TypesDefinitions
  45:stm32f4_discovery.c ****   * @{
  46:stm32f4_discovery.c ****   */
  47:stm32f4_discovery.c **** /**
  48:stm32f4_discovery.c ****   * @}
  49:stm32f4_discovery.c ****   */
  50:stm32f4_discovery.c **** 
  51:stm32f4_discovery.c **** 
  52:stm32f4_discovery.c **** /** @defgroup STM32F4_DISCOVERY_LOW_LEVEL_Private_Defines
  53:stm32f4_discovery.c ****   * @{
  54:stm32f4_discovery.c ****   */
  55:stm32f4_discovery.c **** /**
  56:stm32f4_discovery.c ****   * @}
  57:stm32f4_discovery.c ****   */
  58:stm32f4_discovery.c **** 
  59:stm32f4_discovery.c **** 
  60:stm32f4_discovery.c **** /** @defgroup STM32F4_DISCOVERY_LOW_LEVEL_Private_Macros
  61:stm32f4_discovery.c ****   * @{
  62:stm32f4_discovery.c ****   */
  63:stm32f4_discovery.c **** /**
  64:stm32f4_discovery.c ****   * @}
  65:stm32f4_discovery.c ****   */
  66:stm32f4_discovery.c **** 
  67:stm32f4_discovery.c **** 
  68:stm32f4_discovery.c **** /** @defgroup STM32F4_DISCOVERY_LOW_LEVEL_Private_Variables
  69:stm32f4_discovery.c ****   * @{
  70:stm32f4_discovery.c ****   */
  71:stm32f4_discovery.c **** GPIO_TypeDef* GPIO_PORT[LEDn] = {LED4_GPIO_PORT, LED3_GPIO_PORT, LED5_GPIO_PORT,
  72:stm32f4_discovery.c ****                                  LED6_GPIO_PORT};
  73:stm32f4_discovery.c **** const uint16_t GPIO_PIN[LEDn] = {LED4_PIN, LED3_PIN, LED5_PIN,
  74:stm32f4_discovery.c ****                                  LED6_PIN};
  75:stm32f4_discovery.c **** const uint32_t GPIO_CLK[LEDn] = {LED4_GPIO_CLK, LED3_GPIO_CLK, LED5_GPIO_CLK,
  76:stm32f4_discovery.c ****                                  LED6_GPIO_CLK};
  77:stm32f4_discovery.c **** 
  78:stm32f4_discovery.c **** GPIO_TypeDef* BUTTON_PORT[BUTTONn] = {USER_BUTTON_GPIO_PORT };
  79:stm32f4_discovery.c **** 
  80:stm32f4_discovery.c **** const uint16_t BUTTON_PIN[BUTTONn] = {USER_BUTTON_PIN };
  81:stm32f4_discovery.c **** 
  82:stm32f4_discovery.c **** const uint32_t BUTTON_CLK[BUTTONn] = {USER_BUTTON_GPIO_CLK };
  83:stm32f4_discovery.c **** 
  84:stm32f4_discovery.c **** const uint16_t BUTTON_EXTI_LINE[BUTTONn] = {USER_BUTTON_EXTI_LINE };
  85:stm32f4_discovery.c **** 
  86:stm32f4_discovery.c **** const uint8_t BUTTON_PORT_SOURCE[BUTTONn] = {USER_BUTTON_EXTI_PORT_SOURCE};
  87:stm32f4_discovery.c **** 								
  88:stm32f4_discovery.c **** const uint8_t BUTTON_PIN_SOURCE[BUTTONn] = {USER_BUTTON_EXTI_PIN_SOURCE };
  89:stm32f4_discovery.c **** const uint8_t BUTTON_IRQn[BUTTONn] = {USER_BUTTON_EXTI_IRQn };
  90:stm32f4_discovery.c **** 
  91:stm32f4_discovery.c **** NVIC_InitTypeDef   NVIC_InitStructure;
  92:stm32f4_discovery.c **** 
  93:stm32f4_discovery.c **** /**
  94:stm32f4_discovery.c ****   * @}
ARM GAS  /tmp/ccXwW9Zw.s 			page 4


  95:stm32f4_discovery.c ****   */
  96:stm32f4_discovery.c **** 
  97:stm32f4_discovery.c **** 
  98:stm32f4_discovery.c **** /** @defgroup STM32F4_DISCOVERY_LOW_LEVEL_Private_FunctionPrototypes
  99:stm32f4_discovery.c ****   * @{
 100:stm32f4_discovery.c ****   */
 101:stm32f4_discovery.c **** 
 102:stm32f4_discovery.c **** /**
 103:stm32f4_discovery.c ****   * @}
 104:stm32f4_discovery.c ****   */
 105:stm32f4_discovery.c **** 
 106:stm32f4_discovery.c **** /** @defgroup STM32F4_DISCOVERY_LOW_LEVEL_Private_Functions
 107:stm32f4_discovery.c ****   * @{
 108:stm32f4_discovery.c ****   */
 109:stm32f4_discovery.c **** 
 110:stm32f4_discovery.c **** /**
 111:stm32f4_discovery.c ****   * @brief  Configures LED GPIO.
 112:stm32f4_discovery.c ****   * @param  Led: Specifies the Led to be configured.
 113:stm32f4_discovery.c ****   *   This parameter can be one of following parameters:
 114:stm32f4_discovery.c ****   *     @arg LED4
 115:stm32f4_discovery.c ****   *     @arg LED3
 116:stm32f4_discovery.c ****   *     @arg LED5
 117:stm32f4_discovery.c ****   *     @arg LED6
 118:stm32f4_discovery.c ****   * @retval None
 119:stm32f4_discovery.c ****   */
 120:stm32f4_discovery.c **** void STM_EVAL_LEDInit(Led_TypeDef Led)
 121:stm32f4_discovery.c **** {
  78              		.loc 1 121 0
  79              		.cfi_startproc
  80              		@ args = 0, pretend = 0, frame = 8
  81              		@ frame_needed = 0, uses_anonymous_args = 0
  82              	.LVL0:
 122:stm32f4_discovery.c ****   GPIO_InitTypeDef  GPIO_InitStructure;
 123:stm32f4_discovery.c **** 
 124:stm32f4_discovery.c ****   /* Enable the GPIO_LED Clock */
 125:stm32f4_discovery.c ****   RCC_AHB1PeriphClockCmd(GPIO_CLK[Led], ENABLE);
  83              		.loc 1 125 0
  84 0000 0E4B     		ldr	r3, .L2	@ tmp140,
 121:stm32f4_discovery.c **** {
  85              		.loc 1 121 0
  86 0002 13B5     		push	{r0, r1, r4, lr}	@
  87              	.LCFI0:
  88              		.cfi_def_cfa_offset 16
  89              		.cfi_offset 0, -16
  90              		.cfi_offset 1, -12
  91              		.cfi_offset 4, -8
  92              		.cfi_offset 14, -4
 121:stm32f4_discovery.c **** {
  93              		.loc 1 121 0
  94 0004 0446     		mov	r4, r0	@ Led, Led
  95              		.loc 1 125 0
  96 0006 0121     		movs	r1, #1	@,
  97 0008 53F82000 		ldr	r0, [r3, r0, lsl #2]	@, GPIO_CLK
  98              	.LVL1:
  99 000c FFF7FEFF 		bl	RCC_AHB1PeriphClockCmd	@
 100              	.LVL2:
 126:stm32f4_discovery.c **** 
ARM GAS  /tmp/ccXwW9Zw.s 			page 5


 127:stm32f4_discovery.c ****   /* Configure the GPIO_LED pin */
 128:stm32f4_discovery.c ****   GPIO_InitStructure.GPIO_Pin = GPIO_PIN[Led];
 101              		.loc 1 128 0
 102 0010 0B48     		ldr	r0, .L2+4	@ tmp141,
 103 0012 30F81410 		ldrh	r1, [r0, r4, lsl #1]	@ tmp142, GPIO_PIN
 104 0016 0091     		str	r1, [sp, #0]	@ tmp142, GPIO_InitStructure.GPIO_Pin
 129:stm32f4_discovery.c ****   GPIO_InitStructure.GPIO_Mode = GPIO_Mode_OUT;
 130:stm32f4_discovery.c ****   GPIO_InitStructure.GPIO_OType = GPIO_OType_PP;
 131:stm32f4_discovery.c ****   GPIO_InitStructure.GPIO_PuPd = GPIO_PuPd_UP;
 132:stm32f4_discovery.c ****   GPIO_InitStructure.GPIO_Speed = GPIO_Speed_50MHz;
 133:stm32f4_discovery.c ****   GPIO_Init(GPIO_PORT[Led], &GPIO_InitStructure);
 105              		.loc 1 133 0
 106 0018 0A49     		ldr	r1, .L2+8	@ tmp151,
 132:stm32f4_discovery.c ****   GPIO_InitStructure.GPIO_Speed = GPIO_Speed_50MHz;
 107              		.loc 1 132 0
 108 001a 0220     		movs	r0, #2	@ tmp149,
 129:stm32f4_discovery.c ****   GPIO_InitStructure.GPIO_Mode = GPIO_Mode_OUT;
 109              		.loc 1 129 0
 110 001c 0123     		movs	r3, #1	@ tmp143,
 130:stm32f4_discovery.c ****   GPIO_InitStructure.GPIO_OType = GPIO_OType_PP;
 111              		.loc 1 130 0
 112 001e 0022     		movs	r2, #0	@ tmp145,
 132:stm32f4_discovery.c ****   GPIO_InitStructure.GPIO_Speed = GPIO_Speed_50MHz;
 113              		.loc 1 132 0
 114 0020 8DF80500 		strb	r0, [sp, #5]	@ tmp149, GPIO_InitStructure.GPIO_Speed
 115              		.loc 1 133 0
 116 0024 51F82400 		ldr	r0, [r1, r4, lsl #2]	@, GPIO_PORT
 129:stm32f4_discovery.c ****   GPIO_InitStructure.GPIO_Mode = GPIO_Mode_OUT;
 117              		.loc 1 129 0
 118 0028 8DF80430 		strb	r3, [sp, #4]	@ tmp143, GPIO_InitStructure.GPIO_Mode
 119              		.loc 1 133 0
 120 002c 6946     		mov	r1, sp	@,
 130:stm32f4_discovery.c ****   GPIO_InitStructure.GPIO_OType = GPIO_OType_PP;
 121              		.loc 1 130 0
 122 002e 8DF80620 		strb	r2, [sp, #6]	@ tmp145, GPIO_InitStructure.GPIO_OType
 131:stm32f4_discovery.c ****   GPIO_InitStructure.GPIO_PuPd = GPIO_PuPd_UP;
 123              		.loc 1 131 0
 124 0032 8DF80730 		strb	r3, [sp, #7]	@ tmp143, GPIO_InitStructure.GPIO_PuPd
 125              		.loc 1 133 0
 126 0036 FFF7FEFF 		bl	GPIO_Init	@
 127              	.LVL3:
 134:stm32f4_discovery.c **** }
 128              		.loc 1 134 0
 129 003a 1CBD     		pop	{r2, r3, r4, pc}
 130              	.L3:
 131              		.align	2
 132              	.L2:
 133 003c 00000000 		.word	.LANCHOR0
 134 0040 00000000 		.word	.LANCHOR1
 135 0044 00000000 		.word	.LANCHOR2
 136              		.cfi_endproc
 137              	.LFE110:
 138              		.size	STM_EVAL_LEDInit, .-STM_EVAL_LEDInit
 139              		.section	.text.STM_EVAL_LEDOn,"ax",%progbits
 140              		.align	1
 141              		.global	STM_EVAL_LEDOn
 142              		.thumb
ARM GAS  /tmp/ccXwW9Zw.s 			page 6


 143              		.thumb_func
 144              		.type	STM_EVAL_LEDOn, %function
 145              	STM_EVAL_LEDOn:
 146              	.LFB111:
 135:stm32f4_discovery.c **** 
 136:stm32f4_discovery.c **** /**
 137:stm32f4_discovery.c ****   * @brief  Turns selected LED On.
 138:stm32f4_discovery.c ****   * @param  Led: Specifies the Led to be set on.
 139:stm32f4_discovery.c ****   *   This parameter can be one of following parameters:
 140:stm32f4_discovery.c ****   *     @arg LED4
 141:stm32f4_discovery.c ****   *     @arg LED3
 142:stm32f4_discovery.c ****   *     @arg LED5
 143:stm32f4_discovery.c ****   *     @arg LED6
 144:stm32f4_discovery.c ****   * @retval None
 145:stm32f4_discovery.c ****   */
 146:stm32f4_discovery.c **** void STM_EVAL_LEDOn(Led_TypeDef Led)
 147:stm32f4_discovery.c **** {
 147              		.loc 1 147 0
 148              		.cfi_startproc
 149              		@ args = 0, pretend = 0, frame = 0
 150              		@ frame_needed = 0, uses_anonymous_args = 0
 151              		@ link register save eliminated.
 152              	.LVL4:
 148:stm32f4_discovery.c ****   GPIO_PORT[Led]->BSRRL = GPIO_PIN[Led];
 153              		.loc 1 148 0
 154 0000 034B     		ldr	r3, .L5	@ tmp138,
 155 0002 044A     		ldr	r2, .L5+4	@ tmp139,
 156 0004 53F82010 		ldr	r1, [r3, r0, lsl #2]	@ D.6027, GPIO_PORT
 157 0008 32F81000 		ldrh	r0, [r2, r0, lsl #1]	@ D.6028, GPIO_PIN
 158              	.LVL5:
 159 000c 0883     		strh	r0, [r1, #24]	@ movhi	@ D.6028, D.6027_3->BSRRL
 160 000e 7047     		bx	lr	@
 161              	.L6:
 162              		.align	2
 163              	.L5:
 164 0010 00000000 		.word	.LANCHOR2
 165 0014 00000000 		.word	.LANCHOR1
 166              		.cfi_endproc
 167              	.LFE111:
 168              		.size	STM_EVAL_LEDOn, .-STM_EVAL_LEDOn
 169              		.section	.text.STM_EVAL_LEDOff,"ax",%progbits
 170              		.align	1
 171              		.global	STM_EVAL_LEDOff
 172              		.thumb
 173              		.thumb_func
 174              		.type	STM_EVAL_LEDOff, %function
 175              	STM_EVAL_LEDOff:
 176              	.LFB112:
 149:stm32f4_discovery.c **** }
 150:stm32f4_discovery.c **** 
 151:stm32f4_discovery.c **** /**
 152:stm32f4_discovery.c ****   * @brief  Turns selected LED Off.
 153:stm32f4_discovery.c ****   * @param  Led: Specifies the Led to be set off.
 154:stm32f4_discovery.c ****   *   This parameter can be one of following parameters:
 155:stm32f4_discovery.c ****   *     @arg LED4
 156:stm32f4_discovery.c ****   *     @arg LED3
 157:stm32f4_discovery.c ****   *     @arg LED5
ARM GAS  /tmp/ccXwW9Zw.s 			page 7


 158:stm32f4_discovery.c ****   *     @arg LED6
 159:stm32f4_discovery.c ****   * @retval None
 160:stm32f4_discovery.c ****   */
 161:stm32f4_discovery.c **** void STM_EVAL_LEDOff(Led_TypeDef Led)
 162:stm32f4_discovery.c **** {
 177              		.loc 1 162 0
 178              		.cfi_startproc
 179              		@ args = 0, pretend = 0, frame = 0
 180              		@ frame_needed = 0, uses_anonymous_args = 0
 181              		@ link register save eliminated.
 182              	.LVL6:
 163:stm32f4_discovery.c ****   GPIO_PORT[Led]->BSRRH = GPIO_PIN[Led];
 183              		.loc 1 163 0
 184 0000 034B     		ldr	r3, .L8	@ tmp138,
 185 0002 044A     		ldr	r2, .L8+4	@ tmp139,
 186 0004 53F82010 		ldr	r1, [r3, r0, lsl #2]	@ D.6024, GPIO_PORT
 187 0008 32F81000 		ldrh	r0, [r2, r0, lsl #1]	@ D.6025, GPIO_PIN
 188              	.LVL7:
 189 000c 4883     		strh	r0, [r1, #26]	@ movhi	@ D.6025, D.6024_3->BSRRH
 190 000e 7047     		bx	lr	@
 191              	.L9:
 192              		.align	2
 193              	.L8:
 194 0010 00000000 		.word	.LANCHOR2
 195 0014 00000000 		.word	.LANCHOR1
 196              		.cfi_endproc
 197              	.LFE112:
 198              		.size	STM_EVAL_LEDOff, .-STM_EVAL_LEDOff
 199              		.section	.text.STM_EVAL_LEDToggle,"ax",%progbits
 200              		.align	1
 201              		.global	STM_EVAL_LEDToggle
 202              		.thumb
 203              		.thumb_func
 204              		.type	STM_EVAL_LEDToggle, %function
 205              	STM_EVAL_LEDToggle:
 206              	.LFB113:
 164:stm32f4_discovery.c **** }
 165:stm32f4_discovery.c **** 
 166:stm32f4_discovery.c **** /**
 167:stm32f4_discovery.c ****   * @brief  Toggles the selected LED.
 168:stm32f4_discovery.c ****   * @param  Led: Specifies the Led to be toggled.
 169:stm32f4_discovery.c ****   *   This parameter can be one of following parameters:
 170:stm32f4_discovery.c ****   *     @arg LED4
 171:stm32f4_discovery.c ****   *     @arg LED3
 172:stm32f4_discovery.c ****   *     @arg LED5
 173:stm32f4_discovery.c ****   *     @arg LED6
 174:stm32f4_discovery.c ****   * @retval None
 175:stm32f4_discovery.c ****   */
 176:stm32f4_discovery.c **** void STM_EVAL_LEDToggle(Led_TypeDef Led)
 177:stm32f4_discovery.c **** {
 207              		.loc 1 177 0
 208              		.cfi_startproc
 209              		@ args = 0, pretend = 0, frame = 0
 210              		@ frame_needed = 0, uses_anonymous_args = 0
 211              		@ link register save eliminated.
 212              	.LVL8:
 178:stm32f4_discovery.c ****   GPIO_PORT[Led]->ODR ^= GPIO_PIN[Led];
ARM GAS  /tmp/ccXwW9Zw.s 			page 8


 213              		.loc 1 178 0
 214 0000 044B     		ldr	r3, .L11	@ tmp141,
 215 0002 0549     		ldr	r1, .L11+4	@ tmp142,
 216 0004 53F82030 		ldr	r3, [r3, r0, lsl #2]	@ D.6018, GPIO_PORT
 217 0008 31F81000 		ldrh	r0, [r1, r0, lsl #1]	@ tmp143, GPIO_PIN
 218              	.LVL9:
 219 000c 5A69     		ldr	r2, [r3, #20]	@ D.6019, D.6018_5->ODR
 220 000e 4240     		eors	r2, r2, r0	@, D.6022, D.6019, tmp143
 221 0010 5A61     		str	r2, [r3, #20]	@ D.6022, D.6018_5->ODR
 222 0012 7047     		bx	lr	@
 223              	.L12:
 224              		.align	2
 225              	.L11:
 226 0014 00000000 		.word	.LANCHOR2
 227 0018 00000000 		.word	.LANCHOR1
 228              		.cfi_endproc
 229              	.LFE113:
 230              		.size	STM_EVAL_LEDToggle, .-STM_EVAL_LEDToggle
 231              		.section	.text.STM_EVAL_PBInit,"ax",%progbits
 232              		.align	1
 233              		.global	STM_EVAL_PBInit
 234              		.thumb
 235              		.thumb_func
 236              		.type	STM_EVAL_PBInit, %function
 237              	STM_EVAL_PBInit:
 238              	.LFB114:
 179:stm32f4_discovery.c **** }
 180:stm32f4_discovery.c **** 
 181:stm32f4_discovery.c **** /**
 182:stm32f4_discovery.c ****   * @brief  Configures Button GPIO and EXTI Line.
 183:stm32f4_discovery.c ****   * @param  Button: Specifies the Button to be configured.
 184:stm32f4_discovery.c ****   *   This parameter should be: BUTTON_USER
 185:stm32f4_discovery.c ****   * @param  Button_Mode: Specifies Button mode.
 186:stm32f4_discovery.c ****   *   This parameter can be one of following parameters:
 187:stm32f4_discovery.c ****   *     @arg BUTTON_MODE_GPIO: Button will be used as simple IO
 188:stm32f4_discovery.c ****   *     @arg BUTTON_MODE_EXTI: Button will be connected to EXTI line with interrupt
 189:stm32f4_discovery.c ****   *                            generation capability
 190:stm32f4_discovery.c ****   * @retval None
 191:stm32f4_discovery.c ****   */
 192:stm32f4_discovery.c **** void STM_EVAL_PBInit(Button_TypeDef Button, ButtonMode_TypeDef Button_Mode)
 193:stm32f4_discovery.c **** {
 239              		.loc 1 193 0
 240              		.cfi_startproc
 241              		@ args = 0, pretend = 0, frame = 24
 242              		@ frame_needed = 0, uses_anonymous_args = 0
 243              	.LVL10:
 244 0000 70B5     		push	{r4, r5, r6, lr}	@
 245              	.LCFI1:
 246              		.cfi_def_cfa_offset 16
 247              		.cfi_offset 4, -16
 248              		.cfi_offset 5, -12
 249              		.cfi_offset 6, -8
 250              		.cfi_offset 14, -4
 251 0002 0646     		mov	r6, r0	@ Button, Button
 194:stm32f4_discovery.c ****   GPIO_InitTypeDef GPIO_InitStructure;
 195:stm32f4_discovery.c ****   EXTI_InitTypeDef EXTI_InitStructure;
 196:stm32f4_discovery.c ****   NVIC_InitTypeDef NVIC_InitStructure;
ARM GAS  /tmp/ccXwW9Zw.s 			page 9


 197:stm32f4_discovery.c **** 
 198:stm32f4_discovery.c ****   /* Enable the BUTTON Clock */
 199:stm32f4_discovery.c ****   RCC_AHB1PeriphClockCmd(BUTTON_CLK[Button], ENABLE);
 252              		.loc 1 199 0
 253 0004 0120     		movs	r0, #1	@,
 254              	.LVL11:
 193:stm32f4_discovery.c **** {
 255              		.loc 1 193 0
 256 0006 86B0     		sub	sp, sp, #24	@,,
 257              	.LCFI2:
 258              		.cfi_def_cfa_offset 40
 193:stm32f4_discovery.c **** {
 259              		.loc 1 193 0
 260 0008 0D46     		mov	r5, r1	@ Button_Mode, Button_Mode
 261              		.loc 1 199 0
 262 000a 0146     		mov	r1, r0	@,
 263              	.LVL12:
 264 000c FFF7FEFF 		bl	RCC_AHB1PeriphClockCmd	@
 265              	.LVL13:
 200:stm32f4_discovery.c ****   RCC_APB2PeriphClockCmd(RCC_APB2Periph_SYSCFG, ENABLE);
 266              		.loc 1 200 0
 267 0010 0121     		movs	r1, #1	@,
 268 0012 4FF48040 		mov	r0, #16384	@,
 269 0016 FFF7FEFF 		bl	RCC_APB2PeriphClockCmd	@
 270              	.LVL14:
 201:stm32f4_discovery.c **** 
 202:stm32f4_discovery.c ****   /* Configure Button pin as input */
 203:stm32f4_discovery.c ****   GPIO_InitStructure.GPIO_Mode = GPIO_Mode_IN;
 204:stm32f4_discovery.c ****   GPIO_InitStructure.GPIO_PuPd = GPIO_PuPd_NOPULL;
 205:stm32f4_discovery.c ****   GPIO_InitStructure.GPIO_Pin = BUTTON_PIN[Button];
 271              		.loc 1 205 0
 272 001a 06A9     		add	r1, sp, #24	@ tmp144,,
 206:stm32f4_discovery.c ****   GPIO_Init(BUTTON_PORT[Button], &GPIO_InitStructure);
 273              		.loc 1 206 0
 274 001c 1648     		ldr	r0, .L16	@ tmp143,
 205:stm32f4_discovery.c ****   GPIO_InitStructure.GPIO_Pin = BUTTON_PIN[Button];
 275              		.loc 1 205 0
 276 001e 0123     		movs	r3, #1	@ tmp142,
 203:stm32f4_discovery.c ****   GPIO_InitStructure.GPIO_Mode = GPIO_Mode_IN;
 277              		.loc 1 203 0
 278 0020 0024     		movs	r4, #0	@ tmp138,
 205:stm32f4_discovery.c ****   GPIO_InitStructure.GPIO_Pin = BUTTON_PIN[Button];
 279              		.loc 1 205 0
 280 0022 41F8103D 		str	r3, [r1, #-16]!	@ tmp142, GPIO_InitStructure.GPIO_Pin
 281              		.loc 1 206 0
 282 0026 50F82600 		ldr	r0, [r0, r6, lsl #2]	@, BUTTON_PORT
 203:stm32f4_discovery.c ****   GPIO_InitStructure.GPIO_Mode = GPIO_Mode_IN;
 283              		.loc 1 203 0
 284 002a 8DF80C40 		strb	r4, [sp, #12]	@ tmp138, GPIO_InitStructure.GPIO_Mode
 204:stm32f4_discovery.c ****   GPIO_InitStructure.GPIO_PuPd = GPIO_PuPd_NOPULL;
 285              		.loc 1 204 0
 286 002e 8DF80F40 		strb	r4, [sp, #15]	@ tmp138, GPIO_InitStructure.GPIO_PuPd
 287              		.loc 1 206 0
 288 0032 FFF7FEFF 		bl	GPIO_Init	@
 289              	.LVL15:
 207:stm32f4_discovery.c **** 
 208:stm32f4_discovery.c ****   if (Button_Mode == BUTTON_MODE_EXTI)
ARM GAS  /tmp/ccXwW9Zw.s 			page 10


 290              		.loc 1 208 0
 291 0036 012D     		cmp	r5, #1	@ Button_Mode,
 292 0038 1BD1     		bne	.L13	@,
 209:stm32f4_discovery.c ****   {
 210:stm32f4_discovery.c ****     /* Connect Button EXTI Line to Button GPIO Pin */
 211:stm32f4_discovery.c ****     SYSCFG_EXTILineConfig(BUTTON_PORT_SOURCE[Button], BUTTON_PIN_SOURCE[Button]);
 293              		.loc 1 211 0
 294 003a 2046     		mov	r0, r4	@, tmp138
 295 003c 2146     		mov	r1, r4	@, tmp138
 296 003e FFF7FEFF 		bl	SYSCFG_EXTILineConfig	@
 297              	.LVL16:
 212:stm32f4_discovery.c **** 
 213:stm32f4_discovery.c ****     /* Configure Button EXTI line */
 214:stm32f4_discovery.c ****     EXTI_InitStructure.EXTI_Line = BUTTON_EXTI_LINE[Button];
 215:stm32f4_discovery.c ****     EXTI_InitStructure.EXTI_Mode = EXTI_Mode_Interrupt;
 216:stm32f4_discovery.c ****     EXTI_InitStructure.EXTI_Trigger = EXTI_Trigger_Rising;
 298              		.loc 1 216 0
 299 0042 0821     		movs	r1, #8	@ tmp148,
 217:stm32f4_discovery.c ****     EXTI_InitStructure.EXTI_LineCmd = ENABLE;
 218:stm32f4_discovery.c ****     EXTI_Init(&EXTI_InitStructure);
 300              		.loc 1 218 0
 301 0044 04A8     		add	r0, sp, #16	@,,
 214:stm32f4_discovery.c ****     EXTI_InitStructure.EXTI_Line = BUTTON_EXTI_LINE[Button];
 302              		.loc 1 214 0
 303 0046 0495     		str	r5, [sp, #16]	@ Button_Mode, EXTI_InitStructure.EXTI_Line
 215:stm32f4_discovery.c ****     EXTI_InitStructure.EXTI_Mode = EXTI_Mode_Interrupt;
 304              		.loc 1 215 0
 305 0048 8DF81440 		strb	r4, [sp, #20]	@ tmp138, EXTI_InitStructure.EXTI_Mode
 216:stm32f4_discovery.c ****     EXTI_InitStructure.EXTI_Trigger = EXTI_Trigger_Rising;
 306              		.loc 1 216 0
 307 004c 8DF81510 		strb	r1, [sp, #21]	@ tmp148, EXTI_InitStructure.EXTI_Trigger
 217:stm32f4_discovery.c ****     EXTI_InitStructure.EXTI_LineCmd = ENABLE;
 308              		.loc 1 217 0
 309 0050 8DF81650 		strb	r5, [sp, #22]	@ Button_Mode, EXTI_InitStructure.EXTI_LineCmd
 310              		.loc 1 218 0
 311 0054 FFF7FEFF 		bl	EXTI_Init	@
 312              	.LVL17:
 219:stm32f4_discovery.c **** 
 220:stm32f4_discovery.c ****     /* Enable and set Button EXTI Interrupt to the lowest priority */
 221:stm32f4_discovery.c ****     NVIC_InitStructure.NVIC_IRQChannel = BUTTON_IRQn[Button];
 222:stm32f4_discovery.c ****     NVIC_InitStructure.NVIC_IRQChannelPreemptionPriority = 0x0F;
 313              		.loc 1 222 0
 314 0058 0F23     		movs	r3, #15	@ tmp155,
 221:stm32f4_discovery.c ****     NVIC_InitStructure.NVIC_IRQChannel = BUTTON_IRQn[Button];
 315              		.loc 1 221 0
 316 005a 0622     		movs	r2, #6	@ tmp153,
 223:stm32f4_discovery.c ****     NVIC_InitStructure.NVIC_IRQChannelSubPriority = 0x0F;
 224:stm32f4_discovery.c ****     NVIC_InitStructure.NVIC_IRQChannelCmd = ENABLE;
 225:stm32f4_discovery.c **** 
 226:stm32f4_discovery.c ****     NVIC_Init(&NVIC_InitStructure);
 317              		.loc 1 226 0
 318 005c 01A8     		add	r0, sp, #4	@,,
 221:stm32f4_discovery.c ****     NVIC_InitStructure.NVIC_IRQChannel = BUTTON_IRQn[Button];
 319              		.loc 1 221 0
 320 005e 8DF80420 		strb	r2, [sp, #4]	@ tmp153, NVIC_InitStructure.NVIC_IRQChannel
 222:stm32f4_discovery.c ****     NVIC_InitStructure.NVIC_IRQChannelPreemptionPriority = 0x0F;
 321              		.loc 1 222 0
ARM GAS  /tmp/ccXwW9Zw.s 			page 11


 322 0062 8DF80530 		strb	r3, [sp, #5]	@ tmp155, NVIC_InitStructure.NVIC_IRQChannelPreemptionPriority
 223:stm32f4_discovery.c ****     NVIC_InitStructure.NVIC_IRQChannelSubPriority = 0x0F;
 323              		.loc 1 223 0
 324 0066 8DF80630 		strb	r3, [sp, #6]	@ tmp155, NVIC_InitStructure.NVIC_IRQChannelSubPriority
 224:stm32f4_discovery.c ****     NVIC_InitStructure.NVIC_IRQChannelCmd = ENABLE;
 325              		.loc 1 224 0
 326 006a 8DF80750 		strb	r5, [sp, #7]	@ Button_Mode, NVIC_InitStructure.NVIC_IRQChannelCmd
 327              		.loc 1 226 0
 328 006e FFF7FEFF 		bl	NVIC_Init	@
 329              	.LVL18:
 330              	.L13:
 227:stm32f4_discovery.c ****   }
 228:stm32f4_discovery.c **** }
 331              		.loc 1 228 0
 332 0072 06B0     		add	sp, sp, #24	@,,
 333 0074 70BD     		pop	{r4, r5, r6, pc}
 334              	.L17:
 335 0076 00BF     		.align	2
 336              	.L16:
 337 0078 00000000 		.word	.LANCHOR3
 338              		.cfi_endproc
 339              	.LFE114:
 340              		.size	STM_EVAL_PBInit, .-STM_EVAL_PBInit
 341              		.section	.text.STM_EVAL_PBGetState,"ax",%progbits
 342              		.align	1
 343              		.global	STM_EVAL_PBGetState
 344              		.thumb
 345              		.thumb_func
 346              		.type	STM_EVAL_PBGetState, %function
 347              	STM_EVAL_PBGetState:
 348              	.LFB115:
 229:stm32f4_discovery.c **** 
 230:stm32f4_discovery.c **** /**
 231:stm32f4_discovery.c ****   * @brief  Returns the selected Button state.
 232:stm32f4_discovery.c ****   * @param  Button: Specifies the Button to be checked.
 233:stm32f4_discovery.c ****   *   This parameter should be: BUTTON_USER
 234:stm32f4_discovery.c ****   * @retval The Button GPIO pin value.
 235:stm32f4_discovery.c ****   */
 236:stm32f4_discovery.c **** uint32_t STM_EVAL_PBGetState(Button_TypeDef Button)
 237:stm32f4_discovery.c **** {
 349              		.loc 1 237 0
 350              		.cfi_startproc
 351              		@ args = 0, pretend = 0, frame = 0
 352              		@ frame_needed = 0, uses_anonymous_args = 0
 353              	.LVL19:
 354 0000 08B5     		push	{r3, lr}	@
 355              	.LCFI3:
 356              		.cfi_def_cfa_offset 8
 357              		.cfi_offset 3, -8
 358              		.cfi_offset 14, -4
 238:stm32f4_discovery.c ****   return GPIO_ReadInputDataBit(BUTTON_PORT[Button], BUTTON_PIN[Button]);
 359              		.loc 1 238 0
 360 0002 034B     		ldr	r3, .L19	@ tmp140,
 361 0004 0121     		movs	r1, #1	@,
 362 0006 53F82000 		ldr	r0, [r3, r0, lsl #2]	@, BUTTON_PORT
 363              	.LVL20:
 364 000a FFF7FEFF 		bl	GPIO_ReadInputDataBit	@
ARM GAS  /tmp/ccXwW9Zw.s 			page 12


 365              	.LVL21:
 239:stm32f4_discovery.c **** }
 366              		.loc 1 239 0
 367 000e 08BD     		pop	{r3, pc}	@
 368              	.L20:
 369              		.align	2
 370              	.L19:
 371 0010 00000000 		.word	.LANCHOR3
 372              		.cfi_endproc
 373              	.LFE115:
 374              		.size	STM_EVAL_PBGetState, .-STM_EVAL_PBGetState
 375              		.section	.text.SD_LowLevel_DeInit,"ax",%progbits
 376              		.align	1
 377              		.global	SD_LowLevel_DeInit
 378              		.thumb
 379              		.thumb_func
 380              		.type	SD_LowLevel_DeInit, %function
 381              	SD_LowLevel_DeInit:
 382              	.LFB116:
 240:stm32f4_discovery.c **** 
 241:stm32f4_discovery.c **** /**
 242:stm32f4_discovery.c ****   * @}
 243:stm32f4_discovery.c ****   */
 244:stm32f4_discovery.c **** 
 245:stm32f4_discovery.c **** /**
 246:stm32f4_discovery.c ****   * @brief  DeInitializes the SDIO interface.
 247:stm32f4_discovery.c ****   * @param  None
 248:stm32f4_discovery.c ****   * @retval None
 249:stm32f4_discovery.c ****   */
 250:stm32f4_discovery.c **** void SD_LowLevel_DeInit(void)
 251:stm32f4_discovery.c **** {
 383              		.loc 1 251 0
 384              		.cfi_startproc
 385              		@ args = 0, pretend = 0, frame = 8
 386              		@ frame_needed = 0, uses_anonymous_args = 0
 387 0000 37B5     		push	{r0, r1, r2, r4, r5, lr}	@
 388              	.LCFI4:
 389              		.cfi_def_cfa_offset 24
 390              		.cfi_offset 0, -24
 391              		.cfi_offset 1, -20
 392              		.cfi_offset 2, -16
 393              		.cfi_offset 4, -12
 394              		.cfi_offset 5, -8
 395              		.cfi_offset 14, -4
 252:stm32f4_discovery.c ****   GPIO_InitTypeDef  GPIO_InitStructure;
 253:stm32f4_discovery.c **** 
 254:stm32f4_discovery.c ****   /*!< Disable SDIO Clock */
 255:stm32f4_discovery.c ****   SDIO_ClockCmd(DISABLE);
 396              		.loc 1 255 0
 397 0002 0020     		movs	r0, #0	@,
 256:stm32f4_discovery.c **** 
 257:stm32f4_discovery.c ****   /*!< Set Power State to OFF */
 258:stm32f4_discovery.c ****   SDIO_SetPowerState(SDIO_PowerState_OFF);
 259:stm32f4_discovery.c **** 
 260:stm32f4_discovery.c ****   /*!< DeInitializes the SDIO peripheral */
 261:stm32f4_discovery.c ****   SDIO_DeInit();
 262:stm32f4_discovery.c **** 
ARM GAS  /tmp/ccXwW9Zw.s 			page 13


 263:stm32f4_discovery.c ****   /* Disable the SDIO APB2 Clock */
 264:stm32f4_discovery.c ****   RCC_APB2PeriphClockCmd(RCC_APB2Periph_SDIO, DISABLE);
 265:stm32f4_discovery.c **** 
 266:stm32f4_discovery.c ****   GPIO_PinAFConfig(GPIOC, GPIO_PinSource8, GPIO_AF_MCO);
 398              		.loc 1 266 0
 399 0004 224C     		ldr	r4, .L22	@ tmp134,
 267:stm32f4_discovery.c ****   GPIO_PinAFConfig(GPIOC, GPIO_PinSource9, GPIO_AF_MCO);
 268:stm32f4_discovery.c ****   GPIO_PinAFConfig(GPIOC, GPIO_PinSource10, GPIO_AF_MCO);
 269:stm32f4_discovery.c ****   GPIO_PinAFConfig(GPIOC, GPIO_PinSource11, GPIO_AF_MCO);
 270:stm32f4_discovery.c ****   GPIO_PinAFConfig(GPIOC, GPIO_PinSource12, GPIO_AF_MCO);
 271:stm32f4_discovery.c ****   GPIO_PinAFConfig(GPIOD, GPIO_PinSource2, GPIO_AF_MCO);
 400              		.loc 1 271 0
 401 0006 234D     		ldr	r5, .L22+4	@ tmp139,
 255:stm32f4_discovery.c ****   SDIO_ClockCmd(DISABLE);
 402              		.loc 1 255 0
 403 0008 FFF7FEFF 		bl	SDIO_ClockCmd	@
 404              	.LVL22:
 258:stm32f4_discovery.c ****   SDIO_SetPowerState(SDIO_PowerState_OFF);
 405              		.loc 1 258 0
 406 000c 0020     		movs	r0, #0	@,
 407 000e FFF7FEFF 		bl	SDIO_SetPowerState	@
 408              	.LVL23:
 261:stm32f4_discovery.c ****   SDIO_DeInit();
 409              		.loc 1 261 0
 410 0012 FFF7FEFF 		bl	SDIO_DeInit	@
 411              	.LVL24:
 264:stm32f4_discovery.c ****   RCC_APB2PeriphClockCmd(RCC_APB2Periph_SDIO, DISABLE);
 412              		.loc 1 264 0
 413 0016 0021     		movs	r1, #0	@,
 414 0018 4FF40060 		mov	r0, #2048	@,
 415 001c FFF7FEFF 		bl	RCC_APB2PeriphClockCmd	@
 416              	.LVL25:
 266:stm32f4_discovery.c ****   GPIO_PinAFConfig(GPIOC, GPIO_PinSource8, GPIO_AF_MCO);
 417              		.loc 1 266 0
 418 0020 2046     		mov	r0, r4	@, tmp134
 419 0022 0821     		movs	r1, #8	@,
 420 0024 0022     		movs	r2, #0	@,
 421 0026 FFF7FEFF 		bl	GPIO_PinAFConfig	@
 422              	.LVL26:
 267:stm32f4_discovery.c ****   GPIO_PinAFConfig(GPIOC, GPIO_PinSource9, GPIO_AF_MCO);
 423              		.loc 1 267 0
 424 002a 2046     		mov	r0, r4	@, tmp134
 425 002c 0921     		movs	r1, #9	@,
 426 002e 0022     		movs	r2, #0	@,
 427 0030 FFF7FEFF 		bl	GPIO_PinAFConfig	@
 428              	.LVL27:
 268:stm32f4_discovery.c ****   GPIO_PinAFConfig(GPIOC, GPIO_PinSource10, GPIO_AF_MCO);
 429              		.loc 1 268 0
 430 0034 2046     		mov	r0, r4	@, tmp134
 431 0036 0A21     		movs	r1, #10	@,
 432 0038 0022     		movs	r2, #0	@,
 433 003a FFF7FEFF 		bl	GPIO_PinAFConfig	@
 434              	.LVL28:
 269:stm32f4_discovery.c ****   GPIO_PinAFConfig(GPIOC, GPIO_PinSource11, GPIO_AF_MCO);
 435              		.loc 1 269 0
 436 003e 2046     		mov	r0, r4	@, tmp134
 437 0040 0B21     		movs	r1, #11	@,
ARM GAS  /tmp/ccXwW9Zw.s 			page 14


 438 0042 0022     		movs	r2, #0	@,
 439 0044 FFF7FEFF 		bl	GPIO_PinAFConfig	@
 440              	.LVL29:
 270:stm32f4_discovery.c ****   GPIO_PinAFConfig(GPIOC, GPIO_PinSource12, GPIO_AF_MCO);
 441              		.loc 1 270 0
 442 0048 2046     		mov	r0, r4	@, tmp134
 443 004a 0C21     		movs	r1, #12	@,
 444 004c 0022     		movs	r2, #0	@,
 445 004e FFF7FEFF 		bl	GPIO_PinAFConfig	@
 446              	.LVL30:
 447              		.loc 1 271 0
 448 0052 0022     		movs	r2, #0	@,
 449 0054 2846     		mov	r0, r5	@, tmp139
 450 0056 0221     		movs	r1, #2	@,
 451 0058 FFF7FEFF 		bl	GPIO_PinAFConfig	@
 452              	.LVL31:
 272:stm32f4_discovery.c **** 
 273:stm32f4_discovery.c ****   /* Configure PC.08, PC.09, PC.10, PC.11 pins: D0, D1, D2, D3 pins */
 274:stm32f4_discovery.c ****   GPIO_InitStructure.GPIO_Pin = GPIO_Pin_8 | GPIO_Pin_9 | GPIO_Pin_10 | GPIO_Pin_11;
 275:stm32f4_discovery.c ****   GPIO_InitStructure.GPIO_Mode = GPIO_Mode_IN;
 453              		.loc 1 275 0
 454 005c 0020     		movs	r0, #0	@ tmp141,
 274:stm32f4_discovery.c ****   GPIO_InitStructure.GPIO_Pin = GPIO_Pin_8 | GPIO_Pin_9 | GPIO_Pin_10 | GPIO_Pin_11;
 455              		.loc 1 274 0
 456 005e 4FF47063 		mov	r3, #3840	@ tmp140,
 457              		.loc 1 275 0
 458 0062 8DF80400 		strb	r0, [sp, #4]	@ tmp141, GPIO_InitStructure.GPIO_Mode
 276:stm32f4_discovery.c ****   GPIO_InitStructure.GPIO_PuPd = GPIO_PuPd_NOPULL;
 459              		.loc 1 276 0
 460 0066 8DF80700 		strb	r0, [sp, #7]	@ tmp141, GPIO_InitStructure.GPIO_PuPd
 277:stm32f4_discovery.c ****   GPIO_Init(GPIOC, &GPIO_InitStructure);
 461              		.loc 1 277 0
 462 006a 6946     		mov	r1, sp	@,
 463 006c 2046     		mov	r0, r4	@, tmp134
 274:stm32f4_discovery.c ****   GPIO_InitStructure.GPIO_Pin = GPIO_Pin_8 | GPIO_Pin_9 | GPIO_Pin_10 | GPIO_Pin_11;
 464              		.loc 1 274 0
 465 006e 0093     		str	r3, [sp, #0]	@ tmp140, GPIO_InitStructure.GPIO_Pin
 466              		.loc 1 277 0
 467 0070 FFF7FEFF 		bl	GPIO_Init	@
 468              	.LVL32:
 278:stm32f4_discovery.c **** 
 279:stm32f4_discovery.c ****   /* Configure PD.02 CMD line */
 280:stm32f4_discovery.c ****   GPIO_InitStructure.GPIO_Pin = GPIO_Pin_2;
 469              		.loc 1 280 0
 470 0074 0421     		movs	r1, #4	@ tmp147,
 471 0076 0091     		str	r1, [sp, #0]	@ tmp147, GPIO_InitStructure.GPIO_Pin
 281:stm32f4_discovery.c ****   GPIO_Init(GPIOD, &GPIO_InitStructure);
 472              		.loc 1 281 0
 473 0078 2846     		mov	r0, r5	@, tmp139
 474 007a 6946     		mov	r1, sp	@,
 475 007c FFF7FEFF 		bl	GPIO_Init	@
 476              	.LVL33:
 282:stm32f4_discovery.c **** 
 283:stm32f4_discovery.c ****   /* Configure PC.12 pin: CLK pin */
 284:stm32f4_discovery.c ****   GPIO_InitStructure.GPIO_Pin = GPIO_Pin_12;
 477              		.loc 1 284 0
 478 0080 4FF48052 		mov	r2, #4096	@ tmp150,
ARM GAS  /tmp/ccXwW9Zw.s 			page 15


 285:stm32f4_discovery.c ****   GPIO_Init(GPIOC, &GPIO_InitStructure);
 479              		.loc 1 285 0
 480 0084 2046     		mov	r0, r4	@, tmp134
 481 0086 6946     		mov	r1, sp	@,
 284:stm32f4_discovery.c ****   GPIO_InitStructure.GPIO_Pin = GPIO_Pin_12;
 482              		.loc 1 284 0
 483 0088 0092     		str	r2, [sp, #0]	@ tmp150, GPIO_InitStructure.GPIO_Pin
 484              		.loc 1 285 0
 485 008a FFF7FEFF 		bl	GPIO_Init	@
 486              	.LVL34:
 286:stm32f4_discovery.c **** }
 487              		.loc 1 286 0
 488 008e 3EBD     		pop	{r1, r2, r3, r4, r5, pc}
 489              	.L23:
 490              		.align	2
 491              	.L22:
 492 0090 00080240 		.word	1073874944
 493 0094 000C0240 		.word	1073875968
 494              		.cfi_endproc
 495              	.LFE116:
 496              		.size	SD_LowLevel_DeInit, .-SD_LowLevel_DeInit
 497              		.section	.text.SD_LowLevel_Init,"ax",%progbits
 498              		.align	1
 499              		.global	SD_LowLevel_Init
 500              		.thumb
 501              		.thumb_func
 502              		.type	SD_LowLevel_Init, %function
 503              	SD_LowLevel_Init:
 504              	.LFB117:
 287:stm32f4_discovery.c **** 
 288:stm32f4_discovery.c **** /**
 289:stm32f4_discovery.c ****   * @brief  Initializes the SD Card and put it into StandBy State (Ready for
 290:stm32f4_discovery.c ****   *         data transfer).
 291:stm32f4_discovery.c ****   * @param  None
 292:stm32f4_discovery.c ****   * @retval None
 293:stm32f4_discovery.c ****   */
 294:stm32f4_discovery.c **** void SD_LowLevel_Init(void)
 295:stm32f4_discovery.c **** {
 505              		.loc 1 295 0
 506              		.cfi_startproc
 507              		@ args = 0, pretend = 0, frame = 8
 508              		@ frame_needed = 0, uses_anonymous_args = 0
 509 0000 2DE9F341 		push	{r0, r1, r4, r5, r6, r7, r8, lr}	@
 510              	.LCFI5:
 511              		.cfi_def_cfa_offset 32
 512              		.cfi_offset 0, -32
 513              		.cfi_offset 1, -28
 514              		.cfi_offset 4, -24
 515              		.cfi_offset 5, -20
 516              		.cfi_offset 6, -16
 517              		.cfi_offset 7, -12
 518              		.cfi_offset 8, -8
 519              		.cfi_offset 14, -4
 296:stm32f4_discovery.c ****   GPIO_InitTypeDef  GPIO_InitStructure;
 297:stm32f4_discovery.c **** 
 298:stm32f4_discovery.c ****   /* GPIOC and GPIOD Periph clock enable */
 299:stm32f4_discovery.c ****   RCC_AHB1PeriphClockCmd(RCC_AHB1Periph_GPIOC | RCC_AHB1Periph_GPIOD | SD_DETECT_GPIO_CLK, ENABLE);
ARM GAS  /tmp/ccXwW9Zw.s 			page 16


 300:stm32f4_discovery.c **** 
 301:stm32f4_discovery.c ****   GPIO_PinAFConfig(GPIOC, GPIO_PinSource8, GPIO_AF_SDIO);
 520              		.loc 1 301 0
 521 0004 2E4C     		ldr	r4, .L25	@ tmp134,
 302:stm32f4_discovery.c ****   GPIO_PinAFConfig(GPIOC, GPIO_PinSource9, GPIO_AF_SDIO);
 303:stm32f4_discovery.c ****   GPIO_PinAFConfig(GPIOC, GPIO_PinSource10, GPIO_AF_SDIO);
 304:stm32f4_discovery.c ****   GPIO_PinAFConfig(GPIOC, GPIO_PinSource11, GPIO_AF_SDIO);
 305:stm32f4_discovery.c ****   GPIO_PinAFConfig(GPIOC, GPIO_PinSource12, GPIO_AF_SDIO);
 306:stm32f4_discovery.c ****   GPIO_PinAFConfig(GPIOD, GPIO_PinSource2, GPIO_AF_SDIO);
 522              		.loc 1 306 0
 523 0006 2F4F     		ldr	r7, .L25+4	@ tmp139,
 299:stm32f4_discovery.c ****   RCC_AHB1PeriphClockCmd(RCC_AHB1Periph_GPIOC | RCC_AHB1Periph_GPIOD | SD_DETECT_GPIO_CLK, ENABLE);
 524              		.loc 1 299 0
 525 0008 0C20     		movs	r0, #12	@,
 526 000a 0121     		movs	r1, #1	@,
 527 000c FFF7FEFF 		bl	RCC_AHB1PeriphClockCmd	@
 528              	.LVL35:
 301:stm32f4_discovery.c ****   GPIO_PinAFConfig(GPIOC, GPIO_PinSource8, GPIO_AF_SDIO);
 529              		.loc 1 301 0
 530 0010 2046     		mov	r0, r4	@, tmp134
 531 0012 0821     		movs	r1, #8	@,
 532 0014 0C22     		movs	r2, #12	@,
 533 0016 FFF7FEFF 		bl	GPIO_PinAFConfig	@
 534              	.LVL36:
 302:stm32f4_discovery.c ****   GPIO_PinAFConfig(GPIOC, GPIO_PinSource9, GPIO_AF_SDIO);
 535              		.loc 1 302 0
 536 001a 2046     		mov	r0, r4	@, tmp134
 537 001c 0921     		movs	r1, #9	@,
 538 001e 0C22     		movs	r2, #12	@,
 539 0020 FFF7FEFF 		bl	GPIO_PinAFConfig	@
 540              	.LVL37:
 303:stm32f4_discovery.c ****   GPIO_PinAFConfig(GPIOC, GPIO_PinSource10, GPIO_AF_SDIO);
 541              		.loc 1 303 0
 542 0024 2046     		mov	r0, r4	@, tmp134
 543 0026 0A21     		movs	r1, #10	@,
 544 0028 0C22     		movs	r2, #12	@,
 545 002a FFF7FEFF 		bl	GPIO_PinAFConfig	@
 546              	.LVL38:
 304:stm32f4_discovery.c ****   GPIO_PinAFConfig(GPIOC, GPIO_PinSource11, GPIO_AF_SDIO);
 547              		.loc 1 304 0
 548 002e 2046     		mov	r0, r4	@, tmp134
 549 0030 0B21     		movs	r1, #11	@,
 550 0032 0C22     		movs	r2, #12	@,
 551 0034 FFF7FEFF 		bl	GPIO_PinAFConfig	@
 552              	.LVL39:
 305:stm32f4_discovery.c ****   GPIO_PinAFConfig(GPIOC, GPIO_PinSource12, GPIO_AF_SDIO);
 553              		.loc 1 305 0
 554 0038 0C21     		movs	r1, #12	@,
 555 003a 2046     		mov	r0, r4	@, tmp134
 556 003c 0A46     		mov	r2, r1	@,
 557 003e FFF7FEFF 		bl	GPIO_PinAFConfig	@
 558              	.LVL40:
 559              		.loc 1 306 0
 560 0042 0C22     		movs	r2, #12	@,
 561 0044 3846     		mov	r0, r7	@, tmp139
 562 0046 0221     		movs	r1, #2	@,
 563 0048 FFF7FEFF 		bl	GPIO_PinAFConfig	@
ARM GAS  /tmp/ccXwW9Zw.s 			page 17


 564              	.LVL41:
 307:stm32f4_discovery.c **** 
 308:stm32f4_discovery.c ****   /* Configure PC.08, PC.09, PC.10, PC.11 pins: D0, D1, D2, D3 pins */
 309:stm32f4_discovery.c ****   GPIO_InitStructure.GPIO_Pin = GPIO_Pin_8 | GPIO_Pin_9 | GPIO_Pin_10 | GPIO_Pin_11;
 310:stm32f4_discovery.c ****   GPIO_InitStructure.GPIO_Speed = GPIO_Speed_25MHz;
 311:stm32f4_discovery.c ****   GPIO_InitStructure.GPIO_Mode = GPIO_Mode_AF;
 565              		.loc 1 311 0
 566 004c 0220     		movs	r0, #2	@ tmp143,
 309:stm32f4_discovery.c ****   GPIO_InitStructure.GPIO_Pin = GPIO_Pin_8 | GPIO_Pin_9 | GPIO_Pin_10 | GPIO_Pin_11;
 567              		.loc 1 309 0
 568 004e 4FF47063 		mov	r3, #3840	@ tmp140,
 310:stm32f4_discovery.c ****   GPIO_InitStructure.GPIO_Speed = GPIO_Speed_25MHz;
 569              		.loc 1 310 0
 570 0052 0125     		movs	r5, #1	@ tmp141,
 312:stm32f4_discovery.c ****   GPIO_InitStructure.GPIO_OType = GPIO_OType_PP;
 571              		.loc 1 312 0
 572 0054 0026     		movs	r6, #0	@ tmp145,
 311:stm32f4_discovery.c ****   GPIO_InitStructure.GPIO_Mode = GPIO_Mode_AF;
 573              		.loc 1 311 0
 574 0056 8DF80400 		strb	r0, [sp, #4]	@ tmp143, GPIO_InitStructure.GPIO_Mode
 313:stm32f4_discovery.c ****   GPIO_InitStructure.GPIO_PuPd = GPIO_PuPd_UP;
 314:stm32f4_discovery.c ****   GPIO_Init(GPIOC, &GPIO_InitStructure);
 575              		.loc 1 314 0
 576 005a 6946     		mov	r1, sp	@,
 577 005c 2046     		mov	r0, r4	@, tmp134
 309:stm32f4_discovery.c ****   GPIO_InitStructure.GPIO_Pin = GPIO_Pin_8 | GPIO_Pin_9 | GPIO_Pin_10 | GPIO_Pin_11;
 578              		.loc 1 309 0
 579 005e 0093     		str	r3, [sp, #0]	@ tmp140, GPIO_InitStructure.GPIO_Pin
 315:stm32f4_discovery.c **** 
 316:stm32f4_discovery.c ****   /* Configure PD.02 CMD line */
 317:stm32f4_discovery.c ****   GPIO_InitStructure.GPIO_Pin = GPIO_Pin_2;
 580              		.loc 1 317 0
 581 0060 4FF00408 		mov	r8, #4	@ tmp151,
 310:stm32f4_discovery.c ****   GPIO_InitStructure.GPIO_Speed = GPIO_Speed_25MHz;
 582              		.loc 1 310 0
 583 0064 8DF80550 		strb	r5, [sp, #5]	@ tmp141, GPIO_InitStructure.GPIO_Speed
 312:stm32f4_discovery.c ****   GPIO_InitStructure.GPIO_OType = GPIO_OType_PP;
 584              		.loc 1 312 0
 585 0068 8DF80660 		strb	r6, [sp, #6]	@ tmp145, GPIO_InitStructure.GPIO_OType
 313:stm32f4_discovery.c ****   GPIO_InitStructure.GPIO_PuPd = GPIO_PuPd_UP;
 586              		.loc 1 313 0
 587 006c 8DF80750 		strb	r5, [sp, #7]	@ tmp141, GPIO_InitStructure.GPIO_PuPd
 314:stm32f4_discovery.c ****   GPIO_Init(GPIOC, &GPIO_InitStructure);
 588              		.loc 1 314 0
 589 0070 FFF7FEFF 		bl	GPIO_Init	@
 590              	.LVL42:
 318:stm32f4_discovery.c ****   GPIO_Init(GPIOD, &GPIO_InitStructure);
 591              		.loc 1 318 0
 592 0074 3846     		mov	r0, r7	@, tmp139
 593 0076 6946     		mov	r1, sp	@,
 317:stm32f4_discovery.c ****   GPIO_InitStructure.GPIO_Pin = GPIO_Pin_2;
 594              		.loc 1 317 0
 595 0078 CDF80080 		str	r8, [sp, #0]	@ tmp151, GPIO_InitStructure.GPIO_Pin
 596              		.loc 1 318 0
 597 007c FFF7FEFF 		bl	GPIO_Init	@
 598              	.LVL43:
 319:stm32f4_discovery.c **** 
ARM GAS  /tmp/ccXwW9Zw.s 			page 18


 320:stm32f4_discovery.c ****   /* Configure PC.12 pin: CLK pin */
 321:stm32f4_discovery.c ****   GPIO_InitStructure.GPIO_Pin = GPIO_Pin_12;
 599              		.loc 1 321 0
 600 0080 4FF48051 		mov	r1, #4096	@ tmp154,
 601 0084 0091     		str	r1, [sp, #0]	@ tmp154, GPIO_InitStructure.GPIO_Pin
 322:stm32f4_discovery.c ****   GPIO_InitStructure.GPIO_PuPd = GPIO_PuPd_NOPULL;
 323:stm32f4_discovery.c ****   GPIO_Init(GPIOC, &GPIO_InitStructure);
 602              		.loc 1 323 0
 603 0086 2046     		mov	r0, r4	@, tmp134
 604 0088 6946     		mov	r1, sp	@,
 322:stm32f4_discovery.c ****   GPIO_InitStructure.GPIO_PuPd = GPIO_PuPd_NOPULL;
 605              		.loc 1 322 0
 606 008a 8DF80760 		strb	r6, [sp, #7]	@ tmp145, GPIO_InitStructure.GPIO_PuPd
 607              		.loc 1 323 0
 608 008e FFF7FEFF 		bl	GPIO_Init	@
 609              	.LVL44:
 324:stm32f4_discovery.c **** 
 325:stm32f4_discovery.c ****   /*!< Configure SD_SPI_DETECT_PIN pin: SD Card detect pin */
 326:stm32f4_discovery.c ****   GPIO_InitStructure.GPIO_Pin = SD_DETECT_PIN;
 327:stm32f4_discovery.c ****   GPIO_InitStructure.GPIO_Mode = GPIO_Mode_IN;
 328:stm32f4_discovery.c ****   GPIO_InitStructure.GPIO_PuPd = GPIO_PuPd_UP;
 329:stm32f4_discovery.c ****   GPIO_Init(SD_DETECT_GPIO_PORT, &GPIO_InitStructure);
 610              		.loc 1 329 0
 611 0092 2046     		mov	r0, r4	@, tmp134
 612 0094 6946     		mov	r1, sp	@,
 326:stm32f4_discovery.c ****   GPIO_InitStructure.GPIO_Pin = SD_DETECT_PIN;
 613              		.loc 1 326 0
 614 0096 CDF80080 		str	r8, [sp, #0]	@ tmp151, GPIO_InitStructure.GPIO_Pin
 327:stm32f4_discovery.c ****   GPIO_InitStructure.GPIO_Mode = GPIO_Mode_IN;
 615              		.loc 1 327 0
 616 009a 8DF80460 		strb	r6, [sp, #4]	@ tmp145, GPIO_InitStructure.GPIO_Mode
 328:stm32f4_discovery.c ****   GPIO_InitStructure.GPIO_PuPd = GPIO_PuPd_UP;
 617              		.loc 1 328 0
 618 009e 8DF80750 		strb	r5, [sp, #7]	@ tmp141, GPIO_InitStructure.GPIO_PuPd
 619              		.loc 1 329 0
 620 00a2 FFF7FEFF 		bl	GPIO_Init	@
 621              	.LVL45:
 330:stm32f4_discovery.c **** 
 331:stm32f4_discovery.c ****   /* Enable the SDIO APB2 Clock */
 332:stm32f4_discovery.c ****   RCC_APB2PeriphClockCmd(RCC_APB2Periph_SDIO, ENABLE);
 622              		.loc 1 332 0
 623 00a6 2946     		mov	r1, r5	@, tmp141
 624 00a8 4FF40060 		mov	r0, #2048	@,
 625 00ac FFF7FEFF 		bl	RCC_APB2PeriphClockCmd	@
 626              	.LVL46:
 333:stm32f4_discovery.c **** 
 334:stm32f4_discovery.c ****   /* Enable the DMA2 Clock */
 335:stm32f4_discovery.c ****   RCC_AHB1PeriphClockCmd(SD_SDIO_DMA_CLK, ENABLE);
 627              		.loc 1 335 0
 628 00b0 4FF48000 		mov	r0, #4194304	@,
 629 00b4 2946     		mov	r1, r5	@, tmp141
 630 00b6 FFF7FEFF 		bl	RCC_AHB1PeriphClockCmd	@
 631              	.LVL47:
 336:stm32f4_discovery.c **** }
 632              		.loc 1 336 0
 633 00ba BDE8FC81 		pop	{r2, r3, r4, r5, r6, r7, r8, pc}
 634              	.L26:
ARM GAS  /tmp/ccXwW9Zw.s 			page 19


 635 00be 00BF     		.align	2
 636              	.L25:
 637 00c0 00080240 		.word	1073874944
 638 00c4 000C0240 		.word	1073875968
 639              		.cfi_endproc
 640              	.LFE117:
 641              		.size	SD_LowLevel_Init, .-SD_LowLevel_Init
 642              		.section	.text.SD_LowLevel_DMA_TxConfig,"ax",%progbits
 643              		.align	1
 644              		.global	SD_LowLevel_DMA_TxConfig
 645              		.thumb
 646              		.thumb_func
 647              		.type	SD_LowLevel_DMA_TxConfig, %function
 648              	SD_LowLevel_DMA_TxConfig:
 649              	.LFB118:
 337:stm32f4_discovery.c **** 
 338:stm32f4_discovery.c **** /**
 339:stm32f4_discovery.c ****   * @brief  Configures the DMA2 Channel4 for SDIO Tx request.
 340:stm32f4_discovery.c ****   * @param  BufferSRC: pointer to the source buffer
 341:stm32f4_discovery.c ****   * @param  BufferSize: buffer size
 342:stm32f4_discovery.c ****   * @retval None
 343:stm32f4_discovery.c ****   */
 344:stm32f4_discovery.c **** void SD_LowLevel_DMA_TxConfig(uint32_t *BufferSRC, uint32_t BufferSize)
 345:stm32f4_discovery.c **** {
 650              		.loc 1 345 0
 651              		.cfi_startproc
 652              		@ args = 0, pretend = 0, frame = 64
 653              		@ frame_needed = 0, uses_anonymous_args = 0
 654              	.LVL48:
 655 0000 30B5     		push	{r4, r5, lr}	@
 656              	.LCFI6:
 657              		.cfi_def_cfa_offset 12
 658              		.cfi_offset 4, -12
 659              		.cfi_offset 5, -8
 660              		.cfi_offset 14, -4
 346:stm32f4_discovery.c ****   DMA_InitTypeDef SDDMA_InitStructure;
 347:stm32f4_discovery.c **** 
 348:stm32f4_discovery.c ****   DMA_ClearFlag(SD_SDIO_DMA_STREAM, SD_SDIO_DMA_FLAG_FEIF | SD_SDIO_DMA_FLAG_DMEIF | SD_SDIO_DMA_FL
 661              		.loc 1 348 0
 662 0002 224C     		ldr	r4, .L28	@ tmp137,
 345:stm32f4_discovery.c **** {
 663              		.loc 1 345 0
 664 0004 91B0     		sub	sp, sp, #68	@,,
 665              	.LCFI7:
 666              		.cfi_def_cfa_offset 80
 345:stm32f4_discovery.c **** {
 667              		.loc 1 345 0
 668 0006 0546     		mov	r5, r0	@ BufferSRC, BufferSRC
 669              		.loc 1 348 0
 670 0008 4FF0FA51 		mov	r1, #524288000	@,
 671              	.LVL49:
 672 000c 2046     		mov	r0, r4	@, tmp137
 673              	.LVL50:
 674 000e FFF7FEFF 		bl	DMA_ClearFlag	@
 675              	.LVL51:
 349:stm32f4_discovery.c **** 
 350:stm32f4_discovery.c ****   /* DMA2 Stream3  or Stream6 disable */
ARM GAS  /tmp/ccXwW9Zw.s 			page 20


 351:stm32f4_discovery.c ****   DMA_Cmd(SD_SDIO_DMA_STREAM, DISABLE);
 676              		.loc 1 351 0
 677 0012 0021     		movs	r1, #0	@,
 678 0014 2046     		mov	r0, r4	@, tmp137
 679 0016 FFF7FEFF 		bl	DMA_Cmd	@
 680              	.LVL52:
 352:stm32f4_discovery.c **** 
 353:stm32f4_discovery.c ****   /* DMA2 Stream3  or Stream6 Config */
 354:stm32f4_discovery.c ****   DMA_DeInit(SD_SDIO_DMA_STREAM);
 681              		.loc 1 354 0
 682 001a 2046     		mov	r0, r4	@, tmp137
 683 001c FFF7FEFF 		bl	DMA_DeInit	@
 684              	.LVL53:
 355:stm32f4_discovery.c **** 
 356:stm32f4_discovery.c ****   SDDMA_InitStructure.DMA_Channel = SD_SDIO_DMA_CHANNEL;
 357:stm32f4_discovery.c ****   SDDMA_InitStructure.DMA_PeripheralBaseAddr = (uint32_t)SDIO_FIFO_ADDRESS;
 685              		.loc 1 357 0
 686 0020 1B48     		ldr	r0, .L28+4	@ tmp141,
 358:stm32f4_discovery.c ****   SDDMA_InitStructure.DMA_Memory0BaseAddr = (uint32_t)BufferSRC;
 687              		.loc 1 358 0
 688 0022 0395     		str	r5, [sp, #12]	@ BufferSRC, SDDMA_InitStructure.DMA_Memory0BaseAddr
 359:stm32f4_discovery.c ****   SDDMA_InitStructure.DMA_DIR = DMA_DIR_MemoryToPeripheral;
 689              		.loc 1 359 0
 690 0024 4021     		movs	r1, #64	@ tmp142,
 356:stm32f4_discovery.c ****   SDDMA_InitStructure.DMA_Channel = SD_SDIO_DMA_CHANNEL;
 691              		.loc 1 356 0
 692 0026 4FF00063 		mov	r3, #134217728	@ tmp140,
 693 002a 0193     		str	r3, [sp, #4]	@ tmp140, SDDMA_InitStructure.DMA_Channel
 357:stm32f4_discovery.c ****   SDDMA_InitStructure.DMA_PeripheralBaseAddr = (uint32_t)SDIO_FIFO_ADDRESS;
 694              		.loc 1 357 0
 695 002c 0290     		str	r0, [sp, #8]	@ tmp141, SDDMA_InitStructure.DMA_PeripheralBaseAddr
 360:stm32f4_discovery.c ****   SDDMA_InitStructure.DMA_BufferSize = 0;
 696              		.loc 1 360 0
 697 002e 0023     		movs	r3, #0	@ tmp143,
 359:stm32f4_discovery.c ****   SDDMA_InitStructure.DMA_DIR = DMA_DIR_MemoryToPeripheral;
 698              		.loc 1 359 0
 699 0030 0491     		str	r1, [sp, #16]	@ tmp142, SDDMA_InitStructure.DMA_DIR
 361:stm32f4_discovery.c ****   SDDMA_InitStructure.DMA_PeripheralInc = DMA_PeripheralInc_Disable;
 362:stm32f4_discovery.c ****   SDDMA_InitStructure.DMA_MemoryInc = DMA_MemoryInc_Enable;
 363:stm32f4_discovery.c ****   SDDMA_InitStructure.DMA_PeripheralDataSize = DMA_PeripheralDataSize_Word;
 700              		.loc 1 363 0
 701 0032 4FF48050 		mov	r0, #4096	@ tmp146,
 364:stm32f4_discovery.c ****   SDDMA_InitStructure.DMA_MemoryDataSize = DMA_MemoryDataSize_Word;
 702              		.loc 1 364 0
 703 0036 4FF48041 		mov	r1, #16384	@ tmp147,
 360:stm32f4_discovery.c ****   SDDMA_InitStructure.DMA_BufferSize = 0;
 704              		.loc 1 360 0
 705 003a 0593     		str	r3, [sp, #20]	@ tmp143, SDDMA_InitStructure.DMA_BufferSize
 361:stm32f4_discovery.c ****   SDDMA_InitStructure.DMA_PeripheralInc = DMA_PeripheralInc_Disable;
 706              		.loc 1 361 0
 707 003c 0693     		str	r3, [sp, #24]	@ tmp143, SDDMA_InitStructure.DMA_PeripheralInc
 363:stm32f4_discovery.c ****   SDDMA_InitStructure.DMA_PeripheralDataSize = DMA_PeripheralDataSize_Word;
 708              		.loc 1 363 0
 709 003e 0890     		str	r0, [sp, #32]	@ tmp146, SDDMA_InitStructure.DMA_PeripheralDataSize
 710              		.loc 1 364 0
 711 0040 0991     		str	r1, [sp, #36]	@ tmp147, SDDMA_InitStructure.DMA_MemoryDataSize
 365:stm32f4_discovery.c ****   SDDMA_InitStructure.DMA_Mode = DMA_Mode_Normal;
ARM GAS  /tmp/ccXwW9Zw.s 			page 21


 712              		.loc 1 365 0
 713 0042 0A93     		str	r3, [sp, #40]	@ tmp143, SDDMA_InitStructure.DMA_Mode
 366:stm32f4_discovery.c ****   SDDMA_InitStructure.DMA_Priority = DMA_Priority_VeryHigh;
 367:stm32f4_discovery.c ****   SDDMA_InitStructure.DMA_FIFOMode = DMA_FIFOMode_Enable;
 368:stm32f4_discovery.c ****   SDDMA_InitStructure.DMA_FIFOThreshold = DMA_FIFOThreshold_Full;
 714              		.loc 1 368 0
 715 0044 0320     		movs	r0, #3	@ tmp151,
 362:stm32f4_discovery.c ****   SDDMA_InitStructure.DMA_MemoryInc = DMA_MemoryInc_Enable;
 716              		.loc 1 362 0
 717 0046 4FF48062 		mov	r2, #1024	@ tmp145,
 366:stm32f4_discovery.c ****   SDDMA_InitStructure.DMA_Priority = DMA_Priority_VeryHigh;
 718              		.loc 1 366 0
 719 004a 4FF44033 		mov	r3, #196608	@ tmp149,
 369:stm32f4_discovery.c ****   SDDMA_InitStructure.DMA_MemoryBurst = DMA_MemoryBurst_INC4;
 720              		.loc 1 369 0
 721 004e 4FF40001 		mov	r1, #8388608	@ tmp152,
 362:stm32f4_discovery.c ****   SDDMA_InitStructure.DMA_MemoryInc = DMA_MemoryInc_Enable;
 722              		.loc 1 362 0
 723 0052 0792     		str	r2, [sp, #28]	@ tmp145, SDDMA_InitStructure.DMA_MemoryInc
 366:stm32f4_discovery.c ****   SDDMA_InitStructure.DMA_Priority = DMA_Priority_VeryHigh;
 724              		.loc 1 366 0
 725 0054 0B93     		str	r3, [sp, #44]	@ tmp149, SDDMA_InitStructure.DMA_Priority
 367:stm32f4_discovery.c ****   SDDMA_InitStructure.DMA_FIFOMode = DMA_FIFOMode_Enable;
 726              		.loc 1 367 0
 727 0056 0422     		movs	r2, #4	@ tmp150,
 370:stm32f4_discovery.c ****   SDDMA_InitStructure.DMA_PeripheralBurst = DMA_PeripheralBurst_INC4;
 728              		.loc 1 370 0
 729 0058 4FF40013 		mov	r3, #2097152	@ tmp153,
 368:stm32f4_discovery.c ****   SDDMA_InitStructure.DMA_FIFOThreshold = DMA_FIFOThreshold_Full;
 730              		.loc 1 368 0
 731 005c 0D90     		str	r0, [sp, #52]	@ tmp151, SDDMA_InitStructure.DMA_FIFOThreshold
 369:stm32f4_discovery.c ****   SDDMA_InitStructure.DMA_MemoryBurst = DMA_MemoryBurst_INC4;
 732              		.loc 1 369 0
 733 005e 0E91     		str	r1, [sp, #56]	@ tmp152, SDDMA_InitStructure.DMA_MemoryBurst
 371:stm32f4_discovery.c ****   DMA_Init(SD_SDIO_DMA_STREAM, &SDDMA_InitStructure);
 734              		.loc 1 371 0
 735 0060 2046     		mov	r0, r4	@, tmp137
 736 0062 01A9     		add	r1, sp, #4	@,,
 370:stm32f4_discovery.c ****   SDDMA_InitStructure.DMA_PeripheralBurst = DMA_PeripheralBurst_INC4;
 737              		.loc 1 370 0
 738 0064 0F93     		str	r3, [sp, #60]	@ tmp153, SDDMA_InitStructure.DMA_PeripheralBurst
 367:stm32f4_discovery.c ****   SDDMA_InitStructure.DMA_FIFOMode = DMA_FIFOMode_Enable;
 739              		.loc 1 367 0
 740 0066 0C92     		str	r2, [sp, #48]	@ tmp150, SDDMA_InitStructure.DMA_FIFOMode
 741              		.loc 1 371 0
 742 0068 FFF7FEFF 		bl	DMA_Init	@
 743              	.LVL54:
 372:stm32f4_discovery.c ****   DMA_ITConfig(SD_SDIO_DMA_STREAM, DMA_IT_TC, ENABLE);
 744              		.loc 1 372 0
 745 006c 2046     		mov	r0, r4	@, tmp137
 746 006e 1021     		movs	r1, #16	@,
 747 0070 0122     		movs	r2, #1	@,
 748 0072 FFF7FEFF 		bl	DMA_ITConfig	@
 749              	.LVL55:
 373:stm32f4_discovery.c ****   DMA_FlowControllerConfig(SD_SDIO_DMA_STREAM, DMA_FlowCtrl_Peripheral);
 750              		.loc 1 373 0
 751 0076 2046     		mov	r0, r4	@, tmp137
ARM GAS  /tmp/ccXwW9Zw.s 			page 22


 752 0078 2021     		movs	r1, #32	@,
 753 007a FFF7FEFF 		bl	DMA_FlowControllerConfig	@
 754              	.LVL56:
 374:stm32f4_discovery.c **** 
 375:stm32f4_discovery.c ****   /* DMA2 Stream3  or Stream6 enable */
 376:stm32f4_discovery.c ****   DMA_Cmd(SD_SDIO_DMA_STREAM, ENABLE);
 755              		.loc 1 376 0
 756 007e 2046     		mov	r0, r4	@, tmp137
 757 0080 0121     		movs	r1, #1	@,
 758 0082 FFF7FEFF 		bl	DMA_Cmd	@
 759              	.LVL57:
 377:stm32f4_discovery.c **** 
 378:stm32f4_discovery.c **** }
 760              		.loc 1 378 0
 761 0086 11B0     		add	sp, sp, #68	@,,
 762 0088 30BD     		pop	{r4, r5, pc}
 763              	.L29:
 764 008a 00BF     		.align	2
 765              	.L28:
 766 008c 58640240 		.word	1073898584
 767 0090 802C0140 		.word	1073818752
 768              		.cfi_endproc
 769              	.LFE118:
 770              		.size	SD_LowLevel_DMA_TxConfig, .-SD_LowLevel_DMA_TxConfig
 771              		.section	.text.SD_LowLevel_DMA_RxConfig,"ax",%progbits
 772              		.align	1
 773              		.global	SD_LowLevel_DMA_RxConfig
 774              		.thumb
 775              		.thumb_func
 776              		.type	SD_LowLevel_DMA_RxConfig, %function
 777              	SD_LowLevel_DMA_RxConfig:
 778              	.LFB119:
 379:stm32f4_discovery.c **** 
 380:stm32f4_discovery.c **** /**
 381:stm32f4_discovery.c ****   * @brief  Configures the DMA2 Channel4 for SDIO Rx request.
 382:stm32f4_discovery.c ****   * @param  BufferDST: pointer to the destination buffer
 383:stm32f4_discovery.c ****   * @param  BufferSize: buffer size
 384:stm32f4_discovery.c ****   * @retval None
 385:stm32f4_discovery.c ****   */
 386:stm32f4_discovery.c **** void SD_LowLevel_DMA_RxConfig(uint32_t *BufferDST, uint32_t BufferSize)
 387:stm32f4_discovery.c **** {
 779              		.loc 1 387 0
 780              		.cfi_startproc
 781              		@ args = 0, pretend = 0, frame = 64
 782              		@ frame_needed = 0, uses_anonymous_args = 0
 783              	.LVL58:
 784 0000 30B5     		push	{r4, r5, lr}	@
 785              	.LCFI8:
 786              		.cfi_def_cfa_offset 12
 787              		.cfi_offset 4, -12
 788              		.cfi_offset 5, -8
 789              		.cfi_offset 14, -4
 388:stm32f4_discovery.c ****   DMA_InitTypeDef SDDMA_InitStructure;
 389:stm32f4_discovery.c **** 
 390:stm32f4_discovery.c ****   DMA_ClearFlag(SD_SDIO_DMA_STREAM, SD_SDIO_DMA_FLAG_FEIF | SD_SDIO_DMA_FLAG_DMEIF | SD_SDIO_DMA_FL
 790              		.loc 1 390 0
 791 0002 214C     		ldr	r4, .L31	@ tmp137,
ARM GAS  /tmp/ccXwW9Zw.s 			page 23


 387:stm32f4_discovery.c **** {
 792              		.loc 1 387 0
 793 0004 91B0     		sub	sp, sp, #68	@,,
 794              	.LCFI9:
 795              		.cfi_def_cfa_offset 80
 387:stm32f4_discovery.c **** {
 796              		.loc 1 387 0
 797 0006 0546     		mov	r5, r0	@ BufferDST, BufferDST
 798              		.loc 1 390 0
 799 0008 4FF0FA51 		mov	r1, #524288000	@,
 800              	.LVL59:
 801 000c 2046     		mov	r0, r4	@, tmp137
 802              	.LVL60:
 803 000e FFF7FEFF 		bl	DMA_ClearFlag	@
 804              	.LVL61:
 391:stm32f4_discovery.c **** 
 392:stm32f4_discovery.c ****   /* DMA2 Stream3  or Stream6 disable */
 393:stm32f4_discovery.c ****   DMA_Cmd(SD_SDIO_DMA_STREAM, DISABLE);
 805              		.loc 1 393 0
 806 0012 0021     		movs	r1, #0	@,
 807 0014 2046     		mov	r0, r4	@, tmp137
 808 0016 FFF7FEFF 		bl	DMA_Cmd	@
 809              	.LVL62:
 394:stm32f4_discovery.c **** 
 395:stm32f4_discovery.c ****   /* DMA2 Stream3 or Stream6 Config */
 396:stm32f4_discovery.c ****   DMA_DeInit(SD_SDIO_DMA_STREAM);
 810              		.loc 1 396 0
 811 001a 2046     		mov	r0, r4	@, tmp137
 812 001c FFF7FEFF 		bl	DMA_DeInit	@
 813              	.LVL63:
 397:stm32f4_discovery.c **** 
 398:stm32f4_discovery.c ****   SDDMA_InitStructure.DMA_Channel = SD_SDIO_DMA_CHANNEL;
 399:stm32f4_discovery.c ****   SDDMA_InitStructure.DMA_PeripheralBaseAddr = (uint32_t)SDIO_FIFO_ADDRESS;
 814              		.loc 1 399 0
 815 0020 1A48     		ldr	r0, .L31+4	@ tmp141,
 400:stm32f4_discovery.c ****   SDDMA_InitStructure.DMA_Memory0BaseAddr = (uint32_t)BufferDST;
 816              		.loc 1 400 0
 817 0022 0395     		str	r5, [sp, #12]	@ BufferDST, SDDMA_InitStructure.DMA_Memory0BaseAddr
 401:stm32f4_discovery.c ****   SDDMA_InitStructure.DMA_DIR = DMA_DIR_PeripheralToMemory;
 818              		.loc 1 401 0
 819 0024 0021     		movs	r1, #0	@ tmp142,
 399:stm32f4_discovery.c ****   SDDMA_InitStructure.DMA_PeripheralBaseAddr = (uint32_t)SDIO_FIFO_ADDRESS;
 820              		.loc 1 399 0
 821 0026 0290     		str	r0, [sp, #8]	@ tmp141, SDDMA_InitStructure.DMA_PeripheralBaseAddr
 822              		.loc 1 401 0
 823 0028 0491     		str	r1, [sp, #16]	@ tmp142, SDDMA_InitStructure.DMA_DIR
 402:stm32f4_discovery.c ****   SDDMA_InitStructure.DMA_BufferSize = 0;
 824              		.loc 1 402 0
 825 002a 0591     		str	r1, [sp, #20]	@ tmp142, SDDMA_InitStructure.DMA_BufferSize
 403:stm32f4_discovery.c ****   SDDMA_InitStructure.DMA_PeripheralInc = DMA_PeripheralInc_Disable;
 826              		.loc 1 403 0
 827 002c 0691     		str	r1, [sp, #24]	@ tmp142, SDDMA_InitStructure.DMA_PeripheralInc
 404:stm32f4_discovery.c ****   SDDMA_InitStructure.DMA_MemoryInc = DMA_MemoryInc_Enable;
 405:stm32f4_discovery.c ****   SDDMA_InitStructure.DMA_PeripheralDataSize = DMA_PeripheralDataSize_Word;
 406:stm32f4_discovery.c ****   SDDMA_InitStructure.DMA_MemoryDataSize = DMA_MemoryDataSize_Word;
 407:stm32f4_discovery.c ****   SDDMA_InitStructure.DMA_Mode = DMA_Mode_Normal;
 828              		.loc 1 407 0
ARM GAS  /tmp/ccXwW9Zw.s 			page 24


 829 002e 0A91     		str	r1, [sp, #40]	@ tmp142, SDDMA_InitStructure.DMA_Mode
 398:stm32f4_discovery.c ****   SDDMA_InitStructure.DMA_Channel = SD_SDIO_DMA_CHANNEL;
 830              		.loc 1 398 0
 831 0030 4FF00063 		mov	r3, #134217728	@ tmp140,
 406:stm32f4_discovery.c ****   SDDMA_InitStructure.DMA_MemoryDataSize = DMA_MemoryDataSize_Word;
 832              		.loc 1 406 0
 833 0034 4FF48040 		mov	r0, #16384	@ tmp147,
 408:stm32f4_discovery.c ****   SDDMA_InitStructure.DMA_Priority = DMA_Priority_VeryHigh;
 834              		.loc 1 408 0
 835 0038 4FF44031 		mov	r1, #196608	@ tmp149,
 398:stm32f4_discovery.c ****   SDDMA_InitStructure.DMA_Channel = SD_SDIO_DMA_CHANNEL;
 836              		.loc 1 398 0
 837 003c 0193     		str	r3, [sp, #4]	@ tmp140, SDDMA_InitStructure.DMA_Channel
 406:stm32f4_discovery.c ****   SDDMA_InitStructure.DMA_MemoryDataSize = DMA_MemoryDataSize_Word;
 838              		.loc 1 406 0
 839 003e 0990     		str	r0, [sp, #36]	@ tmp147, SDDMA_InitStructure.DMA_MemoryDataSize
 840              		.loc 1 408 0
 841 0040 0B91     		str	r1, [sp, #44]	@ tmp149, SDDMA_InitStructure.DMA_Priority
 404:stm32f4_discovery.c ****   SDDMA_InitStructure.DMA_MemoryInc = DMA_MemoryInc_Enable;
 842              		.loc 1 404 0
 843 0042 4FF48062 		mov	r2, #1024	@ tmp145,
 405:stm32f4_discovery.c ****   SDDMA_InitStructure.DMA_PeripheralDataSize = DMA_PeripheralDataSize_Word;
 844              		.loc 1 405 0
 845 0046 4FF48053 		mov	r3, #4096	@ tmp146,
 409:stm32f4_discovery.c ****   SDDMA_InitStructure.DMA_FIFOMode = DMA_FIFOMode_Enable;
 410:stm32f4_discovery.c ****   SDDMA_InitStructure.DMA_FIFOThreshold = DMA_FIFOThreshold_Full;
 411:stm32f4_discovery.c ****   SDDMA_InitStructure.DMA_MemoryBurst = DMA_MemoryBurst_INC4;
 846              		.loc 1 411 0
 847 004a 4FF40000 		mov	r0, #8388608	@ tmp152,
 412:stm32f4_discovery.c ****   SDDMA_InitStructure.DMA_PeripheralBurst = DMA_PeripheralBurst_INC4;
 848              		.loc 1 412 0
 849 004e 4FF40011 		mov	r1, #2097152	@ tmp153,
 404:stm32f4_discovery.c ****   SDDMA_InitStructure.DMA_MemoryInc = DMA_MemoryInc_Enable;
 850              		.loc 1 404 0
 851 0052 0792     		str	r2, [sp, #28]	@ tmp145, SDDMA_InitStructure.DMA_MemoryInc
 405:stm32f4_discovery.c ****   SDDMA_InitStructure.DMA_PeripheralDataSize = DMA_PeripheralDataSize_Word;
 852              		.loc 1 405 0
 853 0054 0893     		str	r3, [sp, #32]	@ tmp146, SDDMA_InitStructure.DMA_PeripheralDataSize
 409:stm32f4_discovery.c ****   SDDMA_InitStructure.DMA_FIFOMode = DMA_FIFOMode_Enable;
 854              		.loc 1 409 0
 855 0056 0422     		movs	r2, #4	@ tmp150,
 410:stm32f4_discovery.c ****   SDDMA_InitStructure.DMA_FIFOThreshold = DMA_FIFOThreshold_Full;
 856              		.loc 1 410 0
 857 0058 0323     		movs	r3, #3	@ tmp151,
 411:stm32f4_discovery.c ****   SDDMA_InitStructure.DMA_MemoryBurst = DMA_MemoryBurst_INC4;
 858              		.loc 1 411 0
 859 005a 0E90     		str	r0, [sp, #56]	@ tmp152, SDDMA_InitStructure.DMA_MemoryBurst
 860              		.loc 1 412 0
 861 005c 0F91     		str	r1, [sp, #60]	@ tmp153, SDDMA_InitStructure.DMA_PeripheralBurst
 413:stm32f4_discovery.c ****   DMA_Init(SD_SDIO_DMA_STREAM, &SDDMA_InitStructure);
 862              		.loc 1 413 0
 863 005e 2046     		mov	r0, r4	@, tmp137
 864 0060 01A9     		add	r1, sp, #4	@,,
 410:stm32f4_discovery.c ****   SDDMA_InitStructure.DMA_FIFOThreshold = DMA_FIFOThreshold_Full;
 865              		.loc 1 410 0
 866 0062 0D93     		str	r3, [sp, #52]	@ tmp151, SDDMA_InitStructure.DMA_FIFOThreshold
 409:stm32f4_discovery.c ****   SDDMA_InitStructure.DMA_FIFOMode = DMA_FIFOMode_Enable;
ARM GAS  /tmp/ccXwW9Zw.s 			page 25


 867              		.loc 1 409 0
 868 0064 0C92     		str	r2, [sp, #48]	@ tmp150, SDDMA_InitStructure.DMA_FIFOMode
 869              		.loc 1 413 0
 870 0066 FFF7FEFF 		bl	DMA_Init	@
 871              	.LVL64:
 414:stm32f4_discovery.c ****   DMA_ITConfig(SD_SDIO_DMA_STREAM, DMA_IT_TC, ENABLE);
 872              		.loc 1 414 0
 873 006a 2046     		mov	r0, r4	@, tmp137
 874 006c 1021     		movs	r1, #16	@,
 875 006e 0122     		movs	r2, #1	@,
 876 0070 FFF7FEFF 		bl	DMA_ITConfig	@
 877              	.LVL65:
 415:stm32f4_discovery.c ****   DMA_FlowControllerConfig(SD_SDIO_DMA_STREAM, DMA_FlowCtrl_Peripheral);
 878              		.loc 1 415 0
 879 0074 2046     		mov	r0, r4	@, tmp137
 880 0076 2021     		movs	r1, #32	@,
 881 0078 FFF7FEFF 		bl	DMA_FlowControllerConfig	@
 882              	.LVL66:
 416:stm32f4_discovery.c **** 
 417:stm32f4_discovery.c ****   /* DMA2 Stream3 or Stream6 enable */
 418:stm32f4_discovery.c ****   DMA_Cmd(SD_SDIO_DMA_STREAM, ENABLE);
 883              		.loc 1 418 0
 884 007c 2046     		mov	r0, r4	@, tmp137
 885 007e 0121     		movs	r1, #1	@,
 886 0080 FFF7FEFF 		bl	DMA_Cmd	@
 887              	.LVL67:
 419:stm32f4_discovery.c **** }
 888              		.loc 1 419 0
 889 0084 11B0     		add	sp, sp, #68	@,,
 890 0086 30BD     		pop	{r4, r5, pc}
 891              	.L32:
 892              		.align	2
 893              	.L31:
 894 0088 58640240 		.word	1073898584
 895 008c 802C0140 		.word	1073818752
 896              		.cfi_endproc
 897              	.LFE119:
 898              		.size	SD_LowLevel_DMA_RxConfig, .-SD_LowLevel_DMA_RxConfig
 899              		.comm	NVIC_InitStructure,4,1
 900              		.global	BUTTON_IRQn
 901              		.global	BUTTON_PIN_SOURCE
 902              		.global	BUTTON_PORT_SOURCE
 903              		.global	BUTTON_EXTI_LINE
 904              		.global	BUTTON_CLK
 905              		.global	BUTTON_PIN
 906              		.global	BUTTON_PORT
 907              		.global	GPIO_CLK
 908              		.global	GPIO_PIN
 909              		.global	GPIO_PORT
 910              		.section	.rodata.BUTTON_IRQn,"a",%progbits
 911              		.type	BUTTON_IRQn, %object
 912              		.size	BUTTON_IRQn, 1
 913              	BUTTON_IRQn:
 914 0000 06       		.byte	6
 915              		.section	.data.GPIO_PORT,"aw",%progbits
 916              		.align	2
 917              		.set	.LANCHOR2,. + 0
ARM GAS  /tmp/ccXwW9Zw.s 			page 26


 918              		.type	GPIO_PORT, %object
 919              		.size	GPIO_PORT, 16
 920              	GPIO_PORT:
 921 0000 000C0240 		.word	1073875968
 922 0004 000C0240 		.word	1073875968
 923 0008 000C0240 		.word	1073875968
 924 000c 000C0240 		.word	1073875968
 925              		.section	.rodata.BUTTON_PIN,"a",%progbits
 926              		.align	1
 927              		.type	BUTTON_PIN, %object
 928              		.size	BUTTON_PIN, 2
 929              	BUTTON_PIN:
 930 0000 0100     		.short	1
 931              		.section	.rodata.GPIO_CLK,"a",%progbits
 932              		.align	2
 933              		.set	.LANCHOR0,. + 0
 934              		.type	GPIO_CLK, %object
 935              		.size	GPIO_CLK, 16
 936              	GPIO_CLK:
 937 0000 08000000 		.word	8
 938 0004 08000000 		.word	8
 939 0008 08000000 		.word	8
 940 000c 08000000 		.word	8
 941              		.section	.rodata.GPIO_PIN,"a",%progbits
 942              		.align	1
 943              		.set	.LANCHOR1,. + 0
 944              		.type	GPIO_PIN, %object
 945              		.size	GPIO_PIN, 8
 946              	GPIO_PIN:
 947 0000 0010     		.short	4096
 948 0002 0020     		.short	8192
 949 0004 0040     		.short	16384
 950 0006 0080     		.short	-32768
 951              		.section	.rodata.BUTTON_CLK,"a",%progbits
 952              		.align	2
 953              		.type	BUTTON_CLK, %object
 954              		.size	BUTTON_CLK, 4
 955              	BUTTON_CLK:
 956 0000 01000000 		.word	1
 957              		.section	.rodata.BUTTON_PORT_SOURCE,"a",%progbits
 958              		.type	BUTTON_PORT_SOURCE, %object
 959              		.size	BUTTON_PORT_SOURCE, 1
 960              	BUTTON_PORT_SOURCE:
 961 0000 00       		.space	1
 962              		.section	.data.BUTTON_PORT,"aw",%progbits
 963              		.align	2
 964              		.set	.LANCHOR3,. + 0
 965              		.type	BUTTON_PORT, %object
 966              		.size	BUTTON_PORT, 4
 967              	BUTTON_PORT:
 968 0000 00000240 		.word	1073872896
 969              		.section	.rodata.BUTTON_PIN_SOURCE,"a",%progbits
 970              		.type	BUTTON_PIN_SOURCE, %object
 971              		.size	BUTTON_PIN_SOURCE, 1
 972              	BUTTON_PIN_SOURCE:
 973 0000 00       		.space	1
 974              		.section	.rodata.BUTTON_EXTI_LINE,"a",%progbits
ARM GAS  /tmp/ccXwW9Zw.s 			page 27


 975              		.align	1
 976              		.type	BUTTON_EXTI_LINE, %object
 977              		.size	BUTTON_EXTI_LINE, 2
 978              	BUTTON_EXTI_LINE:
 979 0000 0100     		.short	1
 980              		.text
 981              	.Letext0:
 982              		.file 2 "/usr/bin/../lib/gcc/arm-none-eabi/4.7.4/../../../../arm-none-eabi/include/stdint.h"
 983              		.file 3 "stm32f4xx.h"
 984              		.file 4 "stm32f4xx_dma.h"
 985              		.file 5 "stm32f4xx_gpio.h"
 986              		.file 6 "stm32f4xx_exti.h"
 987              		.file 7 "misc.h"
 988              		.file 8 "stm32f4_discovery.h"
 989              		.file 9 "cmsis/core_cm4.h"
 990              		.file 10 "stm32f4xx_rcc.h"
 991              		.file 11 "stm32f4xx_syscfg.h"
 992              		.file 12 "stm32f4xx_sdio.h"