ARM GAS  /tmp/ccsJ2UrX.s 			page 1


   1              		.syntax unified
   2              		.cpu cortex-m4
   3              		.eabi_attribute 27, 3	@ Tag_ABI_HardFP_use
   4              		.eabi_attribute 28, 1	@ Tag_ABI_VFP_args
   5              		.fpu fpv4-sp-d16
   6              		.eabi_attribute 20, 1	@ Tag_ABI_FP_denormal
   7              		.eabi_attribute 21, 1	@ Tag_ABI_FP_exceptions
   8              		.eabi_attribute 23, 3	@ Tag_ABI_FP_number_model
   9              		.eabi_attribute 24, 1	@ Tag_ABI_align8_needed
  10              		.eabi_attribute 25, 1	@ Tag_ABI_align8_preserved
  11              		.eabi_attribute 26, 1	@ Tag_ABI_enum_size
  12              		.eabi_attribute 30, 4	@ Tag_ABI_optimization_goals
  13              		.eabi_attribute 34, 1	@ Tag_CPU_unaligned_access
  14              		.eabi_attribute 18, 4	@ Tag_ABI_PCS_wchar_t
  15              		.file	"stm32f4xx_it.c"
  16              	@ GNU C (GNU Tools for ARM Embedded Processors) version 4.7.4 20130913 (release) [ARM/embedded-4_7-
  17              	@	compiled by GNU C version 4.7.3, GMP version 5.0.5, MPFR version 3.1.1-p2, MPC version 0.9
  18              	@ GGC heuristics: --param ggc-min-expand=100 --param ggc-min-heapsize=131072
  19              	@ options passed:  -I . -I ../ -I cmsis/ -imultilib armv7e-m/fpu
  20              	@ -iprefix /usr/bin/../lib/gcc/arm-none-eabi/4.7.4/
  21              	@ -isysroot /usr/bin/../arm-none-eabi -MD stm32f4xx_it.d
  22              	@ -MF .dep/stm32f4xx_it.o.d -MP -MQ stm32f4xx_it.o -D__USES_INITFINI__
  23              	@ -D __FPU_USED=1 -D __arm__ -D __ASSEMBLY__ -D USE_STDPERIPH_DRIVER
  24              	@ -D STM32F4XX -D HSE_VALUE=8000000 -D __FPU_PRESENT=1 -D __FPU_USED=1
  25              	@ -D STM32F405VG -D USE_USB_OTG_FS -D RUN_FROM_FLASH=1 stm32f4xx_it.c
  26              	@ -mthumb -mcpu=cortex-m4 -mfloat-abi=hard -mfpu=fpv4-sp-d16 -mthumb
  27              	@ -auxbase-strip stm32f4xx_it.o -gdwarf-2 -Os -Wall -Wstrict-prototypes
  28              	@ -std=gnu99 -falign-functions=16 -fno-inline -fomit-frame-pointer
  29              	@ -fverbose-asm -ffunction-sections -fdata-sections
  30              	@ options enabled:  -fauto-inc-dec -fbranch-count-reg -fcaller-saves
  31              	@ -fcombine-stack-adjustments -fcommon -fcompare-elim -fcprop-registers
  32              	@ -fcrossjumping -fcse-follow-jumps -fdata-sections -fdebug-types-section
  33              	@ -fdefer-pop -fdelete-null-pointer-checks -fdevirtualize -fdwarf2-cfi-asm
  34              	@ -fearly-inlining -feliminate-unused-debug-types -fexpensive-optimizations
  35              	@ -fforward-propagate -ffunction-cse -ffunction-sections -fgcse -fgcse-lm
  36              	@ -fgnu-runtime -fguess-branch-probability -fident -fif-conversion
  37              	@ -fif-conversion2 -findirect-inlining -finline-atomics -finline-functions
  38              	@ -finline-functions-called-once -finline-small-functions -fipa-cp
  39              	@ -fipa-profile -fipa-pure-const -fipa-reference -fipa-sra
  40              	@ -fira-share-save-slots -fira-share-spill-slots -fivopts
  41              	@ -fkeep-static-consts -fleading-underscore -fmath-errno -fmerge-constants
  42              	@ -fmerge-debug-strings -fomit-frame-pointer -foptimize-register-move
  43              	@ -foptimize-sibling-calls -fpartial-inlining -fpeephole -fpeephole2
  44              	@ -fprefetch-loop-arrays -freg-struct-return -fregmove -frename-registers
  45              	@ -freorder-blocks -freorder-functions -frerun-cse-after-loop
  46              	@ -fsched-critical-path-heuristic -fsched-dep-count-heuristic
  47              	@ -fsched-group-heuristic -fsched-interblock -fsched-last-insn-heuristic
  48              	@ -fsched-rank-heuristic -fsched-spec -fsched-spec-insn-heuristic
  49              	@ -fsched-stalled-insns-dep -fschedule-insns2 -fsection-anchors
  50              	@ -fshow-column -fshrink-wrap -fsigned-zeros -fsplit-ivs-in-unroller
  51              	@ -fsplit-wide-types -fstrict-aliasing -fstrict-overflow
  52              	@ -fstrict-volatile-bitfields -fthread-jumps -ftoplevel-reorder
  53              	@ -ftrapping-math -ftree-bit-ccp -ftree-builtin-call-dce -ftree-ccp
  54              	@ -ftree-ch -ftree-copy-prop -ftree-copyrename -ftree-cselim -ftree-dce
  55              	@ -ftree-dominator-opts -ftree-dse -ftree-forwprop -ftree-fre
  56              	@ -ftree-loop-if-convert -ftree-loop-im -ftree-loop-ivcanon
  57              	@ -ftree-loop-optimize -ftree-parallelize-loops= -ftree-phiprop -ftree-pre
ARM GAS  /tmp/ccsJ2UrX.s 			page 2


  58              	@ -ftree-pta -ftree-reassoc -ftree-scev-cprop -ftree-sink
  59              	@ -ftree-slp-vectorize -ftree-sra -ftree-switch-conversion
  60              	@ -ftree-tail-merge -ftree-ter -ftree-vect-loop-version -ftree-vrp
  61              	@ -funit-at-a-time -funroll-loops -fvar-tracking -fvar-tracking-assignments
  62              	@ -fverbose-asm -fweb -fzero-initialized-in-bss -mlittle-endian
  63              	@ -msched-prolog -mthumb -munaligned-access -mvectorize-with-neon-quad
  64              	
  65              		.text
  66              	.Ltext0:
  67              		.cfi_sections	.debug_frame
  68              		.section	.text.NMI_Handler,"ax",%progbits
  69              		.align	1
  70              		.global	NMI_Handler
  71              		.thumb
  72              		.thumb_func
  73              		.type	NMI_Handler, %function
  74              	NMI_Handler:
  75              	.LFB0:
  76              		.file 1 "stm32f4xx_it.c"
   1:stm32f4xx_it.c **** /**
   2:stm32f4xx_it.c ****   ******************************************************************************
   3:stm32f4xx_it.c ****   * @file    stm32f4xx_it.c
   4:stm32f4xx_it.c ****   * @author  MCD Application Team
   5:stm32f4xx_it.c ****   * @version V1.0.0
   6:stm32f4xx_it.c ****   * @date    19-September-2011
   7:stm32f4xx_it.c ****   * @brief   Main Interrupt Service Routines.
   8:stm32f4xx_it.c ****   *          This file provides all exceptions handler and peripherals interrupt
   9:stm32f4xx_it.c ****   *          service routine.
  10:stm32f4xx_it.c ****   ******************************************************************************
  11:stm32f4xx_it.c ****   * @attention
  12:stm32f4xx_it.c ****   *
  13:stm32f4xx_it.c ****   * THE PRESENT FIRMWARE WHICH IS FOR GUIDANCE ONLY AIMS AT PROVIDING CUSTOMERS
  14:stm32f4xx_it.c ****   * WITH CODING INFORMATION REGARDING THEIR PRODUCTS IN ORDER FOR THEM TO SAVE
  15:stm32f4xx_it.c ****   * TIME. AS A RESULT, STMICROELECTRONICS SHALL NOT BE HELD LIABLE FOR ANY
  16:stm32f4xx_it.c ****   * DIRECT, INDIRECT OR CONSEQUENTIAL DAMAGES WITH RESPECT TO ANY CLAIMS ARISING
  17:stm32f4xx_it.c ****   * FROM THE CONTENT OF SUCH FIRMWARE AND/OR THE USE MADE BY CUSTOMERS OF THE
  18:stm32f4xx_it.c ****   * CODING INFORMATION CONTAINED HEREIN IN CONNECTION WITH THEIR PRODUCTS.
  19:stm32f4xx_it.c ****   *
  20:stm32f4xx_it.c ****   * <h2><center>&copy; COPYRIGHT 2011 STMicroelectronics</center></h2>
  21:stm32f4xx_it.c ****   ******************************************************************************
  22:stm32f4xx_it.c ****   */
  23:stm32f4xx_it.c **** 
  24:stm32f4xx_it.c **** /* Includes ------------------------------------------------------------------*/
  25:stm32f4xx_it.c **** #include "stm32f4xx_it.h"
  26:stm32f4xx_it.c **** 
  27:stm32f4xx_it.c **** /* Private typedef -----------------------------------------------------------*/
  28:stm32f4xx_it.c **** /* Private define ------------------------------------------------------------*/
  29:stm32f4xx_it.c **** /* Private macro -------------------------------------------------------------*/
  30:stm32f4xx_it.c **** /* Private variables ---------------------------------------------------------*/
  31:stm32f4xx_it.c **** /* Private function prototypes -----------------------------------------------*/
  32:stm32f4xx_it.c **** 
  33:stm32f4xx_it.c **** /******************************************************************************/
  34:stm32f4xx_it.c **** /*            Cortex-M3 Processor Exceptions Handlers                         */
  35:stm32f4xx_it.c **** /******************************************************************************/
  36:stm32f4xx_it.c **** 
  37:stm32f4xx_it.c **** /**
  38:stm32f4xx_it.c ****   * @brief   This function handles NMI exception.
ARM GAS  /tmp/ccsJ2UrX.s 			page 3


  39:stm32f4xx_it.c ****   * @param  None
  40:stm32f4xx_it.c ****   * @retval None
  41:stm32f4xx_it.c ****   */
  42:stm32f4xx_it.c **** void NMI_Handler(void)
  43:stm32f4xx_it.c **** {
  77              		.loc 1 43 0
  78              		.cfi_startproc
  79              		@ args = 0, pretend = 0, frame = 0
  80              		@ frame_needed = 0, uses_anonymous_args = 0
  81              		@ link register save eliminated.
  82 0000 7047     		bx	lr	@
  83              		.cfi_endproc
  84              	.LFE0:
  85              		.size	NMI_Handler, .-NMI_Handler
  86              		.section	.text.HardFault_Handler,"ax",%progbits
  87              		.align	1
  88              		.global	HardFault_Handler
  89              		.thumb
  90              		.thumb_func
  91              		.type	HardFault_Handler, %function
  92              	HardFault_Handler:
  93              	.LFB1:
  44:stm32f4xx_it.c **** }
  45:stm32f4xx_it.c **** 
  46:stm32f4xx_it.c **** /**
  47:stm32f4xx_it.c ****   * @brief  This function handles Hard Fault exception.
  48:stm32f4xx_it.c ****   * @param  None
  49:stm32f4xx_it.c ****   * @retval None
  50:stm32f4xx_it.c ****   */
  51:stm32f4xx_it.c **** void HardFault_Handler(void)
  52:stm32f4xx_it.c **** {
  94              		.loc 1 52 0
  95              		.cfi_startproc
  96              		@ Volatile: function does not return.
  97              		@ args = 0, pretend = 0, frame = 0
  98              		@ frame_needed = 0, uses_anonymous_args = 0
  99              		@ link register save eliminated.
 100              	.L3:
 101 0000 FEE7     		b	.L3	@
 102              		.cfi_endproc
 103              	.LFE1:
 104              		.size	HardFault_Handler, .-HardFault_Handler
 105              		.section	.text.MemManage_Handler,"ax",%progbits
 106              		.align	1
 107              		.global	MemManage_Handler
 108              		.thumb
 109              		.thumb_func
 110              		.type	MemManage_Handler, %function
 111              	MemManage_Handler:
 112              	.LFB2:
  53:stm32f4xx_it.c ****   /* Go to infinite loop when Hard Fault exception occurs */
  54:stm32f4xx_it.c ****   while (1)
  55:stm32f4xx_it.c ****   {
  56:stm32f4xx_it.c ****   }
  57:stm32f4xx_it.c **** }
  58:stm32f4xx_it.c **** 
  59:stm32f4xx_it.c **** /**
ARM GAS  /tmp/ccsJ2UrX.s 			page 4


  60:stm32f4xx_it.c ****   * @brief  This function handles Memory Manage exception.
  61:stm32f4xx_it.c ****   * @param  None
  62:stm32f4xx_it.c ****   * @retval None
  63:stm32f4xx_it.c ****   */
  64:stm32f4xx_it.c **** void MemManage_Handler(void)
  65:stm32f4xx_it.c **** {
 113              		.loc 1 65 0
 114              		.cfi_startproc
 115              		@ Volatile: function does not return.
 116              		@ args = 0, pretend = 0, frame = 0
 117              		@ frame_needed = 0, uses_anonymous_args = 0
 118              		@ link register save eliminated.
 119              	.L5:
 120 0000 FEE7     		b	.L5	@
 121              		.cfi_endproc
 122              	.LFE2:
 123              		.size	MemManage_Handler, .-MemManage_Handler
 124              		.section	.text.BusFault_Handler,"ax",%progbits
 125              		.align	1
 126              		.global	BusFault_Handler
 127              		.thumb
 128              		.thumb_func
 129              		.type	BusFault_Handler, %function
 130              	BusFault_Handler:
 131              	.LFB3:
  66:stm32f4xx_it.c ****   /* Go to infinite loop when Memory Manage exception occurs */
  67:stm32f4xx_it.c ****   while (1)
  68:stm32f4xx_it.c ****   {
  69:stm32f4xx_it.c ****   }
  70:stm32f4xx_it.c **** }
  71:stm32f4xx_it.c **** 
  72:stm32f4xx_it.c **** /**
  73:stm32f4xx_it.c ****   * @brief  This function handles Bus Fault exception.
  74:stm32f4xx_it.c ****   * @param  None
  75:stm32f4xx_it.c ****   * @retval None
  76:stm32f4xx_it.c ****   */
  77:stm32f4xx_it.c **** void BusFault_Handler(void)
  78:stm32f4xx_it.c **** {
 132              		.loc 1 78 0
 133              		.cfi_startproc
 134              		@ Volatile: function does not return.
 135              		@ args = 0, pretend = 0, frame = 0
 136              		@ frame_needed = 0, uses_anonymous_args = 0
 137              		@ link register save eliminated.
 138              	.L7:
 139 0000 FEE7     		b	.L7	@
 140              		.cfi_endproc
 141              	.LFE3:
 142              		.size	BusFault_Handler, .-BusFault_Handler
 143              		.section	.text.UsageFault_Handler,"ax",%progbits
 144              		.align	1
 145              		.global	UsageFault_Handler
 146              		.thumb
 147              		.thumb_func
 148              		.type	UsageFault_Handler, %function
 149              	UsageFault_Handler:
 150              	.LFB4:
ARM GAS  /tmp/ccsJ2UrX.s 			page 5


  79:stm32f4xx_it.c ****   /* Go to infinite loop when Bus Fault exception occurs */
  80:stm32f4xx_it.c ****   while (1)
  81:stm32f4xx_it.c ****   {
  82:stm32f4xx_it.c ****   }
  83:stm32f4xx_it.c **** }
  84:stm32f4xx_it.c **** 
  85:stm32f4xx_it.c **** /**
  86:stm32f4xx_it.c ****   * @brief  This function handles Usage Fault exception.
  87:stm32f4xx_it.c ****   * @param  None
  88:stm32f4xx_it.c ****   * @retval None
  89:stm32f4xx_it.c ****   */
  90:stm32f4xx_it.c **** void UsageFault_Handler(void)
  91:stm32f4xx_it.c **** {
 151              		.loc 1 91 0
 152              		.cfi_startproc
 153              		@ Volatile: function does not return.
 154              		@ args = 0, pretend = 0, frame = 0
 155              		@ frame_needed = 0, uses_anonymous_args = 0
 156              		@ link register save eliminated.
 157              	.L9:
 158 0000 FEE7     		b	.L9	@
 159              		.cfi_endproc
 160              	.LFE4:
 161              		.size	UsageFault_Handler, .-UsageFault_Handler
 162              		.section	.text.SVC_Handler,"ax",%progbits
 163              		.align	1
 164              		.global	SVC_Handler
 165              		.thumb
 166              		.thumb_func
 167              		.type	SVC_Handler, %function
 168              	SVC_Handler:
 169              	.LFB5:
  92:stm32f4xx_it.c ****   /* Go to infinite loop when Usage Fault exception occurs */
  93:stm32f4xx_it.c ****   while (1)
  94:stm32f4xx_it.c ****   {
  95:stm32f4xx_it.c ****   }
  96:stm32f4xx_it.c **** }
  97:stm32f4xx_it.c **** 
  98:stm32f4xx_it.c **** /**
  99:stm32f4xx_it.c ****   * @brief  This function handles SVCall exception.
 100:stm32f4xx_it.c ****   * @param  None
 101:stm32f4xx_it.c ****   * @retval None
 102:stm32f4xx_it.c ****   */
 103:stm32f4xx_it.c **** void SVC_Handler(void)
 104:stm32f4xx_it.c **** {
 170              		.loc 1 104 0
 171              		.cfi_startproc
 172              		@ args = 0, pretend = 0, frame = 0
 173              		@ frame_needed = 0, uses_anonymous_args = 0
 174              		@ link register save eliminated.
 175 0000 7047     		bx	lr	@
 176              		.cfi_endproc
 177              	.LFE5:
 178              		.size	SVC_Handler, .-SVC_Handler
 179              		.section	.text.DebugMon_Handler,"ax",%progbits
 180              		.align	1
 181              		.global	DebugMon_Handler
ARM GAS  /tmp/ccsJ2UrX.s 			page 6


 182              		.thumb
 183              		.thumb_func
 184              		.type	DebugMon_Handler, %function
 185              	DebugMon_Handler:
 186              	.LFB6:
 105:stm32f4xx_it.c **** }
 106:stm32f4xx_it.c **** 
 107:stm32f4xx_it.c **** /**
 108:stm32f4xx_it.c ****   * @brief  This function handles Debug Monitor exception.
 109:stm32f4xx_it.c ****   * @param  None
 110:stm32f4xx_it.c ****   * @retval None
 111:stm32f4xx_it.c ****   */
 112:stm32f4xx_it.c **** void DebugMon_Handler(void)
 113:stm32f4xx_it.c **** {
 187              		.loc 1 113 0
 188              		.cfi_startproc
 189              		@ args = 0, pretend = 0, frame = 0
 190              		@ frame_needed = 0, uses_anonymous_args = 0
 191              		@ link register save eliminated.
 192 0000 7047     		bx	lr	@
 193              		.cfi_endproc
 194              	.LFE6:
 195              		.size	DebugMon_Handler, .-DebugMon_Handler
 196              		.section	.text.PendSV_Handler,"ax",%progbits
 197              		.align	1
 198              		.global	PendSV_Handler
 199              		.thumb
 200              		.thumb_func
 201              		.type	PendSV_Handler, %function
 202              	PendSV_Handler:
 203              	.LFB7:
 114:stm32f4xx_it.c **** }
 115:stm32f4xx_it.c **** 
 116:stm32f4xx_it.c **** /**
 117:stm32f4xx_it.c ****   * @brief  This function handles PendSVC exception.
 118:stm32f4xx_it.c ****   * @param  None
 119:stm32f4xx_it.c ****   * @retval None
 120:stm32f4xx_it.c ****   */
 121:stm32f4xx_it.c **** void PendSV_Handler(void)
 122:stm32f4xx_it.c **** {
 204              		.loc 1 122 0
 205              		.cfi_startproc
 206              		@ args = 0, pretend = 0, frame = 0
 207              		@ frame_needed = 0, uses_anonymous_args = 0
 208              		@ link register save eliminated.
 209 0000 7047     		bx	lr	@
 210              		.cfi_endproc
 211              	.LFE7:
 212              		.size	PendSV_Handler, .-PendSV_Handler
 213              		.section	.text.SysTick_Handler,"ax",%progbits
 214              		.align	1
 215              		.global	SysTick_Handler
 216              		.thumb
 217              		.thumb_func
 218              		.type	SysTick_Handler, %function
 219              	SysTick_Handler:
 220              	.LFB8:
ARM GAS  /tmp/ccsJ2UrX.s 			page 7


 123:stm32f4xx_it.c **** }
 124:stm32f4xx_it.c **** 
 125:stm32f4xx_it.c **** /**
 126:stm32f4xx_it.c ****   * @brief  This function handles SysTick Handler.
 127:stm32f4xx_it.c ****   * @param  None
 128:stm32f4xx_it.c ****   * @retval None
 129:stm32f4xx_it.c ****   */
 130:stm32f4xx_it.c **** void SysTick_Handler(void)
 131:stm32f4xx_it.c **** {
 221              		.loc 1 131 0
 222              		.cfi_startproc
 223              		@ args = 0, pretend = 0, frame = 0
 224              		@ frame_needed = 0, uses_anonymous_args = 0
 225              		@ link register save eliminated.
 226 0000 7047     		bx	lr	@
 227              		.cfi_endproc
 228              	.LFE8:
 229              		.size	SysTick_Handler, .-SysTick_Handler
 230              		.section	.text.EXTI0_IRQHandler,"ax",%progbits
 231              		.align	1
 232              		.global	EXTI0_IRQHandler
 233              		.thumb
 234              		.thumb_func
 235              		.type	EXTI0_IRQHandler, %function
 236              	EXTI0_IRQHandler:
 237              	.LFB9:
 132:stm32f4xx_it.c **** }
 133:stm32f4xx_it.c **** 
 134:stm32f4xx_it.c **** /******************************************************************************/
 135:stm32f4xx_it.c **** /*                 STM32Fxxx Peripherals Interrupt Handlers                   */
 136:stm32f4xx_it.c **** /*  Add here the Interrupt Handler for the used peripheral(s) (PPP), for the  */
 137:stm32f4xx_it.c **** /*  available peripheral interrupt handler's name please refer to the startup */
 138:stm32f4xx_it.c **** /*  file (startup_stm32fxxx.s).                                               */
 139:stm32f4xx_it.c **** /******************************************************************************/
 140:stm32f4xx_it.c **** 
 141:stm32f4xx_it.c **** /**
 142:stm32f4xx_it.c ****   * @brief  This function handles PPP interrupt request.
 143:stm32f4xx_it.c ****   * @param  None
 144:stm32f4xx_it.c ****   * @retval None
 145:stm32f4xx_it.c ****   */
 146:stm32f4xx_it.c **** /*void PPP_IRQHandler(void)
 147:stm32f4xx_it.c **** {
 148:stm32f4xx_it.c **** }*/
 149:stm32f4xx_it.c **** 
 150:stm32f4xx_it.c **** /**
 151:stm32f4xx_it.c ****   * @brief  This function handles EXTI0_IRQ Handler.
 152:stm32f4xx_it.c ****   * @param  None
 153:stm32f4xx_it.c ****   * @retval None
 154:stm32f4xx_it.c ****   */
 155:stm32f4xx_it.c **** void EXTI0_IRQHandler(void)
 156:stm32f4xx_it.c **** {
 238              		.loc 1 156 0
 239              		.cfi_startproc
 240              		@ args = 0, pretend = 0, frame = 0
 241              		@ frame_needed = 0, uses_anonymous_args = 0
 242              		@ link register save eliminated.
 243 0000 7047     		bx	lr	@
ARM GAS  /tmp/ccsJ2UrX.s 			page 8


 244              		.cfi_endproc
 245              	.LFE9:
 246              		.size	EXTI0_IRQHandler, .-EXTI0_IRQHandler
 247              		.section	.text.OTG_FS_WKUP_IRQHandler,"ax",%progbits
 248              		.align	1
 249              		.global	OTG_FS_WKUP_IRQHandler
 250              		.thumb
 251              		.thumb_func
 252              		.type	OTG_FS_WKUP_IRQHandler, %function
 253              	OTG_FS_WKUP_IRQHandler:
 254              	.LFB10:
 157:stm32f4xx_it.c **** }
 158:stm32f4xx_it.c **** 
 159:stm32f4xx_it.c **** /**
 160:stm32f4xx_it.c ****   * @brief  This function handles EXTI15_10_IRQ Handler.
 161:stm32f4xx_it.c ****   * @param  None
 162:stm32f4xx_it.c ****   * @retval None
 163:stm32f4xx_it.c ****   */
 164:stm32f4xx_it.c **** void OTG_FS_WKUP_IRQHandler(void)
 165:stm32f4xx_it.c **** {
 255              		.loc 1 165 0
 256              		.cfi_startproc
 257              		@ args = 0, pretend = 0, frame = 0
 258              		@ frame_needed = 0, uses_anonymous_args = 0
 259              		@ link register save eliminated.
 260 0000 7047     		bx	lr	@
 261              		.cfi_endproc
 262              	.LFE10:
 263              		.size	OTG_FS_WKUP_IRQHandler, .-OTG_FS_WKUP_IRQHandler
 264              		.section	.text.OTG_FS_IRQHandler,"ax",%progbits
 265              		.align	1
 266              		.global	OTG_FS_IRQHandler
 267              		.thumb
 268              		.thumb_func
 269              		.type	OTG_FS_IRQHandler, %function
 270              	OTG_FS_IRQHandler:
 271              	.LFB11:
 166:stm32f4xx_it.c **** }
 167:stm32f4xx_it.c **** 
 168:stm32f4xx_it.c **** /**
 169:stm32f4xx_it.c ****   * @brief  This function handles OTG_HS Handler.
 170:stm32f4xx_it.c ****   * @param  None
 171:stm32f4xx_it.c ****   * @retval None
 172:stm32f4xx_it.c ****   */
 173:stm32f4xx_it.c **** void OTG_FS_IRQHandler(void)
 174:stm32f4xx_it.c **** {
 272              		.loc 1 174 0
 273              		.cfi_startproc
 274              		@ args = 0, pretend = 0, frame = 0
 275              		@ frame_needed = 0, uses_anonymous_args = 0
 276              		@ link register save eliminated.
 277 0000 7047     		bx	lr	@
 278              		.cfi_endproc
 279              	.LFE11:
 280              		.size	OTG_FS_IRQHandler, .-OTG_FS_IRQHandler
 281              		.text
 282              	.Letext0:
ARM GAS  /tmp/ccsJ2UrX.s 			page 9

