ARM GAS  /tmp/cc69dDoz.s 			page 1


   1              		.syntax unified
   2              		.cpu cortex-m4
   3              		.eabi_attribute 27, 3	@ Tag_ABI_HardFP_use
   4              		.eabi_attribute 28, 1	@ Tag_ABI_VFP_args
   5              		.fpu fpv4-sp-d16
   6              		.eabi_attribute 20, 1	@ Tag_ABI_FP_denormal
   7              		.eabi_attribute 21, 1	@ Tag_ABI_FP_exceptions
   8              		.eabi_attribute 23, 3	@ Tag_ABI_FP_number_model
   9              		.eabi_attribute 24, 1	@ Tag_ABI_align8_needed
  10              		.eabi_attribute 25, 1	@ Tag_ABI_align8_preserved
  11              		.eabi_attribute 26, 1	@ Tag_ABI_enum_size
  12              		.eabi_attribute 30, 4	@ Tag_ABI_optimization_goals
  13              		.eabi_attribute 34, 1	@ Tag_CPU_unaligned_access
  14              		.eabi_attribute 18, 4	@ Tag_ABI_PCS_wchar_t
  15              		.file	"stm32f4xx_rcc.c"
  16              	@ GNU C (GNU Tools for ARM Embedded Processors) version 4.7.4 20130913 (release) [ARM/embedded-4_7-
  17              	@	compiled by GNU C version 4.7.3, GMP version 5.0.5, MPFR version 3.1.1-p2, MPC version 0.9
  18              	@ GGC heuristics: --param ggc-min-expand=100 --param ggc-min-heapsize=131072
  19              	@ options passed:  -I . -I ../ -I cmsis/ -imultilib armv7e-m/fpu
  20              	@ -iprefix /usr/bin/../lib/gcc/arm-none-eabi/4.7.4/
  21              	@ -isysroot /usr/bin/../arm-none-eabi -MD stm32f4xx_rcc.d
  22              	@ -MF .dep/stm32f4xx_rcc.o.d -MP -MQ stm32f4xx_rcc.o -D__USES_INITFINI__
  23              	@ -D __FPU_USED=1 -D __arm__ -D __ASSEMBLY__ -D USE_STDPERIPH_DRIVER
  24              	@ -D STM32F4XX -D HSE_VALUE=8000000 -D __FPU_PRESENT=1 -D __FPU_USED=1
  25              	@ -D STM32F405VG -D USE_USB_OTG_FS -D RUN_FROM_FLASH=1 stm32f4xx_rcc.c
  26              	@ -mthumb -mcpu=cortex-m4 -mfloat-abi=hard -mfpu=fpv4-sp-d16 -mthumb
  27              	@ -auxbase-strip stm32f4xx_rcc.o -gdwarf-2 -Os -Wall -Wstrict-prototypes
  28              	@ -std=gnu99 -falign-functions=16 -fno-inline -fomit-frame-pointer
  29              	@ -fverbose-asm -ffunction-sections -fdata-sections
  30              	@ options enabled:  -fauto-inc-dec -fbranch-count-reg -fcaller-saves
  31              	@ -fcombine-stack-adjustments -fcommon -fcompare-elim -fcprop-registers
  32              	@ -fcrossjumping -fcse-follow-jumps -fdata-sections -fdebug-types-section
  33              	@ -fdefer-pop -fdelete-null-pointer-checks -fdevirtualize -fdwarf2-cfi-asm
  34              	@ -fearly-inlining -feliminate-unused-debug-types -fexpensive-optimizations
  35              	@ -fforward-propagate -ffunction-cse -ffunction-sections -fgcse -fgcse-lm
  36              	@ -fgnu-runtime -fguess-branch-probability -fident -fif-conversion
  37              	@ -fif-conversion2 -findirect-inlining -finline-atomics -finline-functions
  38              	@ -finline-functions-called-once -finline-small-functions -fipa-cp
  39              	@ -fipa-profile -fipa-pure-const -fipa-reference -fipa-sra
  40              	@ -fira-share-save-slots -fira-share-spill-slots -fivopts
  41              	@ -fkeep-static-consts -fleading-underscore -fmath-errno -fmerge-constants
  42              	@ -fmerge-debug-strings -fomit-frame-pointer -foptimize-register-move
  43              	@ -foptimize-sibling-calls -fpartial-inlining -fpeephole -fpeephole2
  44              	@ -fprefetch-loop-arrays -freg-struct-return -fregmove -frename-registers
  45              	@ -freorder-blocks -freorder-functions -frerun-cse-after-loop
  46              	@ -fsched-critical-path-heuristic -fsched-dep-count-heuristic
  47              	@ -fsched-group-heuristic -fsched-interblock -fsched-last-insn-heuristic
  48              	@ -fsched-rank-heuristic -fsched-spec -fsched-spec-insn-heuristic
  49              	@ -fsched-stalled-insns-dep -fschedule-insns2 -fsection-anchors
  50              	@ -fshow-column -fshrink-wrap -fsigned-zeros -fsplit-ivs-in-unroller
  51              	@ -fsplit-wide-types -fstrict-aliasing -fstrict-overflow
  52              	@ -fstrict-volatile-bitfields -fthread-jumps -ftoplevel-reorder
  53              	@ -ftrapping-math -ftree-bit-ccp -ftree-builtin-call-dce -ftree-ccp
  54              	@ -ftree-ch -ftree-copy-prop -ftree-copyrename -ftree-cselim -ftree-dce
  55              	@ -ftree-dominator-opts -ftree-dse -ftree-forwprop -ftree-fre
  56              	@ -ftree-loop-if-convert -ftree-loop-im -ftree-loop-ivcanon
  57              	@ -ftree-loop-optimize -ftree-parallelize-loops= -ftree-phiprop -ftree-pre
ARM GAS  /tmp/cc69dDoz.s 			page 2


  58              	@ -ftree-pta -ftree-reassoc -ftree-scev-cprop -ftree-sink
  59              	@ -ftree-slp-vectorize -ftree-sra -ftree-switch-conversion
  60              	@ -ftree-tail-merge -ftree-ter -ftree-vect-loop-version -ftree-vrp
  61              	@ -funit-at-a-time -funroll-loops -fvar-tracking -fvar-tracking-assignments
  62              	@ -fverbose-asm -fweb -fzero-initialized-in-bss -mlittle-endian
  63              	@ -msched-prolog -mthumb -munaligned-access -mvectorize-with-neon-quad
  64              	
  65              		.text
  66              	.Ltext0:
  67              		.cfi_sections	.debug_frame
  68              		.section	.text.RCC_DeInit,"ax",%progbits
  69              		.align	1
  70              		.global	RCC_DeInit
  71              		.thumb
  72              		.thumb_func
  73              		.type	RCC_DeInit, %function
  74              	RCC_DeInit:
  75              	.LFB110:
  76              		.file 1 "stm32f4xx_rcc.c"
   1:stm32f4xx_rcc.c **** /**
   2:stm32f4xx_rcc.c ****   ******************************************************************************
   3:stm32f4xx_rcc.c ****   * @file    stm32f4xx_rcc.c
   4:stm32f4xx_rcc.c ****   * @author  MCD Application Team
   5:stm32f4xx_rcc.c ****   * @version V1.1.0
   6:stm32f4xx_rcc.c ****   * @date    11-January-2013
   7:stm32f4xx_rcc.c ****   * @brief   This file provides firmware functions to manage the following 
   8:stm32f4xx_rcc.c ****   *          functionalities of the Reset and clock control (RCC) peripheral:
   9:stm32f4xx_rcc.c ****   *           + Internal/external clocks, PLL, CSS and MCO configuration
  10:stm32f4xx_rcc.c ****   *           + System, AHB and APB busses clocks configuration
  11:stm32f4xx_rcc.c ****   *           + Peripheral clocks configuration
  12:stm32f4xx_rcc.c ****   *           + Interrupts and flags management
  13:stm32f4xx_rcc.c ****   *
  14:stm32f4xx_rcc.c ****  @verbatim                
  15:stm32f4xx_rcc.c ****  ===============================================================================
  16:stm32f4xx_rcc.c ****                       ##### RCC specific features #####
  17:stm32f4xx_rcc.c ****  ===============================================================================
  18:stm32f4xx_rcc.c ****     [..]  
  19:stm32f4xx_rcc.c ****       After reset the device is running from Internal High Speed oscillator 
  20:stm32f4xx_rcc.c ****       (HSI 16MHz) with Flash 0 wait state, Flash prefetch buffer, D-Cache 
  21:stm32f4xx_rcc.c ****       and I-Cache are disabled, and all peripherals are off except internal
  22:stm32f4xx_rcc.c ****       SRAM, Flash and JTAG.
  23:stm32f4xx_rcc.c ****       (+) There is no prescaler on High speed (AHB) and Low speed (APB) busses;
  24:stm32f4xx_rcc.c ****           all peripherals mapped on these busses are running at HSI speed.
  25:stm32f4xx_rcc.c ****       (+) The clock for all peripherals is switched off, except the SRAM and FLASH.
  26:stm32f4xx_rcc.c ****       (+) All GPIOs are in input floating state, except the JTAG pins which
  27:stm32f4xx_rcc.c ****           are assigned to be used for debug purpose.
  28:stm32f4xx_rcc.c ****     [..]          
  29:stm32f4xx_rcc.c ****       Once the device started from reset, the user application has to:        
  30:stm32f4xx_rcc.c ****       (+) Configure the clock source to be used to drive the System clock
  31:stm32f4xx_rcc.c ****           (if the application needs higher frequency/performance)
  32:stm32f4xx_rcc.c ****       (+) Configure the System clock frequency and Flash settings  
  33:stm32f4xx_rcc.c ****       (+) Configure the AHB and APB busses prescalers
  34:stm32f4xx_rcc.c ****       (+) Enable the clock for the peripheral(s) to be used
  35:stm32f4xx_rcc.c ****       (+) Configure the clock source(s) for peripherals which clocks are not
  36:stm32f4xx_rcc.c ****           derived from the System clock (I2S, RTC, ADC, USB OTG FS/SDIO/RNG)                       
  37:stm32f4xx_rcc.c ****  @endverbatim    
  38:stm32f4xx_rcc.c ****   ******************************************************************************
ARM GAS  /tmp/cc69dDoz.s 			page 3


  39:stm32f4xx_rcc.c ****   * @attention
  40:stm32f4xx_rcc.c ****   *
  41:stm32f4xx_rcc.c ****   * <h2><center>&copy; COPYRIGHT 2013 STMicroelectronics</center></h2>
  42:stm32f4xx_rcc.c ****   *
  43:stm32f4xx_rcc.c ****   * Licensed under MCD-ST Liberty SW License Agreement V2, (the "License");
  44:stm32f4xx_rcc.c ****   * You may not use this file except in compliance with the License.
  45:stm32f4xx_rcc.c ****   * You may obtain a copy of the License at:
  46:stm32f4xx_rcc.c ****   *
  47:stm32f4xx_rcc.c ****   *        http://www.st.com/software_license_agreement_liberty_v2
  48:stm32f4xx_rcc.c ****   *
  49:stm32f4xx_rcc.c ****   * Unless required by applicable law or agreed to in writing, software 
  50:stm32f4xx_rcc.c ****   * distributed under the License is distributed on an "AS IS" BASIS, 
  51:stm32f4xx_rcc.c ****   * WITHOUT WARRANTIES OR CONDITIONS OF ANY KIND, either express or implied.
  52:stm32f4xx_rcc.c ****   * See the License for the specific language governing permissions and
  53:stm32f4xx_rcc.c ****   * limitations under the License.
  54:stm32f4xx_rcc.c ****   *
  55:stm32f4xx_rcc.c ****   ******************************************************************************
  56:stm32f4xx_rcc.c ****   */
  57:stm32f4xx_rcc.c **** 
  58:stm32f4xx_rcc.c **** /* Includes ------------------------------------------------------------------*/
  59:stm32f4xx_rcc.c **** #include "stm32f4xx_rcc.h"
  60:stm32f4xx_rcc.c **** 
  61:stm32f4xx_rcc.c **** /** @addtogroup STM32F4xx_StdPeriph_Driver
  62:stm32f4xx_rcc.c ****   * @{
  63:stm32f4xx_rcc.c ****   */
  64:stm32f4xx_rcc.c **** 
  65:stm32f4xx_rcc.c **** /** @defgroup RCC 
  66:stm32f4xx_rcc.c ****   * @brief RCC driver modules
  67:stm32f4xx_rcc.c ****   * @{
  68:stm32f4xx_rcc.c ****   */ 
  69:stm32f4xx_rcc.c **** 
  70:stm32f4xx_rcc.c **** /* Private typedef -----------------------------------------------------------*/
  71:stm32f4xx_rcc.c **** /* Private define ------------------------------------------------------------*/
  72:stm32f4xx_rcc.c **** /* ------------ RCC registers bit address in the alias region ----------- */
  73:stm32f4xx_rcc.c **** #define RCC_OFFSET                (RCC_BASE - PERIPH_BASE)
  74:stm32f4xx_rcc.c **** /* --- CR Register ---*/
  75:stm32f4xx_rcc.c **** /* Alias word address of HSION bit */
  76:stm32f4xx_rcc.c **** #define CR_OFFSET                 (RCC_OFFSET + 0x00)
  77:stm32f4xx_rcc.c **** #define HSION_BitNumber           0x00
  78:stm32f4xx_rcc.c **** #define CR_HSION_BB               (PERIPH_BB_BASE + (CR_OFFSET * 32) + (HSION_BitNumber * 4))
  79:stm32f4xx_rcc.c **** /* Alias word address of CSSON bit */
  80:stm32f4xx_rcc.c **** #define CSSON_BitNumber           0x13
  81:stm32f4xx_rcc.c **** #define CR_CSSON_BB               (PERIPH_BB_BASE + (CR_OFFSET * 32) + (CSSON_BitNumber * 4))
  82:stm32f4xx_rcc.c **** /* Alias word address of PLLON bit */
  83:stm32f4xx_rcc.c **** #define PLLON_BitNumber           0x18
  84:stm32f4xx_rcc.c **** #define CR_PLLON_BB               (PERIPH_BB_BASE + (CR_OFFSET * 32) + (PLLON_BitNumber * 4))
  85:stm32f4xx_rcc.c **** /* Alias word address of PLLI2SON bit */
  86:stm32f4xx_rcc.c **** #define PLLI2SON_BitNumber        0x1A
  87:stm32f4xx_rcc.c **** #define CR_PLLI2SON_BB            (PERIPH_BB_BASE + (CR_OFFSET * 32) + (PLLI2SON_BitNumber * 4))
  88:stm32f4xx_rcc.c **** 
  89:stm32f4xx_rcc.c **** /* --- CFGR Register ---*/
  90:stm32f4xx_rcc.c **** /* Alias word address of I2SSRC bit */
  91:stm32f4xx_rcc.c **** #define CFGR_OFFSET               (RCC_OFFSET + 0x08)
  92:stm32f4xx_rcc.c **** #define I2SSRC_BitNumber          0x17
  93:stm32f4xx_rcc.c **** #define CFGR_I2SSRC_BB            (PERIPH_BB_BASE + (CFGR_OFFSET * 32) + (I2SSRC_BitNumber * 4))
  94:stm32f4xx_rcc.c **** 
  95:stm32f4xx_rcc.c **** /* --- BDCR Register ---*/
ARM GAS  /tmp/cc69dDoz.s 			page 4


  96:stm32f4xx_rcc.c **** /* Alias word address of RTCEN bit */
  97:stm32f4xx_rcc.c **** #define BDCR_OFFSET               (RCC_OFFSET + 0x70)
  98:stm32f4xx_rcc.c **** #define RTCEN_BitNumber           0x0F
  99:stm32f4xx_rcc.c **** #define BDCR_RTCEN_BB             (PERIPH_BB_BASE + (BDCR_OFFSET * 32) + (RTCEN_BitNumber * 4))
 100:stm32f4xx_rcc.c **** /* Alias word address of BDRST bit */
 101:stm32f4xx_rcc.c **** #define BDRST_BitNumber           0x10
 102:stm32f4xx_rcc.c **** #define BDCR_BDRST_BB             (PERIPH_BB_BASE + (BDCR_OFFSET * 32) + (BDRST_BitNumber * 4))
 103:stm32f4xx_rcc.c **** 
 104:stm32f4xx_rcc.c **** /* --- CSR Register ---*/
 105:stm32f4xx_rcc.c **** /* Alias word address of LSION bit */
 106:stm32f4xx_rcc.c **** #define CSR_OFFSET                (RCC_OFFSET + 0x74)
 107:stm32f4xx_rcc.c **** #define LSION_BitNumber           0x00
 108:stm32f4xx_rcc.c **** #define CSR_LSION_BB              (PERIPH_BB_BASE + (CSR_OFFSET * 32) + (LSION_BitNumber * 4))
 109:stm32f4xx_rcc.c **** 
 110:stm32f4xx_rcc.c **** /* --- DCKCFGR Register ---*/
 111:stm32f4xx_rcc.c **** /* Alias word address of TIMPRE bit */
 112:stm32f4xx_rcc.c **** #define DCKCFGR_OFFSET            (RCC_OFFSET + 0x8C)
 113:stm32f4xx_rcc.c **** #define TIMPRE_BitNumber          0x18
 114:stm32f4xx_rcc.c **** #define DCKCFGR_TIMPRE_BB         (PERIPH_BB_BASE + (DCKCFGR_OFFSET * 32) + (TIMPRE_BitNumber * 4))
 115:stm32f4xx_rcc.c **** /* ---------------------- RCC registers bit mask ------------------------ */
 116:stm32f4xx_rcc.c **** /* CFGR register bit mask */
 117:stm32f4xx_rcc.c **** #define CFGR_MCO2_RESET_MASK      ((uint32_t)0x07FFFFFF)
 118:stm32f4xx_rcc.c **** #define CFGR_MCO1_RESET_MASK      ((uint32_t)0xF89FFFFF)
 119:stm32f4xx_rcc.c **** 
 120:stm32f4xx_rcc.c **** /* RCC Flag Mask */
 121:stm32f4xx_rcc.c **** #define FLAG_MASK                 ((uint8_t)0x1F)
 122:stm32f4xx_rcc.c **** 
 123:stm32f4xx_rcc.c **** /* CR register byte 3 (Bits[23:16]) base address */
 124:stm32f4xx_rcc.c **** #define CR_BYTE3_ADDRESS          ((uint32_t)0x40023802)
 125:stm32f4xx_rcc.c **** 
 126:stm32f4xx_rcc.c **** /* CIR register byte 2 (Bits[15:8]) base address */
 127:stm32f4xx_rcc.c **** #define CIR_BYTE2_ADDRESS         ((uint32_t)(RCC_BASE + 0x0C + 0x01))
 128:stm32f4xx_rcc.c **** 
 129:stm32f4xx_rcc.c **** /* CIR register byte 3 (Bits[23:16]) base address */
 130:stm32f4xx_rcc.c **** #define CIR_BYTE3_ADDRESS         ((uint32_t)(RCC_BASE + 0x0C + 0x02))
 131:stm32f4xx_rcc.c **** 
 132:stm32f4xx_rcc.c **** /* BDCR register base address */
 133:stm32f4xx_rcc.c **** #define BDCR_ADDRESS              (PERIPH_BASE + BDCR_OFFSET)
 134:stm32f4xx_rcc.c **** 
 135:stm32f4xx_rcc.c **** /* Private macro -------------------------------------------------------------*/
 136:stm32f4xx_rcc.c **** /* Private variables ---------------------------------------------------------*/
 137:stm32f4xx_rcc.c **** static __I uint8_t APBAHBPrescTable[16] = {0, 0, 0, 0, 1, 2, 3, 4, 1, 2, 3, 4, 6, 7, 8, 9};
 138:stm32f4xx_rcc.c **** 
 139:stm32f4xx_rcc.c **** /* Private function prototypes -----------------------------------------------*/
 140:stm32f4xx_rcc.c **** /* Private functions ---------------------------------------------------------*/
 141:stm32f4xx_rcc.c **** 
 142:stm32f4xx_rcc.c **** /** @defgroup RCC_Private_Functions
 143:stm32f4xx_rcc.c ****   * @{
 144:stm32f4xx_rcc.c ****   */ 
 145:stm32f4xx_rcc.c **** 
 146:stm32f4xx_rcc.c **** /** @defgroup RCC_Group1 Internal and external clocks, PLL, CSS and MCO configuration functions
 147:stm32f4xx_rcc.c ****  *  @brief   Internal and external clocks, PLL, CSS and MCO configuration functions 
 148:stm32f4xx_rcc.c ****  *
 149:stm32f4xx_rcc.c **** @verbatim   
 150:stm32f4xx_rcc.c ****  ===================================================================================
 151:stm32f4xx_rcc.c ****  ##### Internal and  external clocks, PLL, CSS and MCO configuration functions #####
 152:stm32f4xx_rcc.c ****  ===================================================================================  
ARM GAS  /tmp/cc69dDoz.s 			page 5


 153:stm32f4xx_rcc.c ****     [..]
 154:stm32f4xx_rcc.c ****       This section provide functions allowing to configure the internal/external clocks,
 155:stm32f4xx_rcc.c ****       PLLs, CSS and MCO pins.
 156:stm32f4xx_rcc.c ****   
 157:stm32f4xx_rcc.c ****       (#) HSI (high-speed internal), 16 MHz factory-trimmed RC used directly or through
 158:stm32f4xx_rcc.c ****           the PLL as System clock source.
 159:stm32f4xx_rcc.c **** 
 160:stm32f4xx_rcc.c ****       (#) LSI (low-speed internal), 32 KHz low consumption RC used as IWDG and/or RTC
 161:stm32f4xx_rcc.c ****           clock source.
 162:stm32f4xx_rcc.c **** 
 163:stm32f4xx_rcc.c ****       (#) HSE (high-speed external), 4 to 26 MHz crystal oscillator used directly or
 164:stm32f4xx_rcc.c ****           through the PLL as System clock source. Can be used also as RTC clock source.
 165:stm32f4xx_rcc.c **** 
 166:stm32f4xx_rcc.c ****       (#) LSE (low-speed external), 32 KHz oscillator used as RTC clock source.   
 167:stm32f4xx_rcc.c **** 
 168:stm32f4xx_rcc.c ****       (#) PLL (clocked by HSI or HSE), featuring two different output clocks:
 169:stm32f4xx_rcc.c ****         (++) The first output is used to generate the high speed system clock (up to 168 MHz)
 170:stm32f4xx_rcc.c ****         (++) The second output is used to generate the clock for the USB OTG FS (48 MHz),
 171:stm32f4xx_rcc.c ****              the random analog generator (<=48 MHz) and the SDIO (<= 48 MHz).
 172:stm32f4xx_rcc.c **** 
 173:stm32f4xx_rcc.c ****       (#) PLLI2S (clocked by HSI or HSE), used to generate an accurate clock to achieve 
 174:stm32f4xx_rcc.c ****           high-quality audio performance on the I2S interface.
 175:stm32f4xx_rcc.c ****   
 176:stm32f4xx_rcc.c ****       (#) CSS (Clock security system), once enable and if a HSE clock failure occurs 
 177:stm32f4xx_rcc.c ****          (HSE used directly or through PLL as System clock source), the System clock
 178:stm32f4xx_rcc.c ****          is automatically switched to HSI and an interrupt is generated if enabled. 
 179:stm32f4xx_rcc.c ****          The interrupt is linked to the Cortex-M4 NMI (Non-Maskable Interrupt) 
 180:stm32f4xx_rcc.c ****          exception vector.   
 181:stm32f4xx_rcc.c **** 
 182:stm32f4xx_rcc.c ****       (#) MCO1 (microcontroller clock output), used to output HSI, LSE, HSE or PLL
 183:stm32f4xx_rcc.c ****           clock (through a configurable prescaler) on PA8 pin.
 184:stm32f4xx_rcc.c **** 
 185:stm32f4xx_rcc.c ****       (#) MCO2 (microcontroller clock output), used to output HSE, PLL, SYSCLK or PLLI2S
 186:stm32f4xx_rcc.c ****           clock (through a configurable prescaler) on PC9 pin.
 187:stm32f4xx_rcc.c ****  @endverbatim
 188:stm32f4xx_rcc.c ****   * @{
 189:stm32f4xx_rcc.c ****   */
 190:stm32f4xx_rcc.c **** 
 191:stm32f4xx_rcc.c **** /**
 192:stm32f4xx_rcc.c ****   * @brief  Resets the RCC clock configuration to the default reset state.
 193:stm32f4xx_rcc.c ****   * @note   The default reset state of the clock configuration is given below:
 194:stm32f4xx_rcc.c ****   *            - HSI ON and used as system clock source
 195:stm32f4xx_rcc.c ****   *            - HSE, PLL and PLLI2S OFF
 196:stm32f4xx_rcc.c ****   *            - AHB, APB1 and APB2 prescaler set to 1.
 197:stm32f4xx_rcc.c ****   *            - CSS, MCO1 and MCO2 OFF
 198:stm32f4xx_rcc.c ****   *            - All interrupts disabled
 199:stm32f4xx_rcc.c ****   * @note   This function doesn't modify the configuration of the
 200:stm32f4xx_rcc.c ****   *            - Peripheral clocks  
 201:stm32f4xx_rcc.c ****   *            - LSI, LSE and RTC clocks 
 202:stm32f4xx_rcc.c ****   * @param  None
 203:stm32f4xx_rcc.c ****   * @retval None
 204:stm32f4xx_rcc.c ****   */
 205:stm32f4xx_rcc.c **** void RCC_DeInit(void)
 206:stm32f4xx_rcc.c **** {
  77              		.loc 1 206 0
  78              		.cfi_startproc
  79              		@ args = 0, pretend = 0, frame = 0
ARM GAS  /tmp/cc69dDoz.s 			page 6


  80              		@ frame_needed = 0, uses_anonymous_args = 0
  81              		@ link register save eliminated.
 207:stm32f4xx_rcc.c ****   /* Set HSION bit */
 208:stm32f4xx_rcc.c ****   RCC->CR |= (uint32_t)0x00000001;
  82              		.loc 1 208 0
  83 0000 0B4B     		ldr	r3, .L2	@ tmp140,
  84 0002 1A68     		ldr	r2, [r3, #0]	@ D.6376, MEM[(struct RCC_TypeDef *)1073887232B].CR
  85 0004 42F00100 		orr	r0, r2, #1	@ D.6377, D.6376,
 209:stm32f4xx_rcc.c **** 
 210:stm32f4xx_rcc.c ****   /* Reset CFGR register */
 211:stm32f4xx_rcc.c ****   RCC->CFGR = 0x00000000;
  86              		.loc 1 211 0
  87 0008 0022     		movs	r2, #0	@ tmp143,
 208:stm32f4xx_rcc.c ****   RCC->CR |= (uint32_t)0x00000001;
  88              		.loc 1 208 0
  89 000a 1860     		str	r0, [r3, #0]	@ D.6377, MEM[(struct RCC_TypeDef *)1073887232B].CR
  90              		.loc 1 211 0
  91 000c 9A60     		str	r2, [r3, #8]	@ tmp143, MEM[(struct RCC_TypeDef *)1073887232B].CFGR
 212:stm32f4xx_rcc.c **** 
 213:stm32f4xx_rcc.c ****   /* Reset HSEON, CSSON, PLLON and PLLI2S bits */
 214:stm32f4xx_rcc.c ****   RCC->CR &= (uint32_t)0xFAF6FFFF;
  92              		.loc 1 214 0
  93 000e 1968     		ldr	r1, [r3, #0]	@ D.6378, MEM[(struct RCC_TypeDef *)1073887232B].CR
  94 0010 21F0A160 		bic	r0, r1, #84410368	@ tmp145, D.6378,
  95 0014 20F48031 		bic	r1, r0, #65536	@ D.6379, tmp145,
  96 0018 1960     		str	r1, [r3, #0]	@ D.6379, MEM[(struct RCC_TypeDef *)1073887232B].CR
 215:stm32f4xx_rcc.c **** 
 216:stm32f4xx_rcc.c ****   /* Reset PLLCFGR register */
 217:stm32f4xx_rcc.c ****   RCC->PLLCFGR = 0x24003010;
  97              		.loc 1 217 0
  98 001a 0648     		ldr	r0, .L2+4	@ tmp148,
 218:stm32f4xx_rcc.c **** 
 219:stm32f4xx_rcc.c ****   /* Reset PLLI2SCFGR register */
 220:stm32f4xx_rcc.c ****   RCC->PLLI2SCFGR = 0x20003000;
  99              		.loc 1 220 0
 100 001c 0649     		ldr	r1, .L2+8	@ tmp150,
 217:stm32f4xx_rcc.c ****   RCC->PLLCFGR = 0x24003010;
 101              		.loc 1 217 0
 102 001e 5860     		str	r0, [r3, #4]	@ tmp148, MEM[(struct RCC_TypeDef *)1073887232B].PLLCFGR
 103              		.loc 1 220 0
 104 0020 C3F88410 		str	r1, [r3, #132]	@ tmp150, MEM[(struct RCC_TypeDef *)1073887232B].PLLI2SCFGR
 221:stm32f4xx_rcc.c **** 
 222:stm32f4xx_rcc.c ****   /* Reset HSEBYP bit */
 223:stm32f4xx_rcc.c ****   RCC->CR &= (uint32_t)0xFFFBFFFF;
 105              		.loc 1 223 0
 106 0024 1868     		ldr	r0, [r3, #0]	@ D.6380, MEM[(struct RCC_TypeDef *)1073887232B].CR
 107 0026 20F48021 		bic	r1, r0, #262144	@ D.6381, D.6380,
 108 002a 1960     		str	r1, [r3, #0]	@ D.6381, MEM[(struct RCC_TypeDef *)1073887232B].CR
 224:stm32f4xx_rcc.c **** 
 225:stm32f4xx_rcc.c ****   /* Disable all interrupts */
 226:stm32f4xx_rcc.c ****   RCC->CIR = 0x00000000;
 109              		.loc 1 226 0
 110 002c DA60     		str	r2, [r3, #12]	@ tmp143, MEM[(struct RCC_TypeDef *)1073887232B].CIR
 111 002e 7047     		bx	lr	@
 112              	.L3:
 113              		.align	2
 114              	.L2:
ARM GAS  /tmp/cc69dDoz.s 			page 7


 115 0030 00380240 		.word	1073887232
 116 0034 10300024 		.word	603992080
 117 0038 00300020 		.word	536883200
 118              		.cfi_endproc
 119              	.LFE110:
 120              		.size	RCC_DeInit, .-RCC_DeInit
 121              		.section	.text.RCC_HSEConfig,"ax",%progbits
 122              		.align	1
 123              		.global	RCC_HSEConfig
 124              		.thumb
 125              		.thumb_func
 126              		.type	RCC_HSEConfig, %function
 127              	RCC_HSEConfig:
 128              	.LFB111:
 227:stm32f4xx_rcc.c **** 
 228:stm32f4xx_rcc.c **** #ifdef STM32F427X 
 229:stm32f4xx_rcc.c ****   /* Disable Timers clock prescalers selection */
 230:stm32f4xx_rcc.c ****   RCC->DCKCFGR = 0x00000000;
 231:stm32f4xx_rcc.c **** #endif /* STM32F427X */ 
 232:stm32f4xx_rcc.c **** 
 233:stm32f4xx_rcc.c **** }
 234:stm32f4xx_rcc.c **** 
 235:stm32f4xx_rcc.c **** /**
 236:stm32f4xx_rcc.c ****   * @brief  Configures the External High Speed oscillator (HSE).
 237:stm32f4xx_rcc.c ****   * @note   After enabling the HSE (RCC_HSE_ON or RCC_HSE_Bypass), the application
 238:stm32f4xx_rcc.c ****   *         software should wait on HSERDY flag to be set indicating that HSE clock
 239:stm32f4xx_rcc.c ****   *         is stable and can be used to clock the PLL and/or system clock.
 240:stm32f4xx_rcc.c ****   * @note   HSE state can not be changed if it is used directly or through the
 241:stm32f4xx_rcc.c ****   *         PLL as system clock. In this case, you have to select another source
 242:stm32f4xx_rcc.c ****   *         of the system clock then change the HSE state (ex. disable it).
 243:stm32f4xx_rcc.c ****   * @note   The HSE is stopped by hardware when entering STOP and STANDBY modes.  
 244:stm32f4xx_rcc.c ****   * @note   This function reset the CSSON bit, so if the Clock security system(CSS)
 245:stm32f4xx_rcc.c ****   *         was previously enabled you have to enable it again after calling this
 246:stm32f4xx_rcc.c ****   *         function.    
 247:stm32f4xx_rcc.c ****   * @param  RCC_HSE: specifies the new state of the HSE.
 248:stm32f4xx_rcc.c ****   *          This parameter can be one of the following values:
 249:stm32f4xx_rcc.c ****   *            @arg RCC_HSE_OFF: turn OFF the HSE oscillator, HSERDY flag goes low after
 250:stm32f4xx_rcc.c ****   *                              6 HSE oscillator clock cycles.
 251:stm32f4xx_rcc.c ****   *            @arg RCC_HSE_ON: turn ON the HSE oscillator
 252:stm32f4xx_rcc.c ****   *            @arg RCC_HSE_Bypass: HSE oscillator bypassed with external clock
 253:stm32f4xx_rcc.c ****   * @retval None
 254:stm32f4xx_rcc.c ****   */
 255:stm32f4xx_rcc.c **** void RCC_HSEConfig(uint8_t RCC_HSE)
 256:stm32f4xx_rcc.c **** {
 129              		.loc 1 256 0
 130              		.cfi_startproc
 131              		@ args = 0, pretend = 0, frame = 0
 132              		@ frame_needed = 0, uses_anonymous_args = 0
 133              		@ link register save eliminated.
 134              	.LVL0:
 257:stm32f4xx_rcc.c ****   /* Check the parameters */
 258:stm32f4xx_rcc.c ****   assert_param(IS_RCC_HSE(RCC_HSE));
 259:stm32f4xx_rcc.c **** 
 260:stm32f4xx_rcc.c ****   /* Reset HSEON and HSEBYP bits before configuring the HSE ------------------*/
 261:stm32f4xx_rcc.c ****   *(__IO uint8_t *) CR_BYTE3_ADDRESS = RCC_HSE_OFF;
 135              		.loc 1 261 0
 136 0000 024B     		ldr	r3, .L5	@ tmp135,
ARM GAS  /tmp/cc69dDoz.s 			page 8


 137 0002 0022     		movs	r2, #0	@ tmp136,
 138 0004 1A70     		strb	r2, [r3, #0]	@ tmp136, MEM[(volatile uint8_t *)1073887234B]
 262:stm32f4xx_rcc.c **** 
 263:stm32f4xx_rcc.c ****   /* Set the new HSE configuration -------------------------------------------*/
 264:stm32f4xx_rcc.c ****   *(__IO uint8_t *) CR_BYTE3_ADDRESS = RCC_HSE;
 139              		.loc 1 264 0
 140 0006 1870     		strb	r0, [r3, #0]	@ RCC_HSE, MEM[(volatile uint8_t *)1073887234B]
 141 0008 7047     		bx	lr	@
 142              	.L6:
 143 000a 00BF     		.align	2
 144              	.L5:
 145 000c 02380240 		.word	1073887234
 146              		.cfi_endproc
 147              	.LFE111:
 148              		.size	RCC_HSEConfig, .-RCC_HSEConfig
 149              		.section	.text.RCC_AdjustHSICalibrationValue,"ax",%progbits
 150              		.align	1
 151              		.global	RCC_AdjustHSICalibrationValue
 152              		.thumb
 153              		.thumb_func
 154              		.type	RCC_AdjustHSICalibrationValue, %function
 155              	RCC_AdjustHSICalibrationValue:
 156              	.LFB113:
 265:stm32f4xx_rcc.c **** }
 266:stm32f4xx_rcc.c **** 
 267:stm32f4xx_rcc.c **** /**
 268:stm32f4xx_rcc.c ****   * @brief  Waits for HSE start-up.
 269:stm32f4xx_rcc.c ****   * @note   This functions waits on HSERDY flag to be set and return SUCCESS if 
 270:stm32f4xx_rcc.c ****   *         this flag is set, otherwise returns ERROR if the timeout is reached 
 271:stm32f4xx_rcc.c ****   *         and this flag is not set. The timeout value is defined by the constant
 272:stm32f4xx_rcc.c ****   *         HSE_STARTUP_TIMEOUT in stm32f4xx.h file. You can tailor it depending
 273:stm32f4xx_rcc.c ****   *         on the HSE crystal used in your application. 
 274:stm32f4xx_rcc.c ****   * @param  None
 275:stm32f4xx_rcc.c ****   * @retval An ErrorStatus enumeration value:
 276:stm32f4xx_rcc.c ****   *          - SUCCESS: HSE oscillator is stable and ready to use
 277:stm32f4xx_rcc.c ****   *          - ERROR: HSE oscillator not yet ready
 278:stm32f4xx_rcc.c ****   */
 279:stm32f4xx_rcc.c **** ErrorStatus RCC_WaitForHSEStartUp(void)
 280:stm32f4xx_rcc.c **** {
 281:stm32f4xx_rcc.c ****   __IO uint32_t startupcounter = 0;
 282:stm32f4xx_rcc.c ****   ErrorStatus status = ERROR;
 283:stm32f4xx_rcc.c ****   FlagStatus hsestatus = RESET;
 284:stm32f4xx_rcc.c ****   /* Wait till HSE is ready and if Time out is reached exit */
 285:stm32f4xx_rcc.c ****   do
 286:stm32f4xx_rcc.c ****   {
 287:stm32f4xx_rcc.c ****     hsestatus = RCC_GetFlagStatus(RCC_FLAG_HSERDY);
 288:stm32f4xx_rcc.c ****     startupcounter++;
 289:stm32f4xx_rcc.c ****   } while((startupcounter != HSE_STARTUP_TIMEOUT) && (hsestatus == RESET));
 290:stm32f4xx_rcc.c **** 
 291:stm32f4xx_rcc.c ****   if (RCC_GetFlagStatus(RCC_FLAG_HSERDY) != RESET)
 292:stm32f4xx_rcc.c ****   {
 293:stm32f4xx_rcc.c ****     status = SUCCESS;
 294:stm32f4xx_rcc.c ****   }
 295:stm32f4xx_rcc.c ****   else
 296:stm32f4xx_rcc.c ****   {
 297:stm32f4xx_rcc.c ****     status = ERROR;
 298:stm32f4xx_rcc.c ****   }
ARM GAS  /tmp/cc69dDoz.s 			page 9


 299:stm32f4xx_rcc.c ****   return (status);
 300:stm32f4xx_rcc.c **** }
 301:stm32f4xx_rcc.c **** 
 302:stm32f4xx_rcc.c **** /**
 303:stm32f4xx_rcc.c ****   * @brief  Adjusts the Internal High Speed oscillator (HSI) calibration value.
 304:stm32f4xx_rcc.c ****   * @note   The calibration is used to compensate for the variations in voltage
 305:stm32f4xx_rcc.c ****   *         and temperature that influence the frequency of the internal HSI RC.
 306:stm32f4xx_rcc.c ****   * @param  HSICalibrationValue: specifies the calibration trimming value.
 307:stm32f4xx_rcc.c ****   *         This parameter must be a number between 0 and 0x1F.
 308:stm32f4xx_rcc.c ****   * @retval None
 309:stm32f4xx_rcc.c ****   */
 310:stm32f4xx_rcc.c **** void RCC_AdjustHSICalibrationValue(uint8_t HSICalibrationValue)
 311:stm32f4xx_rcc.c **** {
 157              		.loc 1 311 0
 158              		.cfi_startproc
 159              		@ args = 0, pretend = 0, frame = 0
 160              		@ frame_needed = 0, uses_anonymous_args = 0
 161              		@ link register save eliminated.
 162              	.LVL1:
 312:stm32f4xx_rcc.c ****   uint32_t tmpreg = 0;
 313:stm32f4xx_rcc.c ****   /* Check the parameters */
 314:stm32f4xx_rcc.c ****   assert_param(IS_RCC_CALIBRATION_VALUE(HSICalibrationValue));
 315:stm32f4xx_rcc.c **** 
 316:stm32f4xx_rcc.c ****   tmpreg = RCC->CR;
 163              		.loc 1 316 0
 164 0000 034B     		ldr	r3, .L8	@ tmp140,
 165 0002 1A68     		ldr	r2, [r3, #0]	@ tmpreg, MEM[(struct RCC_TypeDef *)1073887232B].CR
 166              	.LVL2:
 317:stm32f4xx_rcc.c **** 
 318:stm32f4xx_rcc.c ****   /* Clear HSITRIM[4:0] bits */
 319:stm32f4xx_rcc.c ****   tmpreg &= ~RCC_CR_HSITRIM;
 167              		.loc 1 319 0
 168 0004 22F0F801 		bic	r1, r2, #248	@ tmpreg, tmpreg,
 169              	.LVL3:
 320:stm32f4xx_rcc.c **** 
 321:stm32f4xx_rcc.c ****   /* Set the HSITRIM[4:0] bits according to HSICalibrationValue value */
 322:stm32f4xx_rcc.c ****   tmpreg |= (uint32_t)HSICalibrationValue << 3;
 170              		.loc 1 322 0
 171 0008 41EAC000 		orr	r0, r1, r0, lsl #3	@, tmpreg, tmpreg, HSICalibrationValue,
 172              	.LVL4:
 323:stm32f4xx_rcc.c **** 
 324:stm32f4xx_rcc.c ****   /* Store the new value */
 325:stm32f4xx_rcc.c ****   RCC->CR = tmpreg;
 173              		.loc 1 325 0
 174 000c 1860     		str	r0, [r3, #0]	@ tmpreg, MEM[(struct RCC_TypeDef *)1073887232B].CR
 175 000e 7047     		bx	lr	@
 176              	.L9:
 177              		.align	2
 178              	.L8:
 179 0010 00380240 		.word	1073887232
 180              		.cfi_endproc
 181              	.LFE113:
 182              		.size	RCC_AdjustHSICalibrationValue, .-RCC_AdjustHSICalibrationValue
 183              		.section	.text.RCC_HSICmd,"ax",%progbits
 184              		.align	1
 185              		.global	RCC_HSICmd
 186              		.thumb
ARM GAS  /tmp/cc69dDoz.s 			page 10


 187              		.thumb_func
 188              		.type	RCC_HSICmd, %function
 189              	RCC_HSICmd:
 190              	.LFB114:
 326:stm32f4xx_rcc.c **** }
 327:stm32f4xx_rcc.c **** 
 328:stm32f4xx_rcc.c **** /**
 329:stm32f4xx_rcc.c ****   * @brief  Enables or disables the Internal High Speed oscillator (HSI).
 330:stm32f4xx_rcc.c ****   * @note   The HSI is stopped by hardware when entering STOP and STANDBY modes.
 331:stm32f4xx_rcc.c ****   *         It is used (enabled by hardware) as system clock source after startup
 332:stm32f4xx_rcc.c ****   *         from Reset, wakeup from STOP and STANDBY mode, or in case of failure
 333:stm32f4xx_rcc.c ****   *         of the HSE used directly or indirectly as system clock (if the Clock
 334:stm32f4xx_rcc.c ****   *         Security System CSS is enabled).             
 335:stm32f4xx_rcc.c ****   * @note   HSI can not be stopped if it is used as system clock source. In this case,
 336:stm32f4xx_rcc.c ****   *         you have to select another source of the system clock then stop the HSI.  
 337:stm32f4xx_rcc.c ****   * @note   After enabling the HSI, the application software should wait on HSIRDY
 338:stm32f4xx_rcc.c ****   *         flag to be set indicating that HSI clock is stable and can be used as
 339:stm32f4xx_rcc.c ****   *         system clock source.  
 340:stm32f4xx_rcc.c ****   * @param  NewState: new state of the HSI.
 341:stm32f4xx_rcc.c ****   *          This parameter can be: ENABLE or DISABLE.
 342:stm32f4xx_rcc.c ****   * @note   When the HSI is stopped, HSIRDY flag goes low after 6 HSI oscillator
 343:stm32f4xx_rcc.c ****   *         clock cycles.  
 344:stm32f4xx_rcc.c ****   * @retval None
 345:stm32f4xx_rcc.c ****   */
 346:stm32f4xx_rcc.c **** void RCC_HSICmd(FunctionalState NewState)
 347:stm32f4xx_rcc.c **** {
 191              		.loc 1 347 0
 192              		.cfi_startproc
 193              		@ args = 0, pretend = 0, frame = 0
 194              		@ frame_needed = 0, uses_anonymous_args = 0
 195              		@ link register save eliminated.
 196              	.LVL5:
 348:stm32f4xx_rcc.c ****   /* Check the parameters */
 349:stm32f4xx_rcc.c ****   assert_param(IS_FUNCTIONAL_STATE(NewState));
 350:stm32f4xx_rcc.c **** 
 351:stm32f4xx_rcc.c ****   *(__IO uint32_t *) CR_HSION_BB = (uint32_t)NewState;
 197              		.loc 1 351 0
 198 0000 014B     		ldr	r3, .L11	@ tmp136,
 199 0002 1860     		str	r0, [r3, #0]	@ NewState, MEM[(volatile uint32_t *)1111949312B]
 200 0004 7047     		bx	lr	@
 201              	.L12:
 202 0006 00BF     		.align	2
 203              	.L11:
 204 0008 00004742 		.word	1111949312
 205              		.cfi_endproc
 206              	.LFE114:
 207              		.size	RCC_HSICmd, .-RCC_HSICmd
 208              		.section	.text.RCC_LSEConfig,"ax",%progbits
 209              		.align	1
 210              		.global	RCC_LSEConfig
 211              		.thumb
 212              		.thumb_func
 213              		.type	RCC_LSEConfig, %function
 214              	RCC_LSEConfig:
 215              	.LFB115:
 352:stm32f4xx_rcc.c **** }
 353:stm32f4xx_rcc.c **** 
ARM GAS  /tmp/cc69dDoz.s 			page 11


 354:stm32f4xx_rcc.c **** /**
 355:stm32f4xx_rcc.c ****   * @brief  Configures the External Low Speed oscillator (LSE).
 356:stm32f4xx_rcc.c ****   * @note   As the LSE is in the Backup domain and write access is denied to
 357:stm32f4xx_rcc.c ****   *         this domain after reset, you have to enable write access using 
 358:stm32f4xx_rcc.c ****   *         PWR_BackupAccessCmd(ENABLE) function before to configure the LSE
 359:stm32f4xx_rcc.c ****   *         (to be done once after reset).  
 360:stm32f4xx_rcc.c ****   * @note   After enabling the LSE (RCC_LSE_ON or RCC_LSE_Bypass), the application
 361:stm32f4xx_rcc.c ****   *         software should wait on LSERDY flag to be set indicating that LSE clock
 362:stm32f4xx_rcc.c ****   *         is stable and can be used to clock the RTC.
 363:stm32f4xx_rcc.c ****   * @param  RCC_LSE: specifies the new state of the LSE.
 364:stm32f4xx_rcc.c ****   *          This parameter can be one of the following values:
 365:stm32f4xx_rcc.c ****   *            @arg RCC_LSE_OFF: turn OFF the LSE oscillator, LSERDY flag goes low after
 366:stm32f4xx_rcc.c ****   *                              6 LSE oscillator clock cycles.
 367:stm32f4xx_rcc.c ****   *            @arg RCC_LSE_ON: turn ON the LSE oscillator
 368:stm32f4xx_rcc.c ****   *            @arg RCC_LSE_Bypass: LSE oscillator bypassed with external clock
 369:stm32f4xx_rcc.c ****   * @retval None
 370:stm32f4xx_rcc.c ****   */
 371:stm32f4xx_rcc.c **** void RCC_LSEConfig(uint8_t RCC_LSE)
 372:stm32f4xx_rcc.c **** {
 216              		.loc 1 372 0
 217              		.cfi_startproc
 218              		@ args = 0, pretend = 0, frame = 0
 219              		@ frame_needed = 0, uses_anonymous_args = 0
 220              		@ link register save eliminated.
 221              	.LVL6:
 373:stm32f4xx_rcc.c ****   /* Check the parameters */
 374:stm32f4xx_rcc.c ****   assert_param(IS_RCC_LSE(RCC_LSE));
 375:stm32f4xx_rcc.c **** 
 376:stm32f4xx_rcc.c ****   /* Reset LSEON and LSEBYP bits before configuring the LSE ------------------*/
 377:stm32f4xx_rcc.c ****   /* Reset LSEON bit */
 378:stm32f4xx_rcc.c ****   *(__IO uint8_t *) BDCR_ADDRESS = RCC_LSE_OFF;
 222              		.loc 1 378 0
 223 0000 064B     		ldr	r3, .L18	@ tmp135,
 224 0002 0022     		movs	r2, #0	@ tmp136,
 379:stm32f4xx_rcc.c **** 
 380:stm32f4xx_rcc.c ****   /* Reset LSEBYP bit */
 381:stm32f4xx_rcc.c ****   *(__IO uint8_t *) BDCR_ADDRESS = RCC_LSE_OFF;
 382:stm32f4xx_rcc.c **** 
 383:stm32f4xx_rcc.c ****   /* Configure LSE (RCC_LSE_OFF is already covered by the code section above) */
 384:stm32f4xx_rcc.c ****   switch (RCC_LSE)
 225              		.loc 1 384 0
 226 0004 0128     		cmp	r0, #1	@ RCC_LSE,
 378:stm32f4xx_rcc.c ****   *(__IO uint8_t *) BDCR_ADDRESS = RCC_LSE_OFF;
 227              		.loc 1 378 0
 228 0006 1A70     		strb	r2, [r3, #0]	@ tmp136, MEM[(volatile uint8_t *)1073887344B]
 381:stm32f4xx_rcc.c ****   *(__IO uint8_t *) BDCR_ADDRESS = RCC_LSE_OFF;
 229              		.loc 1 381 0
 230 0008 1A70     		strb	r2, [r3, #0]	@ tmp136, MEM[(volatile uint8_t *)1073887344B]
 231              		.loc 1 384 0
 232 000a 04D0     		beq	.L15	@,
 233 000c 0428     		cmp	r0, #4	@ RCC_LSE,
 234 000e 04D1     		bne	.L13	@,
 385:stm32f4xx_rcc.c ****   {
 386:stm32f4xx_rcc.c ****     case RCC_LSE_ON:
 387:stm32f4xx_rcc.c ****       /* Set LSEON bit */
 388:stm32f4xx_rcc.c ****       *(__IO uint8_t *) BDCR_ADDRESS = RCC_LSE_ON;
 389:stm32f4xx_rcc.c ****       break;
ARM GAS  /tmp/cc69dDoz.s 			page 12


 390:stm32f4xx_rcc.c ****     case RCC_LSE_Bypass:
 391:stm32f4xx_rcc.c ****       /* Set LSEBYP and LSEON bits */
 392:stm32f4xx_rcc.c ****       *(__IO uint8_t *) BDCR_ADDRESS = RCC_LSE_Bypass | RCC_LSE_ON;
 235              		.loc 1 392 0
 236 0010 0520     		movs	r0, #5	@ tmp145,
 237              	.LVL7:
 238 0012 1870     		strb	r0, [r3, #0]	@ tmp145, MEM[(volatile uint8_t *)1073887344B]
 393:stm32f4xx_rcc.c ****       break;
 239              		.loc 1 393 0
 240 0014 01E0     		b	.L13	@
 241              	.LVL8:
 242              	.L15:
 388:stm32f4xx_rcc.c ****       *(__IO uint8_t *) BDCR_ADDRESS = RCC_LSE_ON;
 243              		.loc 1 388 0
 244 0016 1870     		strb	r0, [r3, #0]	@ RCC_LSE, MEM[(volatile uint8_t *)1073887344B]
 389:stm32f4xx_rcc.c ****       break;
 245              		.loc 1 389 0
 246 0018 7047     		bx	lr	@
 247              	.LVL9:
 248              	.L13:
 249 001a 7047     		bx	lr	@
 250              	.L19:
 251              		.align	2
 252              	.L18:
 253 001c 70380240 		.word	1073887344
 254              		.cfi_endproc
 255              	.LFE115:
 256              		.size	RCC_LSEConfig, .-RCC_LSEConfig
 257              		.section	.text.RCC_LSICmd,"ax",%progbits
 258              		.align	1
 259              		.global	RCC_LSICmd
 260              		.thumb
 261              		.thumb_func
 262              		.type	RCC_LSICmd, %function
 263              	RCC_LSICmd:
 264              	.LFB116:
 394:stm32f4xx_rcc.c ****     default:
 395:stm32f4xx_rcc.c ****       break;
 396:stm32f4xx_rcc.c ****   }
 397:stm32f4xx_rcc.c **** }
 398:stm32f4xx_rcc.c **** 
 399:stm32f4xx_rcc.c **** /**
 400:stm32f4xx_rcc.c ****   * @brief  Enables or disables the Internal Low Speed oscillator (LSI).
 401:stm32f4xx_rcc.c ****   * @note   After enabling the LSI, the application software should wait on 
 402:stm32f4xx_rcc.c ****   *         LSIRDY flag to be set indicating that LSI clock is stable and can
 403:stm32f4xx_rcc.c ****   *         be used to clock the IWDG and/or the RTC.
 404:stm32f4xx_rcc.c ****   * @note   LSI can not be disabled if the IWDG is running.  
 405:stm32f4xx_rcc.c ****   * @param  NewState: new state of the LSI.
 406:stm32f4xx_rcc.c ****   *          This parameter can be: ENABLE or DISABLE.
 407:stm32f4xx_rcc.c ****   * @note   When the LSI is stopped, LSIRDY flag goes low after 6 LSI oscillator
 408:stm32f4xx_rcc.c ****   *         clock cycles. 
 409:stm32f4xx_rcc.c ****   * @retval None
 410:stm32f4xx_rcc.c ****   */
 411:stm32f4xx_rcc.c **** void RCC_LSICmd(FunctionalState NewState)
 412:stm32f4xx_rcc.c **** {
 265              		.loc 1 412 0
 266              		.cfi_startproc
ARM GAS  /tmp/cc69dDoz.s 			page 13


 267              		@ args = 0, pretend = 0, frame = 0
 268              		@ frame_needed = 0, uses_anonymous_args = 0
 269              		@ link register save eliminated.
 270              	.LVL10:
 413:stm32f4xx_rcc.c ****   /* Check the parameters */
 414:stm32f4xx_rcc.c ****   assert_param(IS_FUNCTIONAL_STATE(NewState));
 415:stm32f4xx_rcc.c **** 
 416:stm32f4xx_rcc.c ****   *(__IO uint32_t *) CSR_LSION_BB = (uint32_t)NewState;
 271              		.loc 1 416 0
 272 0000 014B     		ldr	r3, .L21	@ tmp136,
 273 0002 1860     		str	r0, [r3, #0]	@ NewState, MEM[(volatile uint32_t *)1111953024B]
 274 0004 7047     		bx	lr	@
 275              	.L22:
 276 0006 00BF     		.align	2
 277              	.L21:
 278 0008 800E4742 		.word	1111953024
 279              		.cfi_endproc
 280              	.LFE116:
 281              		.size	RCC_LSICmd, .-RCC_LSICmd
 282              		.section	.text.RCC_PLLConfig,"ax",%progbits
 283              		.align	1
 284              		.global	RCC_PLLConfig
 285              		.thumb
 286              		.thumb_func
 287              		.type	RCC_PLLConfig, %function
 288              	RCC_PLLConfig:
 289              	.LFB117:
 417:stm32f4xx_rcc.c **** }
 418:stm32f4xx_rcc.c **** 
 419:stm32f4xx_rcc.c **** /**
 420:stm32f4xx_rcc.c ****   * @brief  Configures the main PLL clock source, multiplication and division factors.
 421:stm32f4xx_rcc.c ****   * @note   This function must be used only when the main PLL is disabled.
 422:stm32f4xx_rcc.c ****   *  
 423:stm32f4xx_rcc.c ****   * @param  RCC_PLLSource: specifies the PLL entry clock source.
 424:stm32f4xx_rcc.c ****   *          This parameter can be one of the following values:
 425:stm32f4xx_rcc.c ****   *            @arg RCC_PLLSource_HSI: HSI oscillator clock selected as PLL clock entry
 426:stm32f4xx_rcc.c ****   *            @arg RCC_PLLSource_HSE: HSE oscillator clock selected as PLL clock entry
 427:stm32f4xx_rcc.c ****   * @note   This clock source (RCC_PLLSource) is common for the main PLL and PLLI2S.  
 428:stm32f4xx_rcc.c ****   *  
 429:stm32f4xx_rcc.c ****   * @param  PLLM: specifies the division factor for PLL VCO input clock
 430:stm32f4xx_rcc.c ****   *          This parameter must be a number between 0 and 63.
 431:stm32f4xx_rcc.c ****   * @note   You have to set the PLLM parameter correctly to ensure that the VCO input
 432:stm32f4xx_rcc.c ****   *         frequency ranges from 1 to 2 MHz. It is recommended to select a frequency
 433:stm32f4xx_rcc.c ****   *         of 2 MHz to limit PLL jitter.
 434:stm32f4xx_rcc.c ****   *  
 435:stm32f4xx_rcc.c ****   * @param  PLLN: specifies the multiplication factor for PLL VCO output clock
 436:stm32f4xx_rcc.c ****   *          This parameter must be a number between 192 and 432.
 437:stm32f4xx_rcc.c ****   * @note   You have to set the PLLN parameter correctly to ensure that the VCO
 438:stm32f4xx_rcc.c ****   *         output frequency is between 192 and 432 MHz.
 439:stm32f4xx_rcc.c ****   *   
 440:stm32f4xx_rcc.c ****   * @param  PLLP: specifies the division factor for main system clock (SYSCLK)
 441:stm32f4xx_rcc.c ****   *          This parameter must be a number in the range {2, 4, 6, or 8}.
 442:stm32f4xx_rcc.c ****   * @note   You have to set the PLLP parameter correctly to not exceed 168 MHz on
 443:stm32f4xx_rcc.c ****   *         the System clock frequency.
 444:stm32f4xx_rcc.c ****   *  
 445:stm32f4xx_rcc.c ****   * @param  PLLQ: specifies the division factor for OTG FS, SDIO and RNG clocks
 446:stm32f4xx_rcc.c ****   *          This parameter must be a number between 4 and 15.
ARM GAS  /tmp/cc69dDoz.s 			page 14


 447:stm32f4xx_rcc.c ****   * @note   If the USB OTG FS is used in your application, you have to set the
 448:stm32f4xx_rcc.c ****   *         PLLQ parameter correctly to have 48 MHz clock for the USB. However,
 449:stm32f4xx_rcc.c ****   *         the SDIO and RNG need a frequency lower than or equal to 48 MHz to work
 450:stm32f4xx_rcc.c ****   *         correctly.
 451:stm32f4xx_rcc.c ****   *   
 452:stm32f4xx_rcc.c ****   * @retval None
 453:stm32f4xx_rcc.c ****   */
 454:stm32f4xx_rcc.c **** void RCC_PLLConfig(uint32_t RCC_PLLSource, uint32_t PLLM, uint32_t PLLN, uint32_t PLLP, uint32_t PL
 455:stm32f4xx_rcc.c **** {
 290              		.loc 1 455 0
 291              		.cfi_startproc
 292              		@ args = 4, pretend = 0, frame = 0
 293              		@ frame_needed = 0, uses_anonymous_args = 0
 294              	.LVL11:
 295 0000 10B5     		push	{r4, lr}	@
 296              	.LCFI0:
 297              		.cfi_def_cfa_offset 8
 298              		.cfi_offset 4, -8
 299              		.cfi_offset 14, -4
 456:stm32f4xx_rcc.c ****   /* Check the parameters */
 457:stm32f4xx_rcc.c ****   assert_param(IS_RCC_PLL_SOURCE(RCC_PLLSource));
 458:stm32f4xx_rcc.c ****   assert_param(IS_RCC_PLLM_VALUE(PLLM));
 459:stm32f4xx_rcc.c ****   assert_param(IS_RCC_PLLN_VALUE(PLLN));
 460:stm32f4xx_rcc.c ****   assert_param(IS_RCC_PLLP_VALUE(PLLP));
 461:stm32f4xx_rcc.c ****   assert_param(IS_RCC_PLLQ_VALUE(PLLQ));
 462:stm32f4xx_rcc.c **** 
 463:stm32f4xx_rcc.c ****   RCC->PLLCFGR = PLLM | (PLLN << 6) | (((PLLP >> 1) -1) << 16) | (RCC_PLLSource) |
 300              		.loc 1 463 0
 301 0002 0143     		orrs	r1, r1, r0	@, tmp148, PLLM, RCC_PLLSource
 302              	.LVL12:
 303 0004 029C     		ldr	r4, [sp, #8]	@ PLLQ, PLLQ
 304 0006 41EA8212 		orr	r2, r1, r2, lsl #6	@, tmp150, tmp148, PLLN,
 305              	.LVL13:
 306 000a 5B08     		lsrs	r3, r3, #1	@ tmp153, PLLP,
 307              	.LVL14:
 308 000c 42EA0460 		orr	r0, r2, r4, lsl #24	@, tmp152, tmp150, PLLQ,
 309              	.LVL15:
 310 0010 591E     		subs	r1, r3, #1	@ tmp154, tmp153,
 311 0012 024A     		ldr	r2, .L24	@ tmp156,
 312 0014 40EA0144 		orr	r4, r0, r1, lsl #16	@, D.6353, tmp152, tmp154,
 313 0018 5460     		str	r4, [r2, #4]	@ D.6353, MEM[(struct RCC_TypeDef *)1073887232B].PLLCFGR
 314 001a 10BD     		pop	{r4, pc}	@
 315              	.L25:
 316              		.align	2
 317              	.L24:
 318 001c 00380240 		.word	1073887232
 319              		.cfi_endproc
 320              	.LFE117:
 321              		.size	RCC_PLLConfig, .-RCC_PLLConfig
 322              		.section	.text.RCC_PLLCmd,"ax",%progbits
 323              		.align	1
 324              		.global	RCC_PLLCmd
 325              		.thumb
 326              		.thumb_func
 327              		.type	RCC_PLLCmd, %function
 328              	RCC_PLLCmd:
 329              	.LFB118:
ARM GAS  /tmp/cc69dDoz.s 			page 15


 464:stm32f4xx_rcc.c ****                  (PLLQ << 24);
 465:stm32f4xx_rcc.c **** }
 466:stm32f4xx_rcc.c **** 
 467:stm32f4xx_rcc.c **** /**
 468:stm32f4xx_rcc.c ****   * @brief  Enables or disables the main PLL.
 469:stm32f4xx_rcc.c ****   * @note   After enabling the main PLL, the application software should wait on 
 470:stm32f4xx_rcc.c ****   *         PLLRDY flag to be set indicating that PLL clock is stable and can
 471:stm32f4xx_rcc.c ****   *         be used as system clock source.
 472:stm32f4xx_rcc.c ****   * @note   The main PLL can not be disabled if it is used as system clock source
 473:stm32f4xx_rcc.c ****   * @note   The main PLL is disabled by hardware when entering STOP and STANDBY modes.
 474:stm32f4xx_rcc.c ****   * @param  NewState: new state of the main PLL. This parameter can be: ENABLE or DISABLE.
 475:stm32f4xx_rcc.c ****   * @retval None
 476:stm32f4xx_rcc.c ****   */
 477:stm32f4xx_rcc.c **** void RCC_PLLCmd(FunctionalState NewState)
 478:stm32f4xx_rcc.c **** {
 330              		.loc 1 478 0
 331              		.cfi_startproc
 332              		@ args = 0, pretend = 0, frame = 0
 333              		@ frame_needed = 0, uses_anonymous_args = 0
 334              		@ link register save eliminated.
 335              	.LVL16:
 479:stm32f4xx_rcc.c ****   /* Check the parameters */
 480:stm32f4xx_rcc.c ****   assert_param(IS_FUNCTIONAL_STATE(NewState));
 481:stm32f4xx_rcc.c ****   *(__IO uint32_t *) CR_PLLON_BB = (uint32_t)NewState;
 336              		.loc 1 481 0
 337 0000 014B     		ldr	r3, .L27	@ tmp136,
 338 0002 1860     		str	r0, [r3, #0]	@ NewState, MEM[(volatile uint32_t *)1111949408B]
 339 0004 7047     		bx	lr	@
 340              	.L28:
 341 0006 00BF     		.align	2
 342              	.L27:
 343 0008 60004742 		.word	1111949408
 344              		.cfi_endproc
 345              	.LFE118:
 346              		.size	RCC_PLLCmd, .-RCC_PLLCmd
 347              		.section	.text.RCC_PLLI2SConfig,"ax",%progbits
 348              		.align	1
 349              		.global	RCC_PLLI2SConfig
 350              		.thumb
 351              		.thumb_func
 352              		.type	RCC_PLLI2SConfig, %function
 353              	RCC_PLLI2SConfig:
 354              	.LFB119:
 482:stm32f4xx_rcc.c **** }
 483:stm32f4xx_rcc.c **** 
 484:stm32f4xx_rcc.c **** /**
 485:stm32f4xx_rcc.c ****   * @brief  Configures the PLLI2S clock multiplication and division factors.
 486:stm32f4xx_rcc.c ****   *  
 487:stm32f4xx_rcc.c ****   * @note   This function must be used only when the PLLI2S is disabled.
 488:stm32f4xx_rcc.c ****   * @note   PLLI2S clock source is common with the main PLL (configured in 
 489:stm32f4xx_rcc.c ****   *         RCC_PLLConfig function )  
 490:stm32f4xx_rcc.c ****   *             
 491:stm32f4xx_rcc.c ****   * @param  PLLI2SN: specifies the multiplication factor for PLLI2S VCO output clock
 492:stm32f4xx_rcc.c ****   *          This parameter must be a number between 192 and 432.
 493:stm32f4xx_rcc.c ****   * @note   You have to set the PLLI2SN parameter correctly to ensure that the VCO 
 494:stm32f4xx_rcc.c ****   *         output frequency is between 192 and 432 MHz.
 495:stm32f4xx_rcc.c ****   *    
ARM GAS  /tmp/cc69dDoz.s 			page 16


 496:stm32f4xx_rcc.c ****   * @param  PLLI2SR: specifies the division factor for I2S clock
 497:stm32f4xx_rcc.c ****   *          This parameter must be a number between 2 and 7.
 498:stm32f4xx_rcc.c ****   * @note   You have to set the PLLI2SR parameter correctly to not exceed 192 MHz
 499:stm32f4xx_rcc.c ****   *         on the I2S clock frequency.
 500:stm32f4xx_rcc.c ****   *   
 501:stm32f4xx_rcc.c ****   * @retval None
 502:stm32f4xx_rcc.c ****   */
 503:stm32f4xx_rcc.c **** void RCC_PLLI2SConfig(uint32_t PLLI2SN, uint32_t PLLI2SR)
 504:stm32f4xx_rcc.c **** {
 355              		.loc 1 504 0
 356              		.cfi_startproc
 357              		@ args = 0, pretend = 0, frame = 0
 358              		@ frame_needed = 0, uses_anonymous_args = 0
 359              		@ link register save eliminated.
 360              	.LVL17:
 505:stm32f4xx_rcc.c ****   /* Check the parameters */
 506:stm32f4xx_rcc.c ****   assert_param(IS_RCC_PLLI2SN_VALUE(PLLI2SN));
 507:stm32f4xx_rcc.c ****   assert_param(IS_RCC_PLLI2SR_VALUE(PLLI2SR));
 508:stm32f4xx_rcc.c **** 
 509:stm32f4xx_rcc.c ****   RCC->PLLI2SCFGR = (PLLI2SN << 6) | (PLLI2SR << 28);
 361              		.loc 1 509 0
 362 0000 8001     		lsls	r0, r0, #6	@ tmp140, PLLI2SN,
 363              	.LVL18:
 364 0002 034B     		ldr	r3, .L30	@ tmp141,
 365 0004 40EA0171 		orr	r1, r0, r1, lsl #28	@, D.6341, tmp140, PLLI2SR,
 366              	.LVL19:
 367 0008 C3F88410 		str	r1, [r3, #132]	@ D.6341, MEM[(struct RCC_TypeDef *)1073887232B].PLLI2SCFGR
 368 000c 7047     		bx	lr	@
 369              	.L31:
 370 000e 00BF     		.align	2
 371              	.L30:
 372 0010 00380240 		.word	1073887232
 373              		.cfi_endproc
 374              	.LFE119:
 375              		.size	RCC_PLLI2SConfig, .-RCC_PLLI2SConfig
 376              		.section	.text.RCC_PLLI2SCmd,"ax",%progbits
 377              		.align	1
 378              		.global	RCC_PLLI2SCmd
 379              		.thumb
 380              		.thumb_func
 381              		.type	RCC_PLLI2SCmd, %function
 382              	RCC_PLLI2SCmd:
 383              	.LFB120:
 510:stm32f4xx_rcc.c **** }
 511:stm32f4xx_rcc.c **** 
 512:stm32f4xx_rcc.c **** /**
 513:stm32f4xx_rcc.c ****   * @brief  Enables or disables the PLLI2S. 
 514:stm32f4xx_rcc.c ****   * @note   The PLLI2S is disabled by hardware when entering STOP and STANDBY modes.  
 515:stm32f4xx_rcc.c ****   * @param  NewState: new state of the PLLI2S. This parameter can be: ENABLE or DISABLE.
 516:stm32f4xx_rcc.c ****   * @retval None
 517:stm32f4xx_rcc.c ****   */
 518:stm32f4xx_rcc.c **** void RCC_PLLI2SCmd(FunctionalState NewState)
 519:stm32f4xx_rcc.c **** {
 384              		.loc 1 519 0
 385              		.cfi_startproc
 386              		@ args = 0, pretend = 0, frame = 0
 387              		@ frame_needed = 0, uses_anonymous_args = 0
ARM GAS  /tmp/cc69dDoz.s 			page 17


 388              		@ link register save eliminated.
 389              	.LVL20:
 520:stm32f4xx_rcc.c ****   /* Check the parameters */
 521:stm32f4xx_rcc.c ****   assert_param(IS_FUNCTIONAL_STATE(NewState));
 522:stm32f4xx_rcc.c ****   *(__IO uint32_t *) CR_PLLI2SON_BB = (uint32_t)NewState;
 390              		.loc 1 522 0
 391 0000 014B     		ldr	r3, .L33	@ tmp136,
 392 0002 1860     		str	r0, [r3, #0]	@ NewState, MEM[(volatile uint32_t *)1111949416B]
 393 0004 7047     		bx	lr	@
 394              	.L34:
 395 0006 00BF     		.align	2
 396              	.L33:
 397 0008 68004742 		.word	1111949416
 398              		.cfi_endproc
 399              	.LFE120:
 400              		.size	RCC_PLLI2SCmd, .-RCC_PLLI2SCmd
 401              		.section	.text.RCC_ClockSecuritySystemCmd,"ax",%progbits
 402              		.align	1
 403              		.global	RCC_ClockSecuritySystemCmd
 404              		.thumb
 405              		.thumb_func
 406              		.type	RCC_ClockSecuritySystemCmd, %function
 407              	RCC_ClockSecuritySystemCmd:
 408              	.LFB121:
 523:stm32f4xx_rcc.c **** }
 524:stm32f4xx_rcc.c **** 
 525:stm32f4xx_rcc.c **** /**
 526:stm32f4xx_rcc.c ****   * @brief  Enables or disables the Clock Security System.
 527:stm32f4xx_rcc.c ****   * @note   If a failure is detected on the HSE oscillator clock, this oscillator
 528:stm32f4xx_rcc.c ****   *         is automatically disabled and an interrupt is generated to inform the
 529:stm32f4xx_rcc.c ****   *         software about the failure (Clock Security System Interrupt, CSSI),
 530:stm32f4xx_rcc.c ****   *         allowing the MCU to perform rescue operations. The CSSI is linked to 
 531:stm32f4xx_rcc.c ****   *         the Cortex-M4 NMI (Non-Maskable Interrupt) exception vector.  
 532:stm32f4xx_rcc.c ****   * @param  NewState: new state of the Clock Security System.
 533:stm32f4xx_rcc.c ****   *         This parameter can be: ENABLE or DISABLE.
 534:stm32f4xx_rcc.c ****   * @retval None
 535:stm32f4xx_rcc.c ****   */
 536:stm32f4xx_rcc.c **** void RCC_ClockSecuritySystemCmd(FunctionalState NewState)
 537:stm32f4xx_rcc.c **** {
 409              		.loc 1 537 0
 410              		.cfi_startproc
 411              		@ args = 0, pretend = 0, frame = 0
 412              		@ frame_needed = 0, uses_anonymous_args = 0
 413              		@ link register save eliminated.
 414              	.LVL21:
 538:stm32f4xx_rcc.c ****   /* Check the parameters */
 539:stm32f4xx_rcc.c ****   assert_param(IS_FUNCTIONAL_STATE(NewState));
 540:stm32f4xx_rcc.c ****   *(__IO uint32_t *) CR_CSSON_BB = (uint32_t)NewState;
 415              		.loc 1 540 0
 416 0000 014B     		ldr	r3, .L36	@ tmp136,
 417 0002 1860     		str	r0, [r3, #0]	@ NewState, MEM[(volatile uint32_t *)1111949388B]
 418 0004 7047     		bx	lr	@
 419              	.L37:
 420 0006 00BF     		.align	2
 421              	.L36:
 422 0008 4C004742 		.word	1111949388
 423              		.cfi_endproc
ARM GAS  /tmp/cc69dDoz.s 			page 18


 424              	.LFE121:
 425              		.size	RCC_ClockSecuritySystemCmd, .-RCC_ClockSecuritySystemCmd
 426              		.section	.text.RCC_MCO1Config,"ax",%progbits
 427              		.align	1
 428              		.global	RCC_MCO1Config
 429              		.thumb
 430              		.thumb_func
 431              		.type	RCC_MCO1Config, %function
 432              	RCC_MCO1Config:
 433              	.LFB122:
 541:stm32f4xx_rcc.c **** }
 542:stm32f4xx_rcc.c **** 
 543:stm32f4xx_rcc.c **** /**
 544:stm32f4xx_rcc.c ****   * @brief  Selects the clock source to output on MCO1 pin(PA8).
 545:stm32f4xx_rcc.c ****   * @note   PA8 should be configured in alternate function mode.
 546:stm32f4xx_rcc.c ****   * @param  RCC_MCO1Source: specifies the clock source to output.
 547:stm32f4xx_rcc.c ****   *          This parameter can be one of the following values:
 548:stm32f4xx_rcc.c ****   *            @arg RCC_MCO1Source_HSI: HSI clock selected as MCO1 source
 549:stm32f4xx_rcc.c ****   *            @arg RCC_MCO1Source_LSE: LSE clock selected as MCO1 source
 550:stm32f4xx_rcc.c ****   *            @arg RCC_MCO1Source_HSE: HSE clock selected as MCO1 source
 551:stm32f4xx_rcc.c ****   *            @arg RCC_MCO1Source_PLLCLK: main PLL clock selected as MCO1 source
 552:stm32f4xx_rcc.c ****   * @param  RCC_MCO1Div: specifies the MCO1 prescaler.
 553:stm32f4xx_rcc.c ****   *          This parameter can be one of the following values:
 554:stm32f4xx_rcc.c ****   *            @arg RCC_MCO1Div_1: no division applied to MCO1 clock
 555:stm32f4xx_rcc.c ****   *            @arg RCC_MCO1Div_2: division by 2 applied to MCO1 clock
 556:stm32f4xx_rcc.c ****   *            @arg RCC_MCO1Div_3: division by 3 applied to MCO1 clock
 557:stm32f4xx_rcc.c ****   *            @arg RCC_MCO1Div_4: division by 4 applied to MCO1 clock
 558:stm32f4xx_rcc.c ****   *            @arg RCC_MCO1Div_5: division by 5 applied to MCO1 clock
 559:stm32f4xx_rcc.c ****   * @retval None
 560:stm32f4xx_rcc.c ****   */
 561:stm32f4xx_rcc.c **** void RCC_MCO1Config(uint32_t RCC_MCO1Source, uint32_t RCC_MCO1Div)
 562:stm32f4xx_rcc.c **** {
 434              		.loc 1 562 0
 435              		.cfi_startproc
 436              		@ args = 0, pretend = 0, frame = 0
 437              		@ frame_needed = 0, uses_anonymous_args = 0
 438              		@ link register save eliminated.
 439              	.LVL22:
 563:stm32f4xx_rcc.c ****   uint32_t tmpreg = 0;
 564:stm32f4xx_rcc.c ****   
 565:stm32f4xx_rcc.c ****   /* Check the parameters */
 566:stm32f4xx_rcc.c ****   assert_param(IS_RCC_MCO1SOURCE(RCC_MCO1Source));
 567:stm32f4xx_rcc.c ****   assert_param(IS_RCC_MCO1DIV(RCC_MCO1Div));  
 568:stm32f4xx_rcc.c **** 
 569:stm32f4xx_rcc.c ****   tmpreg = RCC->CFGR;
 440              		.loc 1 569 0
 441 0000 034B     		ldr	r3, .L39	@ tmp140,
 442 0002 9A68     		ldr	r2, [r3, #8]	@ tmpreg, MEM[(struct RCC_TypeDef *)1073887232B].CFGR
 443              	.LVL23:
 570:stm32f4xx_rcc.c **** 
 571:stm32f4xx_rcc.c ****   /* Clear MCO1[1:0] and MCO1PRE[2:0] bits */
 572:stm32f4xx_rcc.c ****   tmpreg &= CFGR_MCO1_RESET_MASK;
 444              		.loc 1 572 0
 445 0004 22F0EC62 		bic	r2, r2, #123731968	@ tmp141, tmpreg,
 446              	.LVL24:
 573:stm32f4xx_rcc.c **** 
 574:stm32f4xx_rcc.c ****   /* Select MCO1 clock source and prescaler */
ARM GAS  /tmp/cc69dDoz.s 			page 19


 575:stm32f4xx_rcc.c ****   tmpreg |= RCC_MCO1Source | RCC_MCO1Div;
 447              		.loc 1 575 0
 448 0008 1043     		orrs	r0, r0, r2	@, D.6333, RCC_MCO1Source, tmp141
 449              	.LVL25:
 450 000a 0143     		orrs	r1, r1, r0	@, tmpreg, RCC_MCO1Div, D.6333
 451              	.LVL26:
 576:stm32f4xx_rcc.c **** 
 577:stm32f4xx_rcc.c ****   /* Store the new value */
 578:stm32f4xx_rcc.c ****   RCC->CFGR = tmpreg;  
 452              		.loc 1 578 0
 453 000c 9960     		str	r1, [r3, #8]	@ tmpreg, MEM[(struct RCC_TypeDef *)1073887232B].CFGR
 454 000e 7047     		bx	lr	@
 455              	.L40:
 456              		.align	2
 457              	.L39:
 458 0010 00380240 		.word	1073887232
 459              		.cfi_endproc
 460              	.LFE122:
 461              		.size	RCC_MCO1Config, .-RCC_MCO1Config
 462              		.section	.text.RCC_MCO2Config,"ax",%progbits
 463              		.align	1
 464              		.global	RCC_MCO2Config
 465              		.thumb
 466              		.thumb_func
 467              		.type	RCC_MCO2Config, %function
 468              	RCC_MCO2Config:
 469              	.LFB123:
 579:stm32f4xx_rcc.c **** }
 580:stm32f4xx_rcc.c **** 
 581:stm32f4xx_rcc.c **** /**
 582:stm32f4xx_rcc.c ****   * @brief  Selects the clock source to output on MCO2 pin(PC9).
 583:stm32f4xx_rcc.c ****   * @note   PC9 should be configured in alternate function mode.
 584:stm32f4xx_rcc.c ****   * @param  RCC_MCO2Source: specifies the clock source to output.
 585:stm32f4xx_rcc.c ****   *          This parameter can be one of the following values:
 586:stm32f4xx_rcc.c ****   *            @arg RCC_MCO2Source_SYSCLK: System clock (SYSCLK) selected as MCO2 source
 587:stm32f4xx_rcc.c ****   *            @arg RCC_MCO2Source_PLLI2SCLK: PLLI2S clock selected as MCO2 source
 588:stm32f4xx_rcc.c ****   *            @arg RCC_MCO2Source_HSE: HSE clock selected as MCO2 source
 589:stm32f4xx_rcc.c ****   *            @arg RCC_MCO2Source_PLLCLK: main PLL clock selected as MCO2 source
 590:stm32f4xx_rcc.c ****   * @param  RCC_MCO2Div: specifies the MCO2 prescaler.
 591:stm32f4xx_rcc.c ****   *          This parameter can be one of the following values:
 592:stm32f4xx_rcc.c ****   *            @arg RCC_MCO2Div_1: no division applied to MCO2 clock
 593:stm32f4xx_rcc.c ****   *            @arg RCC_MCO2Div_2: division by 2 applied to MCO2 clock
 594:stm32f4xx_rcc.c ****   *            @arg RCC_MCO2Div_3: division by 3 applied to MCO2 clock
 595:stm32f4xx_rcc.c ****   *            @arg RCC_MCO2Div_4: division by 4 applied to MCO2 clock
 596:stm32f4xx_rcc.c ****   *            @arg RCC_MCO2Div_5: division by 5 applied to MCO2 clock
 597:stm32f4xx_rcc.c ****   * @retval None
 598:stm32f4xx_rcc.c ****   */
 599:stm32f4xx_rcc.c **** void RCC_MCO2Config(uint32_t RCC_MCO2Source, uint32_t RCC_MCO2Div)
 600:stm32f4xx_rcc.c **** {
 470              		.loc 1 600 0
 471              		.cfi_startproc
 472              		@ args = 0, pretend = 0, frame = 0
 473              		@ frame_needed = 0, uses_anonymous_args = 0
 474              		@ link register save eliminated.
 475              	.LVL27:
 601:stm32f4xx_rcc.c ****   uint32_t tmpreg = 0;
 602:stm32f4xx_rcc.c ****   
ARM GAS  /tmp/cc69dDoz.s 			page 20


 603:stm32f4xx_rcc.c ****   /* Check the parameters */
 604:stm32f4xx_rcc.c ****   assert_param(IS_RCC_MCO2SOURCE(RCC_MCO2Source));
 605:stm32f4xx_rcc.c ****   assert_param(IS_RCC_MCO2DIV(RCC_MCO2Div));
 606:stm32f4xx_rcc.c ****   
 607:stm32f4xx_rcc.c ****   tmpreg = RCC->CFGR;
 476              		.loc 1 607 0
 477 0000 034B     		ldr	r3, .L42	@ tmp140,
 478 0002 9A68     		ldr	r2, [r3, #8]	@ tmpreg, MEM[(struct RCC_TypeDef *)1073887232B].CFGR
 479              	.LVL28:
 608:stm32f4xx_rcc.c ****   
 609:stm32f4xx_rcc.c ****   /* Clear MCO2 and MCO2PRE[2:0] bits */
 610:stm32f4xx_rcc.c ****   tmpreg &= CFGR_MCO2_RESET_MASK;
 480              		.loc 1 610 0
 481 0004 22F07842 		bic	r2, r2, #-134217728	@ tmp141, tmpreg,
 482              	.LVL29:
 611:stm32f4xx_rcc.c **** 
 612:stm32f4xx_rcc.c ****   /* Select MCO2 clock source and prescaler */
 613:stm32f4xx_rcc.c ****   tmpreg |= RCC_MCO2Source | RCC_MCO2Div;
 483              		.loc 1 613 0
 484 0008 1043     		orrs	r0, r0, r2	@, D.6331, RCC_MCO2Source, tmp141
 485              	.LVL30:
 486 000a 0143     		orrs	r1, r1, r0	@, tmpreg, RCC_MCO2Div, D.6331
 487              	.LVL31:
 614:stm32f4xx_rcc.c **** 
 615:stm32f4xx_rcc.c ****   /* Store the new value */
 616:stm32f4xx_rcc.c ****   RCC->CFGR = tmpreg;  
 488              		.loc 1 616 0
 489 000c 9960     		str	r1, [r3, #8]	@ tmpreg, MEM[(struct RCC_TypeDef *)1073887232B].CFGR
 490 000e 7047     		bx	lr	@
 491              	.L43:
 492              		.align	2
 493              	.L42:
 494 0010 00380240 		.word	1073887232
 495              		.cfi_endproc
 496              	.LFE123:
 497              		.size	RCC_MCO2Config, .-RCC_MCO2Config
 498              		.section	.text.RCC_SYSCLKConfig,"ax",%progbits
 499              		.align	1
 500              		.global	RCC_SYSCLKConfig
 501              		.thumb
 502              		.thumb_func
 503              		.type	RCC_SYSCLKConfig, %function
 504              	RCC_SYSCLKConfig:
 505              	.LFB124:
 617:stm32f4xx_rcc.c **** }
 618:stm32f4xx_rcc.c **** 
 619:stm32f4xx_rcc.c **** /**
 620:stm32f4xx_rcc.c ****   * @}
 621:stm32f4xx_rcc.c ****   */
 622:stm32f4xx_rcc.c **** 
 623:stm32f4xx_rcc.c **** /** @defgroup RCC_Group2 System AHB and APB busses clocks configuration functions
 624:stm32f4xx_rcc.c ****  *  @brief   System, AHB and APB busses clocks configuration functions
 625:stm32f4xx_rcc.c ****  *
 626:stm32f4xx_rcc.c **** @verbatim   
 627:stm32f4xx_rcc.c ****  ===============================================================================
 628:stm32f4xx_rcc.c ****       ##### System, AHB and APB busses clocks configuration functions #####
 629:stm32f4xx_rcc.c ****  ===============================================================================  
ARM GAS  /tmp/cc69dDoz.s 			page 21


 630:stm32f4xx_rcc.c ****     [..]
 631:stm32f4xx_rcc.c ****       This section provide functions allowing to configure the System, AHB, APB1 and 
 632:stm32f4xx_rcc.c ****       APB2 busses clocks.
 633:stm32f4xx_rcc.c ****   
 634:stm32f4xx_rcc.c ****       (#) Several clock sources can be used to drive the System clock (SYSCLK): HSI,
 635:stm32f4xx_rcc.c ****           HSE and PLL.
 636:stm32f4xx_rcc.c ****           The AHB clock (HCLK) is derived from System clock through configurable 
 637:stm32f4xx_rcc.c ****           prescaler and used to clock the CPU, memory and peripherals mapped 
 638:stm32f4xx_rcc.c ****           on AHB bus (DMA, GPIO...). APB1 (PCLK1) and APB2 (PCLK2) clocks are derived 
 639:stm32f4xx_rcc.c ****           from AHB clock through configurable prescalers and used to clock 
 640:stm32f4xx_rcc.c ****           the peripherals mapped on these busses. You can use 
 641:stm32f4xx_rcc.c ****           "RCC_GetClocksFreq()" function to retrieve the frequencies of these clocks.  
 642:stm32f4xx_rcc.c **** 
 643:stm32f4xx_rcc.c ****       -@- All the peripheral clocks are derived from the System clock (SYSCLK) except:
 644:stm32f4xx_rcc.c ****         (+@) I2S: the I2S clock can be derived either from a specific PLL (PLLI2S) or
 645:stm32f4xx_rcc.c ****              from an external clock mapped on the I2S_CKIN pin. 
 646:stm32f4xx_rcc.c ****              You have to use RCC_I2SCLKConfig() function to configure this clock. 
 647:stm32f4xx_rcc.c ****         (+@) RTC: the RTC clock can be derived either from the LSI, LSE or HSE clock
 648:stm32f4xx_rcc.c ****              divided by 2 to 31. You have to use RCC_RTCCLKConfig() and RCC_RTCCLKCmd()
 649:stm32f4xx_rcc.c ****              functions to configure this clock. 
 650:stm32f4xx_rcc.c ****         (+@) USB OTG FS, SDIO and RTC: USB OTG FS require a frequency equal to 48 MHz
 651:stm32f4xx_rcc.c ****              to work correctly, while the SDIO require a frequency equal or lower than
 652:stm32f4xx_rcc.c ****              to 48. This clock is derived of the main PLL through PLLQ divider.
 653:stm32f4xx_rcc.c ****         (+@) IWDG clock which is always the LSI clock.
 654:stm32f4xx_rcc.c ****        
 655:stm32f4xx_rcc.c ****       (#) The maximum frequency of the SYSCLK and HCLK is 168 MHz, PCLK2 84 MHz 
 656:stm32f4xx_rcc.c ****           and PCLK1 42 MHz. Depending on the device voltage range, the maximum 
 657:stm32f4xx_rcc.c ****           frequency should be adapted accordingly:
 658:stm32f4xx_rcc.c ****  +-------------------------------------------------------------------------------------+     
 659:stm32f4xx_rcc.c ****  | Latency       |                HCLK clock frequency (MHz)                           |
 660:stm32f4xx_rcc.c ****  |               |---------------------------------------------------------------------|     
 661:stm32f4xx_rcc.c ****  |               | voltage range  | voltage range  | voltage range   | voltage range   |
 662:stm32f4xx_rcc.c ****  |               | 2.7 V - 3.6 V  | 2.4 V - 2.7 V  | 2.1 V - 2.4 V   | 1.8 V - 2.1 V   |
 663:stm32f4xx_rcc.c ****  |---------------|----------------|----------------|-----------------|-----------------|           
 664:stm32f4xx_rcc.c ****  |0WS(1CPU cycle)|0 < HCLK <= 30  |0 < HCLK <= 24  |0 < HCLK <= 18   |0 < HCLK <= 16   |
 665:stm32f4xx_rcc.c ****  |---------------|----------------|----------------|-----------------|-----------------|   
 666:stm32f4xx_rcc.c ****  |1WS(2CPU cycle)|30 < HCLK <= 60 |24 < HCLK <= 48 |18 < HCLK <= 36  |16 < HCLK <= 32  | 
 667:stm32f4xx_rcc.c ****  |---------------|----------------|----------------|-----------------|-----------------|   
 668:stm32f4xx_rcc.c ****  |2WS(3CPU cycle)|60 < HCLK <= 90 |48 < HCLK <= 72 |36 < HCLK <= 54  |32 < HCLK <= 48  |
 669:stm32f4xx_rcc.c ****  |---------------|----------------|----------------|-----------------|-----------------| 
 670:stm32f4xx_rcc.c ****  |3WS(4CPU cycle)|90 < HCLK <= 120|72 < HCLK <= 96 |54 < HCLK <= 72  |48 < HCLK <= 64  |
 671:stm32f4xx_rcc.c ****  |---------------|----------------|----------------|-----------------|-----------------| 
 672:stm32f4xx_rcc.c ****  |4WS(5CPU cycle)|120< HCLK <= 150|96 < HCLK <= 120|72 < HCLK <= 90  |64 < HCLK <= 80  |
 673:stm32f4xx_rcc.c ****  |---------------|----------------|----------------|-----------------|-----------------| 
 674:stm32f4xx_rcc.c ****  |5WS(6CPU cycle)|120< HCLK <= 168|120< HCLK <= 144|90 < HCLK <= 108 |80 < HCLK <= 96  | 
 675:stm32f4xx_rcc.c ****  |---------------|----------------|----------------|-----------------|-----------------| 
 676:stm32f4xx_rcc.c ****  |6WS(7CPU cycle)|      NA        |144< HCLK <= 168|108 < HCLK <= 120|96 < HCLK <= 112 | 
 677:stm32f4xx_rcc.c ****  |---------------|----------------|----------------|-----------------|-----------------| 
 678:stm32f4xx_rcc.c ****  |7WS(8CPU cycle)|      NA        |      NA        |120 < HCLK <= 138|112 < HCLK <= 120| 
 679:stm32f4xx_rcc.c ****  +-------------------------------------------------------------------------------------+    
 680:stm32f4xx_rcc.c ****       -@- When VOS bits (in PWR_CR register) is reset to 0 , the maximum value of HCLK is 144 MHz.
 681:stm32f4xx_rcc.c ****           You can use PWR_MainRegulatorModeConfig() function to set or reset this bit.
 682:stm32f4xx_rcc.c **** 
 683:stm32f4xx_rcc.c **** @endverbatim
 684:stm32f4xx_rcc.c ****   * @{
 685:stm32f4xx_rcc.c ****   */
 686:stm32f4xx_rcc.c **** 
ARM GAS  /tmp/cc69dDoz.s 			page 22


 687:stm32f4xx_rcc.c **** /**
 688:stm32f4xx_rcc.c ****   * @brief  Configures the system clock (SYSCLK).
 689:stm32f4xx_rcc.c ****   * @note   The HSI is used (enabled by hardware) as system clock source after
 690:stm32f4xx_rcc.c ****   *         startup from Reset, wake-up from STOP and STANDBY mode, or in case
 691:stm32f4xx_rcc.c ****   *         of failure of the HSE used directly or indirectly as system clock
 692:stm32f4xx_rcc.c ****   *         (if the Clock Security System CSS is enabled).
 693:stm32f4xx_rcc.c ****   * @note   A switch from one clock source to another occurs only if the target
 694:stm32f4xx_rcc.c ****   *         clock source is ready (clock stable after startup delay or PLL locked). 
 695:stm32f4xx_rcc.c ****   *         If a clock source which is not yet ready is selected, the switch will
 696:stm32f4xx_rcc.c ****   *         occur when the clock source will be ready. 
 697:stm32f4xx_rcc.c ****   *         You can use RCC_GetSYSCLKSource() function to know which clock is
 698:stm32f4xx_rcc.c ****   *         currently used as system clock source. 
 699:stm32f4xx_rcc.c ****   * @param  RCC_SYSCLKSource: specifies the clock source used as system clock.
 700:stm32f4xx_rcc.c ****   *          This parameter can be one of the following values:
 701:stm32f4xx_rcc.c ****   *            @arg RCC_SYSCLKSource_HSI:    HSI selected as system clock source
 702:stm32f4xx_rcc.c ****   *            @arg RCC_SYSCLKSource_HSE:    HSE selected as system clock source
 703:stm32f4xx_rcc.c ****   *            @arg RCC_SYSCLKSource_PLLCLK: PLL selected as system clock source
 704:stm32f4xx_rcc.c ****   * @retval None
 705:stm32f4xx_rcc.c ****   */
 706:stm32f4xx_rcc.c **** void RCC_SYSCLKConfig(uint32_t RCC_SYSCLKSource)
 707:stm32f4xx_rcc.c **** {
 506              		.loc 1 707 0
 507              		.cfi_startproc
 508              		@ args = 0, pretend = 0, frame = 0
 509              		@ frame_needed = 0, uses_anonymous_args = 0
 510              		@ link register save eliminated.
 511              	.LVL32:
 708:stm32f4xx_rcc.c ****   uint32_t tmpreg = 0;
 709:stm32f4xx_rcc.c **** 
 710:stm32f4xx_rcc.c ****   /* Check the parameters */
 711:stm32f4xx_rcc.c ****   assert_param(IS_RCC_SYSCLK_SOURCE(RCC_SYSCLKSource));
 712:stm32f4xx_rcc.c **** 
 713:stm32f4xx_rcc.c ****   tmpreg = RCC->CFGR;
 512              		.loc 1 713 0
 513 0000 034B     		ldr	r3, .L45	@ tmp138,
 514 0002 9A68     		ldr	r2, [r3, #8]	@ tmpreg, MEM[(struct RCC_TypeDef *)1073887232B].CFGR
 515              	.LVL33:
 714:stm32f4xx_rcc.c **** 
 715:stm32f4xx_rcc.c ****   /* Clear SW[1:0] bits */
 716:stm32f4xx_rcc.c ****   tmpreg &= ~RCC_CFGR_SW;
 516              		.loc 1 716 0
 517 0004 22F00301 		bic	r1, r2, #3	@ tmpreg, tmpreg,
 518              	.LVL34:
 717:stm32f4xx_rcc.c **** 
 718:stm32f4xx_rcc.c ****   /* Set SW[1:0] bits according to RCC_SYSCLKSource value */
 719:stm32f4xx_rcc.c ****   tmpreg |= RCC_SYSCLKSource;
 519              		.loc 1 719 0
 520 0008 0843     		orrs	r0, r0, r1	@, tmpreg, RCC_SYSCLKSource, tmpreg
 521              	.LVL35:
 720:stm32f4xx_rcc.c **** 
 721:stm32f4xx_rcc.c ****   /* Store the new value */
 722:stm32f4xx_rcc.c ****   RCC->CFGR = tmpreg;
 522              		.loc 1 722 0
 523 000a 9860     		str	r0, [r3, #8]	@ tmpreg, MEM[(struct RCC_TypeDef *)1073887232B].CFGR
 524 000c 7047     		bx	lr	@
 525              	.L46:
 526 000e 00BF     		.align	2
ARM GAS  /tmp/cc69dDoz.s 			page 23


 527              	.L45:
 528 0010 00380240 		.word	1073887232
 529              		.cfi_endproc
 530              	.LFE124:
 531              		.size	RCC_SYSCLKConfig, .-RCC_SYSCLKConfig
 532              		.section	.text.RCC_GetSYSCLKSource,"ax",%progbits
 533              		.align	1
 534              		.global	RCC_GetSYSCLKSource
 535              		.thumb
 536              		.thumb_func
 537              		.type	RCC_GetSYSCLKSource, %function
 538              	RCC_GetSYSCLKSource:
 539              	.LFB125:
 723:stm32f4xx_rcc.c **** }
 724:stm32f4xx_rcc.c **** 
 725:stm32f4xx_rcc.c **** /**
 726:stm32f4xx_rcc.c ****   * @brief  Returns the clock source used as system clock.
 727:stm32f4xx_rcc.c ****   * @param  None
 728:stm32f4xx_rcc.c ****   * @retval The clock source used as system clock. The returned value can be one
 729:stm32f4xx_rcc.c ****   *         of the following:
 730:stm32f4xx_rcc.c ****   *              - 0x00: HSI used as system clock
 731:stm32f4xx_rcc.c ****   *              - 0x04: HSE used as system clock
 732:stm32f4xx_rcc.c ****   *              - 0x08: PLL used as system clock
 733:stm32f4xx_rcc.c ****   */
 734:stm32f4xx_rcc.c **** uint8_t RCC_GetSYSCLKSource(void)
 735:stm32f4xx_rcc.c **** {
 540              		.loc 1 735 0
 541              		.cfi_startproc
 542              		@ args = 0, pretend = 0, frame = 0
 543              		@ frame_needed = 0, uses_anonymous_args = 0
 544              		@ link register save eliminated.
 736:stm32f4xx_rcc.c ****   return ((uint8_t)(RCC->CFGR & RCC_CFGR_SWS));
 545              		.loc 1 736 0
 546 0000 024B     		ldr	r3, .L48	@ tmp138,
 547 0002 9868     		ldr	r0, [r3, #8]	@ D.6326, MEM[(struct RCC_TypeDef *)1073887232B].CFGR
 737:stm32f4xx_rcc.c **** }
 548              		.loc 1 737 0
 549 0004 00F00C00 		and	r0, r0, #12	@, D.6326,
 550 0008 7047     		bx	lr	@
 551              	.L49:
 552 000a 00BF     		.align	2
 553              	.L48:
 554 000c 00380240 		.word	1073887232
 555              		.cfi_endproc
 556              	.LFE125:
 557              		.size	RCC_GetSYSCLKSource, .-RCC_GetSYSCLKSource
 558              		.section	.text.RCC_HCLKConfig,"ax",%progbits
 559              		.align	1
 560              		.global	RCC_HCLKConfig
 561              		.thumb
 562              		.thumb_func
 563              		.type	RCC_HCLKConfig, %function
 564              	RCC_HCLKConfig:
 565              	.LFB126:
 738:stm32f4xx_rcc.c **** 
 739:stm32f4xx_rcc.c **** /**
 740:stm32f4xx_rcc.c ****   * @brief  Configures the AHB clock (HCLK).
ARM GAS  /tmp/cc69dDoz.s 			page 24


 741:stm32f4xx_rcc.c ****   * @note   Depending on the device voltage range, the software has to set correctly
 742:stm32f4xx_rcc.c ****   *         these bits to ensure that HCLK not exceed the maximum allowed frequency
 743:stm32f4xx_rcc.c ****   *         (for more details refer to section above
 744:stm32f4xx_rcc.c ****   *           "CPU, AHB and APB busses clocks configuration functions")
 745:stm32f4xx_rcc.c ****   * @param  RCC_SYSCLK: defines the AHB clock divider. This clock is derived from 
 746:stm32f4xx_rcc.c ****   *         the system clock (SYSCLK).
 747:stm32f4xx_rcc.c ****   *          This parameter can be one of the following values:
 748:stm32f4xx_rcc.c ****   *            @arg RCC_SYSCLK_Div1: AHB clock = SYSCLK
 749:stm32f4xx_rcc.c ****   *            @arg RCC_SYSCLK_Div2: AHB clock = SYSCLK/2
 750:stm32f4xx_rcc.c ****   *            @arg RCC_SYSCLK_Div4: AHB clock = SYSCLK/4
 751:stm32f4xx_rcc.c ****   *            @arg RCC_SYSCLK_Div8: AHB clock = SYSCLK/8
 752:stm32f4xx_rcc.c ****   *            @arg RCC_SYSCLK_Div16: AHB clock = SYSCLK/16
 753:stm32f4xx_rcc.c ****   *            @arg RCC_SYSCLK_Div64: AHB clock = SYSCLK/64
 754:stm32f4xx_rcc.c ****   *            @arg RCC_SYSCLK_Div128: AHB clock = SYSCLK/128
 755:stm32f4xx_rcc.c ****   *            @arg RCC_SYSCLK_Div256: AHB clock = SYSCLK/256
 756:stm32f4xx_rcc.c ****   *            @arg RCC_SYSCLK_Div512: AHB clock = SYSCLK/512
 757:stm32f4xx_rcc.c ****   * @retval None
 758:stm32f4xx_rcc.c ****   */
 759:stm32f4xx_rcc.c **** void RCC_HCLKConfig(uint32_t RCC_SYSCLK)
 760:stm32f4xx_rcc.c **** {
 566              		.loc 1 760 0
 567              		.cfi_startproc
 568              		@ args = 0, pretend = 0, frame = 0
 569              		@ frame_needed = 0, uses_anonymous_args = 0
 570              		@ link register save eliminated.
 571              	.LVL36:
 761:stm32f4xx_rcc.c ****   uint32_t tmpreg = 0;
 762:stm32f4xx_rcc.c ****   
 763:stm32f4xx_rcc.c ****   /* Check the parameters */
 764:stm32f4xx_rcc.c ****   assert_param(IS_RCC_HCLK(RCC_SYSCLK));
 765:stm32f4xx_rcc.c **** 
 766:stm32f4xx_rcc.c ****   tmpreg = RCC->CFGR;
 572              		.loc 1 766 0
 573 0000 034B     		ldr	r3, .L51	@ tmp138,
 574 0002 9A68     		ldr	r2, [r3, #8]	@ tmpreg, MEM[(struct RCC_TypeDef *)1073887232B].CFGR
 575              	.LVL37:
 767:stm32f4xx_rcc.c **** 
 768:stm32f4xx_rcc.c ****   /* Clear HPRE[3:0] bits */
 769:stm32f4xx_rcc.c ****   tmpreg &= ~RCC_CFGR_HPRE;
 576              		.loc 1 769 0
 577 0004 22F0F001 		bic	r1, r2, #240	@ tmpreg, tmpreg,
 578              	.LVL38:
 770:stm32f4xx_rcc.c **** 
 771:stm32f4xx_rcc.c ****   /* Set HPRE[3:0] bits according to RCC_SYSCLK value */
 772:stm32f4xx_rcc.c ****   tmpreg |= RCC_SYSCLK;
 579              		.loc 1 772 0
 580 0008 0843     		orrs	r0, r0, r1	@, tmpreg, RCC_SYSCLK, tmpreg
 581              	.LVL39:
 773:stm32f4xx_rcc.c **** 
 774:stm32f4xx_rcc.c ****   /* Store the new value */
 775:stm32f4xx_rcc.c ****   RCC->CFGR = tmpreg;
 582              		.loc 1 775 0
 583 000a 9860     		str	r0, [r3, #8]	@ tmpreg, MEM[(struct RCC_TypeDef *)1073887232B].CFGR
 584 000c 7047     		bx	lr	@
 585              	.L52:
 586 000e 00BF     		.align	2
 587              	.L51:
ARM GAS  /tmp/cc69dDoz.s 			page 25


 588 0010 00380240 		.word	1073887232
 589              		.cfi_endproc
 590              	.LFE126:
 591              		.size	RCC_HCLKConfig, .-RCC_HCLKConfig
 592              		.section	.text.RCC_PCLK1Config,"ax",%progbits
 593              		.align	1
 594              		.global	RCC_PCLK1Config
 595              		.thumb
 596              		.thumb_func
 597              		.type	RCC_PCLK1Config, %function
 598              	RCC_PCLK1Config:
 599              	.LFB127:
 776:stm32f4xx_rcc.c **** }
 777:stm32f4xx_rcc.c **** 
 778:stm32f4xx_rcc.c **** 
 779:stm32f4xx_rcc.c **** /**
 780:stm32f4xx_rcc.c ****   * @brief  Configures the Low Speed APB clock (PCLK1).
 781:stm32f4xx_rcc.c ****   * @param  RCC_HCLK: defines the APB1 clock divider. This clock is derived from 
 782:stm32f4xx_rcc.c ****   *         the AHB clock (HCLK).
 783:stm32f4xx_rcc.c ****   *          This parameter can be one of the following values:
 784:stm32f4xx_rcc.c ****   *            @arg RCC_HCLK_Div1:  APB1 clock = HCLK
 785:stm32f4xx_rcc.c ****   *            @arg RCC_HCLK_Div2:  APB1 clock = HCLK/2
 786:stm32f4xx_rcc.c ****   *            @arg RCC_HCLK_Div4:  APB1 clock = HCLK/4
 787:stm32f4xx_rcc.c ****   *            @arg RCC_HCLK_Div8:  APB1 clock = HCLK/8
 788:stm32f4xx_rcc.c ****   *            @arg RCC_HCLK_Div16: APB1 clock = HCLK/16
 789:stm32f4xx_rcc.c ****   * @retval None
 790:stm32f4xx_rcc.c ****   */
 791:stm32f4xx_rcc.c **** void RCC_PCLK1Config(uint32_t RCC_HCLK)
 792:stm32f4xx_rcc.c **** {
 600              		.loc 1 792 0
 601              		.cfi_startproc
 602              		@ args = 0, pretend = 0, frame = 0
 603              		@ frame_needed = 0, uses_anonymous_args = 0
 604              		@ link register save eliminated.
 605              	.LVL40:
 793:stm32f4xx_rcc.c ****   uint32_t tmpreg = 0;
 794:stm32f4xx_rcc.c **** 
 795:stm32f4xx_rcc.c ****   /* Check the parameters */
 796:stm32f4xx_rcc.c ****   assert_param(IS_RCC_PCLK(RCC_HCLK));
 797:stm32f4xx_rcc.c **** 
 798:stm32f4xx_rcc.c ****   tmpreg = RCC->CFGR;
 606              		.loc 1 798 0
 607 0000 034B     		ldr	r3, .L54	@ tmp138,
 608 0002 9A68     		ldr	r2, [r3, #8]	@ tmpreg, MEM[(struct RCC_TypeDef *)1073887232B].CFGR
 609              	.LVL41:
 799:stm32f4xx_rcc.c **** 
 800:stm32f4xx_rcc.c ****   /* Clear PPRE1[2:0] bits */
 801:stm32f4xx_rcc.c ****   tmpreg &= ~RCC_CFGR_PPRE1;
 610              		.loc 1 801 0
 611 0004 22F4E051 		bic	r1, r2, #7168	@ tmpreg, tmpreg,
 612              	.LVL42:
 802:stm32f4xx_rcc.c **** 
 803:stm32f4xx_rcc.c ****   /* Set PPRE1[2:0] bits according to RCC_HCLK value */
 804:stm32f4xx_rcc.c ****   tmpreg |= RCC_HCLK;
 613              		.loc 1 804 0
 614 0008 0843     		orrs	r0, r0, r1	@, tmpreg, RCC_HCLK, tmpreg
 615              	.LVL43:
ARM GAS  /tmp/cc69dDoz.s 			page 26


 805:stm32f4xx_rcc.c **** 
 806:stm32f4xx_rcc.c ****   /* Store the new value */
 807:stm32f4xx_rcc.c ****   RCC->CFGR = tmpreg;
 616              		.loc 1 807 0
 617 000a 9860     		str	r0, [r3, #8]	@ tmpreg, MEM[(struct RCC_TypeDef *)1073887232B].CFGR
 618 000c 7047     		bx	lr	@
 619              	.L55:
 620 000e 00BF     		.align	2
 621              	.L54:
 622 0010 00380240 		.word	1073887232
 623              		.cfi_endproc
 624              	.LFE127:
 625              		.size	RCC_PCLK1Config, .-RCC_PCLK1Config
 626              		.section	.text.RCC_PCLK2Config,"ax",%progbits
 627              		.align	1
 628              		.global	RCC_PCLK2Config
 629              		.thumb
 630              		.thumb_func
 631              		.type	RCC_PCLK2Config, %function
 632              	RCC_PCLK2Config:
 633              	.LFB128:
 808:stm32f4xx_rcc.c **** }
 809:stm32f4xx_rcc.c **** 
 810:stm32f4xx_rcc.c **** /**
 811:stm32f4xx_rcc.c ****   * @brief  Configures the High Speed APB clock (PCLK2).
 812:stm32f4xx_rcc.c ****   * @param  RCC_HCLK: defines the APB2 clock divider. This clock is derived from 
 813:stm32f4xx_rcc.c ****   *         the AHB clock (HCLK).
 814:stm32f4xx_rcc.c ****   *          This parameter can be one of the following values:
 815:stm32f4xx_rcc.c ****   *            @arg RCC_HCLK_Div1:  APB2 clock = HCLK
 816:stm32f4xx_rcc.c ****   *            @arg RCC_HCLK_Div2:  APB2 clock = HCLK/2
 817:stm32f4xx_rcc.c ****   *            @arg RCC_HCLK_Div4:  APB2 clock = HCLK/4
 818:stm32f4xx_rcc.c ****   *            @arg RCC_HCLK_Div8:  APB2 clock = HCLK/8
 819:stm32f4xx_rcc.c ****   *            @arg RCC_HCLK_Div16: APB2 clock = HCLK/16
 820:stm32f4xx_rcc.c ****   * @retval None
 821:stm32f4xx_rcc.c ****   */
 822:stm32f4xx_rcc.c **** void RCC_PCLK2Config(uint32_t RCC_HCLK)
 823:stm32f4xx_rcc.c **** {
 634              		.loc 1 823 0
 635              		.cfi_startproc
 636              		@ args = 0, pretend = 0, frame = 0
 637              		@ frame_needed = 0, uses_anonymous_args = 0
 638              		@ link register save eliminated.
 639              	.LVL44:
 824:stm32f4xx_rcc.c ****   uint32_t tmpreg = 0;
 825:stm32f4xx_rcc.c **** 
 826:stm32f4xx_rcc.c ****   /* Check the parameters */
 827:stm32f4xx_rcc.c ****   assert_param(IS_RCC_PCLK(RCC_HCLK));
 828:stm32f4xx_rcc.c **** 
 829:stm32f4xx_rcc.c ****   tmpreg = RCC->CFGR;
 640              		.loc 1 829 0
 641 0000 034B     		ldr	r3, .L57	@ tmp139,
 642 0002 9A68     		ldr	r2, [r3, #8]	@ tmpreg, MEM[(struct RCC_TypeDef *)1073887232B].CFGR
 643              	.LVL45:
 830:stm32f4xx_rcc.c **** 
 831:stm32f4xx_rcc.c ****   /* Clear PPRE2[2:0] bits */
 832:stm32f4xx_rcc.c ****   tmpreg &= ~RCC_CFGR_PPRE2;
 644              		.loc 1 832 0
ARM GAS  /tmp/cc69dDoz.s 			page 27


 645 0004 22F46041 		bic	r1, r2, #57344	@ tmpreg, tmpreg,
 646              	.LVL46:
 833:stm32f4xx_rcc.c **** 
 834:stm32f4xx_rcc.c ****   /* Set PPRE2[2:0] bits according to RCC_HCLK value */
 835:stm32f4xx_rcc.c ****   tmpreg |= RCC_HCLK << 3;
 647              		.loc 1 835 0
 648 0008 41EAC000 		orr	r0, r1, r0, lsl #3	@, tmpreg, tmpreg, RCC_HCLK,
 649              	.LVL47:
 836:stm32f4xx_rcc.c **** 
 837:stm32f4xx_rcc.c ****   /* Store the new value */
 838:stm32f4xx_rcc.c ****   RCC->CFGR = tmpreg;
 650              		.loc 1 838 0
 651 000c 9860     		str	r0, [r3, #8]	@ tmpreg, MEM[(struct RCC_TypeDef *)1073887232B].CFGR
 652 000e 7047     		bx	lr	@
 653              	.L58:
 654              		.align	2
 655              	.L57:
 656 0010 00380240 		.word	1073887232
 657              		.cfi_endproc
 658              	.LFE128:
 659              		.size	RCC_PCLK2Config, .-RCC_PCLK2Config
 660              		.section	.text.RCC_GetClocksFreq,"ax",%progbits
 661              		.align	1
 662              		.global	RCC_GetClocksFreq
 663              		.thumb
 664              		.thumb_func
 665              		.type	RCC_GetClocksFreq, %function
 666              	RCC_GetClocksFreq:
 667              	.LFB129:
 839:stm32f4xx_rcc.c **** }
 840:stm32f4xx_rcc.c **** 
 841:stm32f4xx_rcc.c **** /**
 842:stm32f4xx_rcc.c ****   * @brief  Returns the frequencies of different on chip clocks; SYSCLK, HCLK, 
 843:stm32f4xx_rcc.c ****   *         PCLK1 and PCLK2.       
 844:stm32f4xx_rcc.c ****   * 
 845:stm32f4xx_rcc.c ****   * @note   The system frequency computed by this function is not the real 
 846:stm32f4xx_rcc.c ****   *         frequency in the chip. It is calculated based on the predefined 
 847:stm32f4xx_rcc.c ****   *         constant and the selected clock source:
 848:stm32f4xx_rcc.c ****   * @note     If SYSCLK source is HSI, function returns values based on HSI_VALUE(*)
 849:stm32f4xx_rcc.c ****   * @note     If SYSCLK source is HSE, function returns values based on HSE_VALUE(**)
 850:stm32f4xx_rcc.c ****   * @note     If SYSCLK source is PLL, function returns values based on HSE_VALUE(**) 
 851:stm32f4xx_rcc.c ****   *           or HSI_VALUE(*) multiplied/divided by the PLL factors.         
 852:stm32f4xx_rcc.c ****   * @note     (*) HSI_VALUE is a constant defined in stm32f4xx.h file (default value
 853:stm32f4xx_rcc.c ****   *               16 MHz) but the real value may vary depending on the variations
 854:stm32f4xx_rcc.c ****   *               in voltage and temperature.
 855:stm32f4xx_rcc.c ****   * @note     (**) HSE_VALUE is a constant defined in stm32f4xx.h file (default value
 856:stm32f4xx_rcc.c ****   *                25 MHz), user has to ensure that HSE_VALUE is same as the real
 857:stm32f4xx_rcc.c ****   *                frequency of the crystal used. Otherwise, this function may
 858:stm32f4xx_rcc.c ****   *                have wrong result.
 859:stm32f4xx_rcc.c ****   *                
 860:stm32f4xx_rcc.c ****   * @note   The result of this function could be not correct when using fractional
 861:stm32f4xx_rcc.c ****   *         value for HSE crystal.
 862:stm32f4xx_rcc.c ****   *   
 863:stm32f4xx_rcc.c ****   * @param  RCC_Clocks: pointer to a RCC_ClocksTypeDef structure which will hold
 864:stm32f4xx_rcc.c ****   *          the clocks frequencies.
 865:stm32f4xx_rcc.c ****   *     
 866:stm32f4xx_rcc.c ****   * @note   This function can be used by the user application to compute the 
ARM GAS  /tmp/cc69dDoz.s 			page 28


 867:stm32f4xx_rcc.c ****   *         baudrate for the communication peripherals or configure other parameters.
 868:stm32f4xx_rcc.c ****   * @note   Each time SYSCLK, HCLK, PCLK1 and/or PCLK2 clock changes, this function
 869:stm32f4xx_rcc.c ****   *         must be called to update the structure's field. Otherwise, any
 870:stm32f4xx_rcc.c ****   *         configuration based on this function will be incorrect.
 871:stm32f4xx_rcc.c ****   *    
 872:stm32f4xx_rcc.c ****   * @retval None
 873:stm32f4xx_rcc.c ****   */
 874:stm32f4xx_rcc.c **** void RCC_GetClocksFreq(RCC_ClocksTypeDef* RCC_Clocks)
 875:stm32f4xx_rcc.c **** {
 668              		.loc 1 875 0
 669              		.cfi_startproc
 670              		@ args = 0, pretend = 0, frame = 0
 671              		@ frame_needed = 0, uses_anonymous_args = 0
 672              	.LVL48:
 876:stm32f4xx_rcc.c ****   uint32_t tmp = 0, presc = 0, pllvco = 0, pllp = 2, pllsource = 0, pllm = 2;
 877:stm32f4xx_rcc.c **** 
 878:stm32f4xx_rcc.c ****   /* Get SYSCLK source -------------------------------------------------------*/
 879:stm32f4xx_rcc.c ****   tmp = RCC->CFGR & RCC_CFGR_SWS;
 673              		.loc 1 879 0
 674 0000 1E4B     		ldr	r3, .L69	@ tmp176,
 675 0002 9A68     		ldr	r2, [r3, #8]	@ D.6289, MEM[(struct RCC_TypeDef *)1073887232B].CFGR
 676              	.LVL49:
 677 0004 02F00C01 		and	r1, r2, #12	@ tmp177, D.6289,
 678              	.LVL50:
 880:stm32f4xx_rcc.c **** 
 881:stm32f4xx_rcc.c ****   switch (tmp)
 679              		.loc 1 881 0
 680 0008 0429     		cmp	r1, #4	@ tmp177,
 875:stm32f4xx_rcc.c **** {
 681              		.loc 1 875 0
 682 000a 10B5     		push	{r4, lr}	@
 683              	.LCFI1:
 684              		.cfi_def_cfa_offset 8
 685              		.cfi_offset 4, -8
 686              		.cfi_offset 14, -4
 687              		.loc 1 881 0
 688 000c 03D0     		beq	.L62	@,
 689 000e 0829     		cmp	r1, #8	@ tmp177,
 690 0010 03D0     		beq	.L63	@,
 691 0012 1B4B     		ldr	r3, .L69+4	@ tmp223,
 692 0014 18E0     		b	.L68	@
 693              	.L62:
 882:stm32f4xx_rcc.c ****   {
 883:stm32f4xx_rcc.c ****     case 0x00:  /* HSI used as system clock source */
 884:stm32f4xx_rcc.c ****       RCC_Clocks->SYSCLK_Frequency = HSI_VALUE;
 885:stm32f4xx_rcc.c ****       break;
 886:stm32f4xx_rcc.c ****     case 0x04:  /* HSE used as system clock  source */
 887:stm32f4xx_rcc.c ****       RCC_Clocks->SYSCLK_Frequency = HSE_VALUE;
 694              		.loc 1 887 0
 695 0016 1B4B     		ldr	r3, .L69+8	@ tmp179,
 696 0018 16E0     		b	.L68	@
 697              	.L63:
 888:stm32f4xx_rcc.c ****       break;
 889:stm32f4xx_rcc.c ****     case 0x08:  /* PLL used as system clock  source */
 890:stm32f4xx_rcc.c **** 
 891:stm32f4xx_rcc.c ****       /* PLL_VCO = (HSE_VALUE or HSI_VALUE / PLLM) * PLLN
 892:stm32f4xx_rcc.c ****          SYSCLK = PLL_VCO / PLLP
ARM GAS  /tmp/cc69dDoz.s 			page 29


 893:stm32f4xx_rcc.c ****          */    
 894:stm32f4xx_rcc.c ****       pllsource = (RCC->PLLCFGR & RCC_PLLCFGR_PLLSRC) >> 22;
 698              		.loc 1 894 0
 699 001a 5C68     		ldr	r4, [r3, #4]	@ D.6290, MEM[(struct RCC_TypeDef *)1073887232B].PLLCFGR
 700              	.LVL51:
 895:stm32f4xx_rcc.c ****       pllm = RCC->PLLCFGR & RCC_PLLCFGR_PLLM;
 701              		.loc 1 895 0
 702 001c 5A68     		ldr	r2, [r3, #4]	@ D.6292, MEM[(struct RCC_TypeDef *)1073887232B].PLLCFGR
 896:stm32f4xx_rcc.c ****       
 897:stm32f4xx_rcc.c ****       if (pllsource != 0)
 898:stm32f4xx_rcc.c ****       {
 899:stm32f4xx_rcc.c ****         /* HSE used as PLL clock source */
 900:stm32f4xx_rcc.c ****         pllvco = (HSE_VALUE / pllm) * ((RCC->PLLCFGR & RCC_PLLCFGR_PLLN) >> 6);
 703              		.loc 1 900 0
 704 001e 5968     		ldr	r1, [r3, #4]	@ D.6296,
 705              	.LVL52:
 897:stm32f4xx_rcc.c ****       if (pllsource != 0)
 706              		.loc 1 897 0
 707 0020 14F4800F 		tst	r4, #4194304	@ D.6290,
 708              		.loc 1 900 0
 709 0024 14BF     		ite	ne
 710 0026 174B     		ldrne	r3, .L69+8	@ tmp190,
 901:stm32f4xx_rcc.c ****       }
 902:stm32f4xx_rcc.c ****       else
 903:stm32f4xx_rcc.c ****       {
 904:stm32f4xx_rcc.c ****         /* HSI used as PLL clock source */
 905:stm32f4xx_rcc.c ****         pllvco = (HSI_VALUE / pllm) * ((RCC->PLLCFGR & RCC_PLLCFGR_PLLN) >> 6);      
 711              		.loc 1 905 0
 712 0028 154B     		ldreq	r3, .L69+4	@ tmp197,
 895:stm32f4xx_rcc.c ****       pllm = RCC->PLLCFGR & RCC_PLLCFGR_PLLM;
 713              		.loc 1 895 0
 714 002a 02F03F02 		and	r2, r2, #63	@ pllm, D.6292,
 715              	.LVL53:
 716              		.loc 1 905 0
 717 002e B3FBF2F3 		udiv	r3, r3, r2	@ tmp196, tmp197, pllm
 906:stm32f4xx_rcc.c ****       }
 907:stm32f4xx_rcc.c **** 
 908:stm32f4xx_rcc.c ****       pllp = (((RCC->PLLCFGR & RCC_PLLCFGR_PLLP) >>16) + 1 ) *2;
 718              		.loc 1 908 0
 719 0032 124A     		ldr	r2, .L69	@ tmp198,
 720              	.LVL54:
 900:stm32f4xx_rcc.c ****         pllvco = (HSE_VALUE / pllm) * ((RCC->PLLCFGR & RCC_PLLCFGR_PLLN) >> 6);
 721              		.loc 1 900 0
 722 0034 C1F38814 		ubfx	r4, r1, #6, #9	@ tmp187, D.6296,,
 723              	.LVL55:
 724              		.loc 1 908 0
 725 0038 5168     		ldr	r1, [r2, #4]	@ D.6304, MEM[(struct RCC_TypeDef *)1073887232B].PLLCFGR
 905:stm32f4xx_rcc.c ****         pllvco = (HSI_VALUE / pllm) * ((RCC->PLLCFGR & RCC_PLLCFGR_PLLN) >> 6);      
 726              		.loc 1 905 0
 727 003a 6343     		muls	r3, r4, r3	@ pllvco, tmp194
 728              	.LVL56:
 729              		.loc 1 908 0
 730 003c C1F30144 		ubfx	r4, r1, #16, #2	@ tmp200, D.6304,,
 731 0040 621C     		adds	r2, r4, #1	@ tmp201, tmp200,
 732 0042 5100     		lsls	r1, r2, #1	@ tmp202, tmp201,
 733              	.LVL57:
 909:stm32f4xx_rcc.c ****       RCC_Clocks->SYSCLK_Frequency = pllvco/pllp;
ARM GAS  /tmp/cc69dDoz.s 			page 30


 734              		.loc 1 909 0
 735 0044 B3FBF1F3 		udiv	r3, r3, r1	@ tmp203, pllvco, tmp202
 736              	.LVL58:
 737              	.L68:
 910:stm32f4xx_rcc.c ****       break;
 911:stm32f4xx_rcc.c ****     default:
 912:stm32f4xx_rcc.c ****       RCC_Clocks->SYSCLK_Frequency = HSI_VALUE;
 913:stm32f4xx_rcc.c ****       break;
 914:stm32f4xx_rcc.c ****   }
 915:stm32f4xx_rcc.c ****   /* Compute HCLK, PCLK1 and PCLK2 clocks frequencies ------------------------*/
 916:stm32f4xx_rcc.c **** 
 917:stm32f4xx_rcc.c ****   /* Get HCLK prescaler */
 918:stm32f4xx_rcc.c ****   tmp = RCC->CFGR & RCC_CFGR_HPRE;
 738              		.loc 1 918 0
 739 0048 0C49     		ldr	r1, .L69	@ tmp205,
 909:stm32f4xx_rcc.c ****       RCC_Clocks->SYSCLK_Frequency = pllvco/pllp;
 740              		.loc 1 909 0
 741 004a 0360     		str	r3, [r0, #0]	@ tmp203, RCC_Clocks_11(D)->SYSCLK_Frequency
 742              		.loc 1 918 0
 743 004c 8C68     		ldr	r4, [r1, #8]	@ D.6309, MEM[(struct RCC_TypeDef *)1073887232B].CFGR
 744              	.LVL59:
 919:stm32f4xx_rcc.c ****   tmp = tmp >> 4;
 920:stm32f4xx_rcc.c ****   presc = APBAHBPrescTable[tmp];
 745              		.loc 1 920 0
 746 004e 0E4A     		ldr	r2, .L69+12	@ tmp206,
 919:stm32f4xx_rcc.c ****   tmp = tmp >> 4;
 747              		.loc 1 919 0
 748 0050 C4F30313 		ubfx	r3, r4, #4, #4	@ tmp, D.6309,,
 749              	.LVL60:
 750              		.loc 1 920 0
 751 0054 D45C     		ldrb	r4, [r2, r3]	@ zero_extendqisi2	@ tmp209, APBAHBPrescTable
 752              	.LVL61:
 921:stm32f4xx_rcc.c ****   /* HCLK clock frequency */
 922:stm32f4xx_rcc.c ****   RCC_Clocks->HCLK_Frequency = RCC_Clocks->SYSCLK_Frequency >> presc;
 753              		.loc 1 922 0
 754 0056 0368     		ldr	r3, [r0, #0]	@ RCC_Clocks_11(D)->SYSCLK_Frequency, RCC_Clocks_11(D)->SYSCLK_Frequency
 755              	.LVL62:
 756 0058 23FA04F3 		lsr	r3, r3, r4	@ D.6313, RCC_Clocks_11(D)->SYSCLK_Frequency, tmp209
 757 005c 4360     		str	r3, [r0, #4]	@ D.6313, RCC_Clocks_11(D)->HCLK_Frequency
 923:stm32f4xx_rcc.c **** 
 924:stm32f4xx_rcc.c ****   /* Get PCLK1 prescaler */
 925:stm32f4xx_rcc.c ****   tmp = RCC->CFGR & RCC_CFGR_PPRE1;
 758              		.loc 1 925 0
 759 005e 8C68     		ldr	r4, [r1, #8]	@ D.6314, MEM[(struct RCC_TypeDef *)1073887232B].CFGR
 760              	.LVL63:
 926:stm32f4xx_rcc.c ****   tmp = tmp >> 10;
 761              		.loc 1 926 0
 762 0060 C4F38224 		ubfx	r4, r4, #10, #3	@ tmp, D.6314,,
 763              	.LVL64:
 927:stm32f4xx_rcc.c ****   presc = APBAHBPrescTable[tmp];
 764              		.loc 1 927 0
 765 0064 145D     		ldrb	r4, [r2, r4]	@ zero_extendqisi2	@ tmp215, APBAHBPrescTable
 766              	.LVL65:
 928:stm32f4xx_rcc.c ****   /* PCLK1 clock frequency */
 929:stm32f4xx_rcc.c ****   RCC_Clocks->PCLK1_Frequency = RCC_Clocks->HCLK_Frequency >> presc;
 767              		.loc 1 929 0
 768 0066 23FA04F4 		lsr	r4, r3, r4	@ tmp216, D.6313, tmp215
ARM GAS  /tmp/cc69dDoz.s 			page 31


 769              	.LVL66:
 770 006a 8460     		str	r4, [r0, #8]	@ tmp216, RCC_Clocks_11(D)->PCLK1_Frequency
 930:stm32f4xx_rcc.c **** 
 931:stm32f4xx_rcc.c ****   /* Get PCLK2 prescaler */
 932:stm32f4xx_rcc.c ****   tmp = RCC->CFGR & RCC_CFGR_PPRE2;
 771              		.loc 1 932 0
 772 006c 8968     		ldr	r1, [r1, #8]	@ D.6318, MEM[(struct RCC_TypeDef *)1073887232B].CFGR
 773              	.LVL67:
 933:stm32f4xx_rcc.c ****   tmp = tmp >> 13;
 774              		.loc 1 933 0
 775 006e C1F34231 		ubfx	r1, r1, #13, #3	@ tmp, D.6318,,
 776              	.LVL68:
 934:stm32f4xx_rcc.c ****   presc = APBAHBPrescTable[tmp];
 777              		.loc 1 934 0
 778 0072 525C     		ldrb	r2, [r2, r1]	@ zero_extendqisi2	@ tmp221, APBAHBPrescTable
 779              	.LVL69:
 935:stm32f4xx_rcc.c ****   /* PCLK2 clock frequency */
 936:stm32f4xx_rcc.c ****   RCC_Clocks->PCLK2_Frequency = RCC_Clocks->HCLK_Frequency >> presc;
 780              		.loc 1 936 0
 781 0074 23FA02F3 		lsr	r3, r3, r2	@ tmp222, D.6313, tmp221
 782 0078 C360     		str	r3, [r0, #12]	@ tmp222, RCC_Clocks_11(D)->PCLK2_Frequency
 783 007a 10BD     		pop	{r4, pc}	@
 784              	.L70:
 785              		.align	2
 786              	.L69:
 787 007c 00380240 		.word	1073887232
 788 0080 0024F400 		.word	16000000
 789 0084 00127A00 		.word	8000000
 790 0088 00000000 		.word	.LANCHOR0
 791              		.cfi_endproc
 792              	.LFE129:
 793              		.size	RCC_GetClocksFreq, .-RCC_GetClocksFreq
 794              		.section	.text.RCC_RTCCLKConfig,"ax",%progbits
 795              		.align	1
 796              		.global	RCC_RTCCLKConfig
 797              		.thumb
 798              		.thumb_func
 799              		.type	RCC_RTCCLKConfig, %function
 800              	RCC_RTCCLKConfig:
 801              	.LFB130:
 937:stm32f4xx_rcc.c **** }
 938:stm32f4xx_rcc.c **** 
 939:stm32f4xx_rcc.c **** /**
 940:stm32f4xx_rcc.c ****   * @}
 941:stm32f4xx_rcc.c ****   */
 942:stm32f4xx_rcc.c **** 
 943:stm32f4xx_rcc.c **** /** @defgroup RCC_Group3 Peripheral clocks configuration functions
 944:stm32f4xx_rcc.c ****  *  @brief   Peripheral clocks configuration functions 
 945:stm32f4xx_rcc.c ****  *
 946:stm32f4xx_rcc.c **** @verbatim   
 947:stm32f4xx_rcc.c ****  ===============================================================================
 948:stm32f4xx_rcc.c ****               ##### Peripheral clocks configuration functions #####
 949:stm32f4xx_rcc.c ****  ===============================================================================  
 950:stm32f4xx_rcc.c ****     [..] This section provide functions allowing to configure the Peripheral clocks. 
 951:stm32f4xx_rcc.c ****   
 952:stm32f4xx_rcc.c ****       (#) The RTC clock which is derived from the LSI, LSE or HSE clock divided 
 953:stm32f4xx_rcc.c ****           by 2 to 31.
ARM GAS  /tmp/cc69dDoz.s 			page 32


 954:stm32f4xx_rcc.c ****      
 955:stm32f4xx_rcc.c ****       (#) After restart from Reset or wakeup from STANDBY, all peripherals are off
 956:stm32f4xx_rcc.c ****           except internal SRAM, Flash and JTAG. Before to start using a peripheral 
 957:stm32f4xx_rcc.c ****           you have to enable its interface clock. You can do this using 
 958:stm32f4xx_rcc.c ****           RCC_AHBPeriphClockCmd(), RCC_APB2PeriphClockCmd() and RCC_APB1PeriphClockCmd() functions.
 959:stm32f4xx_rcc.c **** 
 960:stm32f4xx_rcc.c ****       (#) To reset the peripherals configuration (to the default state after device reset)
 961:stm32f4xx_rcc.c ****           you can use RCC_AHBPeriphResetCmd(), RCC_APB2PeriphResetCmd() and 
 962:stm32f4xx_rcc.c ****           RCC_APB1PeriphResetCmd() functions.
 963:stm32f4xx_rcc.c ****      
 964:stm32f4xx_rcc.c ****       (#) To further reduce power consumption in SLEEP mode the peripheral clocks 
 965:stm32f4xx_rcc.c ****           can be disabled prior to executing the WFI or WFE instructions. 
 966:stm32f4xx_rcc.c ****           You can do this using RCC_AHBPeriphClockLPModeCmd(), 
 967:stm32f4xx_rcc.c ****           RCC_APB2PeriphClockLPModeCmd() and RCC_APB1PeriphClockLPModeCmd() functions.  
 968:stm32f4xx_rcc.c **** 
 969:stm32f4xx_rcc.c **** @endverbatim
 970:stm32f4xx_rcc.c ****   * @{
 971:stm32f4xx_rcc.c ****   */
 972:stm32f4xx_rcc.c **** 
 973:stm32f4xx_rcc.c **** /**
 974:stm32f4xx_rcc.c ****   * @brief  Configures the RTC clock (RTCCLK).
 975:stm32f4xx_rcc.c ****   * @note   As the RTC clock configuration bits are in the Backup domain and write
 976:stm32f4xx_rcc.c ****   *         access is denied to this domain after reset, you have to enable write
 977:stm32f4xx_rcc.c ****   *         access using PWR_BackupAccessCmd(ENABLE) function before to configure
 978:stm32f4xx_rcc.c ****   *         the RTC clock source (to be done once after reset).    
 979:stm32f4xx_rcc.c ****   * @note   Once the RTC clock is configured it can't be changed unless the  
 980:stm32f4xx_rcc.c ****   *         Backup domain is reset using RCC_BackupResetCmd() function, or by
 981:stm32f4xx_rcc.c ****   *         a Power On Reset (POR).
 982:stm32f4xx_rcc.c ****   *    
 983:stm32f4xx_rcc.c ****   * @param  RCC_RTCCLKSource: specifies the RTC clock source.
 984:stm32f4xx_rcc.c ****   *          This parameter can be one of the following values:
 985:stm32f4xx_rcc.c ****   *            @arg RCC_RTCCLKSource_LSE: LSE selected as RTC clock
 986:stm32f4xx_rcc.c ****   *            @arg RCC_RTCCLKSource_LSI: LSI selected as RTC clock
 987:stm32f4xx_rcc.c ****   *            @arg RCC_RTCCLKSource_HSE_Divx: HSE clock divided by x selected
 988:stm32f4xx_rcc.c ****   *                                            as RTC clock, where x:[2,31]
 989:stm32f4xx_rcc.c ****   *  
 990:stm32f4xx_rcc.c ****   * @note   If the LSE or LSI is used as RTC clock source, the RTC continues to
 991:stm32f4xx_rcc.c ****   *         work in STOP and STANDBY modes, and can be used as wakeup source.
 992:stm32f4xx_rcc.c ****   *         However, when the HSE clock is used as RTC clock source, the RTC
 993:stm32f4xx_rcc.c ****   *         cannot be used in STOP and STANDBY modes.    
 994:stm32f4xx_rcc.c ****   * @note   The maximum input clock frequency for RTC is 1MHz (when using HSE as
 995:stm32f4xx_rcc.c ****   *         RTC clock source).
 996:stm32f4xx_rcc.c ****   *  
 997:stm32f4xx_rcc.c ****   * @retval None
 998:stm32f4xx_rcc.c ****   */
 999:stm32f4xx_rcc.c **** void RCC_RTCCLKConfig(uint32_t RCC_RTCCLKSource)
1000:stm32f4xx_rcc.c **** {
 802              		.loc 1 1000 0
 803              		.cfi_startproc
 804              		@ args = 0, pretend = 0, frame = 0
 805              		@ frame_needed = 0, uses_anonymous_args = 0
 806              		@ link register save eliminated.
 807              	.LVL70:
1001:stm32f4xx_rcc.c ****   uint32_t tmpreg = 0;
1002:stm32f4xx_rcc.c **** 
1003:stm32f4xx_rcc.c ****   /* Check the parameters */
1004:stm32f4xx_rcc.c ****   assert_param(IS_RCC_RTCCLK_SOURCE(RCC_RTCCLKSource));
ARM GAS  /tmp/cc69dDoz.s 			page 33


1005:stm32f4xx_rcc.c **** 
1006:stm32f4xx_rcc.c ****   if ((RCC_RTCCLKSource & 0x00000300) == 0x00000300)
 808              		.loc 1 1006 0
 809 0000 00F44073 		and	r3, r0, #768	@ tmp143, RCC_RTCCLKSource,
 810 0004 B3F5407F 		cmp	r3, #768	@ tmp143,
 811 0008 084B     		ldr	r3, .L73	@ tmp152,
 812 000a 08D1     		bne	.L72	@,
1007:stm32f4xx_rcc.c ****   { /* If HSE is selected as RTC clock source, configure HSE division factor for RTC clock */
1008:stm32f4xx_rcc.c ****     tmpreg = RCC->CFGR;
 813              		.loc 1 1008 0
 814 000c 9968     		ldr	r1, [r3, #8]	@ tmpreg, MEM[(struct RCC_TypeDef *)1073887232B].CFGR
 815              	.LVL71:
1009:stm32f4xx_rcc.c **** 
1010:stm32f4xx_rcc.c ****     /* Clear RTCPRE[4:0] bits */
1011:stm32f4xx_rcc.c ****     tmpreg &= ~RCC_CFGR_RTCPRE;
1012:stm32f4xx_rcc.c **** 
1013:stm32f4xx_rcc.c ****     /* Configure HSE division factor for RTC clock */
1014:stm32f4xx_rcc.c ****     tmpreg |= (RCC_RTCCLKSource & 0xFFFFCFF);
 816              		.loc 1 1014 0
 817 000e 20F07042 		bic	r2, r0, #-268435456	@ tmp146, RCC_RTCCLKSource,
1011:stm32f4xx_rcc.c ****     tmpreg &= ~RCC_CFGR_RTCPRE;
 818              		.loc 1 1011 0
 819 0012 21F4F811 		bic	r1, r1, #2031616	@ tmpreg, tmpreg,
 820              	.LVL72:
 821              		.loc 1 1014 0
 822 0016 22F44072 		bic	r2, r2, #768	@ tmp145, tmp146,
 823 001a 0A43     		orrs	r2, r2, r1	@, tmpreg, tmp145, tmpreg
 824              	.LVL73:
1015:stm32f4xx_rcc.c **** 
1016:stm32f4xx_rcc.c ****     /* Store the new value */
1017:stm32f4xx_rcc.c ****     RCC->CFGR = tmpreg;
 825              		.loc 1 1017 0
 826 001c 9A60     		str	r2, [r3, #8]	@ tmpreg, MEM[(struct RCC_TypeDef *)1073887232B].CFGR
 827              	.LVL74:
 828              	.L72:
1018:stm32f4xx_rcc.c ****   }
1019:stm32f4xx_rcc.c ****     
1020:stm32f4xx_rcc.c ****   /* Select the RTC clock source */
1021:stm32f4xx_rcc.c ****   RCC->BDCR |= (RCC_RTCCLKSource & 0x00000FFF);
 829              		.loc 1 1021 0
 830 001e 196F     		ldr	r1, [r3, #112]	@ D.6285, MEM[(struct RCC_TypeDef *)1073887232B].BDCR
 831 0020 0005     		lsls	r0, r0, #20	@ tmp150, RCC_RTCCLKSource,
 832              	.LVL75:
 833 0022 41EA1052 		orr	r2, r1, r0, lsr #20	@, D.6287, D.6285, tmp150,
 834 0026 1A67     		str	r2, [r3, #112]	@ D.6287, MEM[(struct RCC_TypeDef *)1073887232B].BDCR
 835 0028 7047     		bx	lr	@
 836              	.L74:
 837 002a 00BF     		.align	2
 838              	.L73:
 839 002c 00380240 		.word	1073887232
 840              		.cfi_endproc
 841              	.LFE130:
 842              		.size	RCC_RTCCLKConfig, .-RCC_RTCCLKConfig
 843              		.section	.text.RCC_RTCCLKCmd,"ax",%progbits
 844              		.align	1
 845              		.global	RCC_RTCCLKCmd
 846              		.thumb
ARM GAS  /tmp/cc69dDoz.s 			page 34


 847              		.thumb_func
 848              		.type	RCC_RTCCLKCmd, %function
 849              	RCC_RTCCLKCmd:
 850              	.LFB131:
1022:stm32f4xx_rcc.c **** }
1023:stm32f4xx_rcc.c **** 
1024:stm32f4xx_rcc.c **** /**
1025:stm32f4xx_rcc.c ****   * @brief  Enables or disables the RTC clock.
1026:stm32f4xx_rcc.c ****   * @note   This function must be used only after the RTC clock source was selected
1027:stm32f4xx_rcc.c ****   *         using the RCC_RTCCLKConfig function.
1028:stm32f4xx_rcc.c ****   * @param  NewState: new state of the RTC clock. This parameter can be: ENABLE or DISABLE.
1029:stm32f4xx_rcc.c ****   * @retval None
1030:stm32f4xx_rcc.c ****   */
1031:stm32f4xx_rcc.c **** void RCC_RTCCLKCmd(FunctionalState NewState)
1032:stm32f4xx_rcc.c **** {
 851              		.loc 1 1032 0
 852              		.cfi_startproc
 853              		@ args = 0, pretend = 0, frame = 0
 854              		@ frame_needed = 0, uses_anonymous_args = 0
 855              		@ link register save eliminated.
 856              	.LVL76:
1033:stm32f4xx_rcc.c ****   /* Check the parameters */
1034:stm32f4xx_rcc.c ****   assert_param(IS_FUNCTIONAL_STATE(NewState));
1035:stm32f4xx_rcc.c **** 
1036:stm32f4xx_rcc.c ****   *(__IO uint32_t *) BDCR_RTCEN_BB = (uint32_t)NewState;
 857              		.loc 1 1036 0
 858 0000 014B     		ldr	r3, .L76	@ tmp136,
 859 0002 1860     		str	r0, [r3, #0]	@ NewState, MEM[(volatile uint32_t *)1111952956B]
 860 0004 7047     		bx	lr	@
 861              	.L77:
 862 0006 00BF     		.align	2
 863              	.L76:
 864 0008 3C0E4742 		.word	1111952956
 865              		.cfi_endproc
 866              	.LFE131:
 867              		.size	RCC_RTCCLKCmd, .-RCC_RTCCLKCmd
 868              		.section	.text.RCC_BackupResetCmd,"ax",%progbits
 869              		.align	1
 870              		.global	RCC_BackupResetCmd
 871              		.thumb
 872              		.thumb_func
 873              		.type	RCC_BackupResetCmd, %function
 874              	RCC_BackupResetCmd:
 875              	.LFB132:
1037:stm32f4xx_rcc.c **** }
1038:stm32f4xx_rcc.c **** 
1039:stm32f4xx_rcc.c **** /**
1040:stm32f4xx_rcc.c ****   * @brief  Forces or releases the Backup domain reset.
1041:stm32f4xx_rcc.c ****   * @note   This function resets the RTC peripheral (including the backup registers)
1042:stm32f4xx_rcc.c ****   *         and the RTC clock source selection in RCC_CSR register.
1043:stm32f4xx_rcc.c ****   * @note   The BKPSRAM is not affected by this reset.    
1044:stm32f4xx_rcc.c ****   * @param  NewState: new state of the Backup domain reset.
1045:stm32f4xx_rcc.c ****   *          This parameter can be: ENABLE or DISABLE.
1046:stm32f4xx_rcc.c ****   * @retval None
1047:stm32f4xx_rcc.c ****   */
1048:stm32f4xx_rcc.c **** void RCC_BackupResetCmd(FunctionalState NewState)
1049:stm32f4xx_rcc.c **** {
ARM GAS  /tmp/cc69dDoz.s 			page 35


 876              		.loc 1 1049 0
 877              		.cfi_startproc
 878              		@ args = 0, pretend = 0, frame = 0
 879              		@ frame_needed = 0, uses_anonymous_args = 0
 880              		@ link register save eliminated.
 881              	.LVL77:
1050:stm32f4xx_rcc.c ****   /* Check the parameters */
1051:stm32f4xx_rcc.c ****   assert_param(IS_FUNCTIONAL_STATE(NewState));
1052:stm32f4xx_rcc.c ****   *(__IO uint32_t *) BDCR_BDRST_BB = (uint32_t)NewState;
 882              		.loc 1 1052 0
 883 0000 014B     		ldr	r3, .L79	@ tmp136,
 884 0002 1860     		str	r0, [r3, #0]	@ NewState, MEM[(volatile uint32_t *)1111952960B]
 885 0004 7047     		bx	lr	@
 886              	.L80:
 887 0006 00BF     		.align	2
 888              	.L79:
 889 0008 400E4742 		.word	1111952960
 890              		.cfi_endproc
 891              	.LFE132:
 892              		.size	RCC_BackupResetCmd, .-RCC_BackupResetCmd
 893              		.section	.text.RCC_I2SCLKConfig,"ax",%progbits
 894              		.align	1
 895              		.global	RCC_I2SCLKConfig
 896              		.thumb
 897              		.thumb_func
 898              		.type	RCC_I2SCLKConfig, %function
 899              	RCC_I2SCLKConfig:
 900              	.LFB133:
1053:stm32f4xx_rcc.c **** }
1054:stm32f4xx_rcc.c **** 
1055:stm32f4xx_rcc.c **** /**
1056:stm32f4xx_rcc.c ****   * @brief  Configures the I2S clock source (I2SCLK).
1057:stm32f4xx_rcc.c ****   * @note   This function must be called before enabling the I2S APB clock.
1058:stm32f4xx_rcc.c ****   * @param  RCC_I2SCLKSource: specifies the I2S clock source.
1059:stm32f4xx_rcc.c ****   *          This parameter can be one of the following values:
1060:stm32f4xx_rcc.c ****   *            @arg RCC_I2S2CLKSource_PLLI2S: PLLI2S clock used as I2S clock source
1061:stm32f4xx_rcc.c ****   *            @arg RCC_I2S2CLKSource_Ext: External clock mapped on the I2S_CKIN pin
1062:stm32f4xx_rcc.c ****   *                                        used as I2S clock source
1063:stm32f4xx_rcc.c ****   * @retval None
1064:stm32f4xx_rcc.c ****   */
1065:stm32f4xx_rcc.c **** void RCC_I2SCLKConfig(uint32_t RCC_I2SCLKSource)
1066:stm32f4xx_rcc.c **** {
 901              		.loc 1 1066 0
 902              		.cfi_startproc
 903              		@ args = 0, pretend = 0, frame = 0
 904              		@ frame_needed = 0, uses_anonymous_args = 0
 905              		@ link register save eliminated.
 906              	.LVL78:
1067:stm32f4xx_rcc.c ****   /* Check the parameters */
1068:stm32f4xx_rcc.c ****   assert_param(IS_RCC_I2SCLK_SOURCE(RCC_I2SCLKSource));
1069:stm32f4xx_rcc.c **** 
1070:stm32f4xx_rcc.c ****   *(__IO uint32_t *) CFGR_I2SSRC_BB = RCC_I2SCLKSource;
 907              		.loc 1 1070 0
 908 0000 014B     		ldr	r3, .L82	@ tmp135,
 909 0002 1860     		str	r0, [r3, #0]	@ RCC_I2SCLKSource, MEM[(volatile uint32_t *)1111949660B]
 910 0004 7047     		bx	lr	@
 911              	.L83:
ARM GAS  /tmp/cc69dDoz.s 			page 36


 912 0006 00BF     		.align	2
 913              	.L82:
 914 0008 5C014742 		.word	1111949660
 915              		.cfi_endproc
 916              	.LFE133:
 917              		.size	RCC_I2SCLKConfig, .-RCC_I2SCLKConfig
 918              		.section	.text.RCC_TIMCLKPresConfig,"ax",%progbits
 919              		.align	1
 920              		.global	RCC_TIMCLKPresConfig
 921              		.thumb
 922              		.thumb_func
 923              		.type	RCC_TIMCLKPresConfig, %function
 924              	RCC_TIMCLKPresConfig:
 925              	.LFB134:
1071:stm32f4xx_rcc.c **** }
1072:stm32f4xx_rcc.c **** 
1073:stm32f4xx_rcc.c **** /**
1074:stm32f4xx_rcc.c ****   * @brief  Configures the Timers clocks prescalers selection.
1075:stm32f4xx_rcc.c ****   * 
1076:stm32f4xx_rcc.c ****   * @note   This feature is only available with STM32F427x/437x Devices.  
1077:stm32f4xx_rcc.c ****   * @param  RCC_TIMCLKPrescaler : specifies the Timers clocks prescalers selection
1078:stm32f4xx_rcc.c ****   *         This parameter can be one of the following values:
1079:stm32f4xx_rcc.c ****   *            @arg RCC_TIMPrescDesactivated: The Timers kernels clocks prescaler is 
1080:stm32f4xx_rcc.c ****   *                 equal to HPRE if PPREx is corresponding to division by 1 or 2, 
1081:stm32f4xx_rcc.c ****   *                 else it is equal to [(HPRE * PPREx) / 2] if PPREx is corresponding to 
1082:stm32f4xx_rcc.c ****   *                 division by 4 or more.
1083:stm32f4xx_rcc.c ****   *                   
1084:stm32f4xx_rcc.c ****   *            @arg RCC_TIMPrescActivated: The Timers kernels clocks prescaler is 
1085:stm32f4xx_rcc.c ****   *                 equal to HPRE if PPREx is corresponding to division by 1, 2 or 4, 
1086:stm32f4xx_rcc.c ****   *                 else it is equal to [(HPRE * PPREx) / 4] if PPREx is corresponding 
1087:stm32f4xx_rcc.c ****   *                 to division by 8 or more.
1088:stm32f4xx_rcc.c ****   * @retval None
1089:stm32f4xx_rcc.c ****   */
1090:stm32f4xx_rcc.c **** void RCC_TIMCLKPresConfig(uint32_t RCC_TIMCLKPrescaler)
1091:stm32f4xx_rcc.c **** {
 926              		.loc 1 1091 0
 927              		.cfi_startproc
 928              		@ args = 0, pretend = 0, frame = 0
 929              		@ frame_needed = 0, uses_anonymous_args = 0
 930              		@ link register save eliminated.
 931              	.LVL79:
1092:stm32f4xx_rcc.c ****   /* Check the parameters */
1093:stm32f4xx_rcc.c ****   assert_param(IS_RCC_TIMCLK_PRESCALER(RCC_TIMCLKPrescaler));
1094:stm32f4xx_rcc.c **** 
1095:stm32f4xx_rcc.c ****   *(__IO uint32_t *) DCKCFGR_TIMPRE_BB = RCC_TIMCLKPrescaler;
 932              		.loc 1 1095 0
 933 0000 014B     		ldr	r3, .L85	@ tmp135,
 934 0002 1860     		str	r0, [r3, #0]	@ RCC_TIMCLKPrescaler, MEM[(volatile uint32_t *)1111953888B]
 935 0004 7047     		bx	lr	@
 936              	.L86:
 937 0006 00BF     		.align	2
 938              	.L85:
 939 0008 E0114742 		.word	1111953888
 940              		.cfi_endproc
 941              	.LFE134:
 942              		.size	RCC_TIMCLKPresConfig, .-RCC_TIMCLKPresConfig
 943              		.section	.text.RCC_AHB1PeriphClockCmd,"ax",%progbits
ARM GAS  /tmp/cc69dDoz.s 			page 37


 944              		.align	1
 945              		.global	RCC_AHB1PeriphClockCmd
 946              		.thumb
 947              		.thumb_func
 948              		.type	RCC_AHB1PeriphClockCmd, %function
 949              	RCC_AHB1PeriphClockCmd:
 950              	.LFB135:
1096:stm32f4xx_rcc.c ****   
1097:stm32f4xx_rcc.c **** }
1098:stm32f4xx_rcc.c **** 
1099:stm32f4xx_rcc.c **** /**
1100:stm32f4xx_rcc.c ****   * @brief  Enables or disables the AHB1 peripheral clock.
1101:stm32f4xx_rcc.c ****   * @note   After reset, the peripheral clock (used for registers read/write access)
1102:stm32f4xx_rcc.c ****   *         is disabled and the application software has to enable this clock before 
1103:stm32f4xx_rcc.c ****   *         using it.   
1104:stm32f4xx_rcc.c ****   * @param  RCC_AHBPeriph: specifies the AHB1 peripheral to gates its clock.
1105:stm32f4xx_rcc.c ****   *          This parameter can be any combination of the following values:
1106:stm32f4xx_rcc.c ****   *            @arg RCC_AHB1Periph_GPIOA:       GPIOA clock
1107:stm32f4xx_rcc.c ****   *            @arg RCC_AHB1Periph_GPIOB:       GPIOB clock 
1108:stm32f4xx_rcc.c ****   *            @arg RCC_AHB1Periph_GPIOC:       GPIOC clock
1109:stm32f4xx_rcc.c ****   *            @arg RCC_AHB1Periph_GPIOD:       GPIOD clock
1110:stm32f4xx_rcc.c ****   *            @arg RCC_AHB1Periph_GPIOE:       GPIOE clock
1111:stm32f4xx_rcc.c ****   *            @arg RCC_AHB1Periph_GPIOF:       GPIOF clock
1112:stm32f4xx_rcc.c ****   *            @arg RCC_AHB1Periph_GPIOG:       GPIOG clock
1113:stm32f4xx_rcc.c ****   *            @arg RCC_AHB1Periph_GPIOG:       GPIOG clock
1114:stm32f4xx_rcc.c ****   *            @arg RCC_AHB1Periph_GPIOI:       GPIOI clock 
1115:stm32f4xx_rcc.c ****   *            @arg RCC_AHB1Periph_CRC:         CRC clock
1116:stm32f4xx_rcc.c ****   *            @arg RCC_AHB1Periph_BKPSRAM:     BKPSRAM interface clock
1117:stm32f4xx_rcc.c ****   *            @arg RCC_AHB1Periph_CCMDATARAMEN CCM data RAM interface clock
1118:stm32f4xx_rcc.c ****   *            @arg RCC_AHB1Periph_DMA1:        DMA1 clock
1119:stm32f4xx_rcc.c ****   *            @arg RCC_AHB1Periph_DMA2:        DMA2 clock 
1120:stm32f4xx_rcc.c ****   *            @arg RCC_AHB1Periph_ETH_MAC:     Ethernet MAC clock
1121:stm32f4xx_rcc.c ****   *            @arg RCC_AHB1Periph_ETH_MAC_Tx:  Ethernet Transmission clock
1122:stm32f4xx_rcc.c ****   *            @arg RCC_AHB1Periph_ETH_MAC_Rx:  Ethernet Reception clock
1123:stm32f4xx_rcc.c ****   *            @arg RCC_AHB1Periph_ETH_MAC_PTP: Ethernet PTP clock
1124:stm32f4xx_rcc.c ****   *            @arg RCC_AHB1Periph_OTG_HS:      USB OTG HS clock
1125:stm32f4xx_rcc.c ****   *            @arg RCC_AHB1Periph_OTG_HS_ULPI: USB OTG HS ULPI clock
1126:stm32f4xx_rcc.c ****   * @param  NewState: new state of the specified peripheral clock.
1127:stm32f4xx_rcc.c ****   *          This parameter can be: ENABLE or DISABLE.
1128:stm32f4xx_rcc.c ****   * @retval None
1129:stm32f4xx_rcc.c ****   */
1130:stm32f4xx_rcc.c **** void RCC_AHB1PeriphClockCmd(uint32_t RCC_AHB1Periph, FunctionalState NewState)
1131:stm32f4xx_rcc.c **** {
 951              		.loc 1 1131 0
 952              		.cfi_startproc
 953              		@ args = 0, pretend = 0, frame = 0
 954              		@ frame_needed = 0, uses_anonymous_args = 0
 955              		@ link register save eliminated.
 956              	.LVL80:
 957 0000 044B     		ldr	r3, .L91	@ tmp146,
1132:stm32f4xx_rcc.c ****   /* Check the parameters */
1133:stm32f4xx_rcc.c ****   assert_param(IS_RCC_AHB1_CLOCK_PERIPH(RCC_AHB1Periph));
1134:stm32f4xx_rcc.c **** 
1135:stm32f4xx_rcc.c ****   assert_param(IS_FUNCTIONAL_STATE(NewState));
1136:stm32f4xx_rcc.c ****   if (NewState != DISABLE)
1137:stm32f4xx_rcc.c ****   {
1138:stm32f4xx_rcc.c ****     RCC->AHB1ENR |= RCC_AHB1Periph;
ARM GAS  /tmp/cc69dDoz.s 			page 38


 958              		.loc 1 1138 0
 959 0002 1A6B     		ldr	r2, [r3, #48]	@ D.6268,
1136:stm32f4xx_rcc.c ****   if (NewState != DISABLE)
 960              		.loc 1 1136 0
 961 0004 09B1     		cbz	r1, .L88	@ NewState,
 962              		.loc 1 1138 0
 963 0006 1043     		orrs	r0, r0, r2	@, D.6269, RCC_AHB1Periph, D.6268
 964              	.LVL81:
 965 0008 01E0     		b	.L90	@
 966              	.LVL82:
 967              	.L88:
1139:stm32f4xx_rcc.c ****   }
1140:stm32f4xx_rcc.c ****   else
1141:stm32f4xx_rcc.c ****   {
1142:stm32f4xx_rcc.c ****     RCC->AHB1ENR &= ~RCC_AHB1Periph;
 968              		.loc 1 1142 0
 969 000a 22EA0000 		bic	r0, r2, r0	@ D.6273, D.6271, RCC_AHB1Periph
 970              	.LVL83:
 971              	.L90:
 972 000e 1863     		str	r0, [r3, #48]	@ D.6273,
 973 0010 7047     		bx	lr	@
 974              	.L92:
 975 0012 00BF     		.align	2
 976              	.L91:
 977 0014 00380240 		.word	1073887232
 978              		.cfi_endproc
 979              	.LFE135:
 980              		.size	RCC_AHB1PeriphClockCmd, .-RCC_AHB1PeriphClockCmd
 981              		.section	.text.RCC_AHB2PeriphClockCmd,"ax",%progbits
 982              		.align	1
 983              		.global	RCC_AHB2PeriphClockCmd
 984              		.thumb
 985              		.thumb_func
 986              		.type	RCC_AHB2PeriphClockCmd, %function
 987              	RCC_AHB2PeriphClockCmd:
 988              	.LFB136:
1143:stm32f4xx_rcc.c ****   }
1144:stm32f4xx_rcc.c **** }
1145:stm32f4xx_rcc.c **** 
1146:stm32f4xx_rcc.c **** /**
1147:stm32f4xx_rcc.c ****   * @brief  Enables or disables the AHB2 peripheral clock.
1148:stm32f4xx_rcc.c ****   * @note   After reset, the peripheral clock (used for registers read/write access)
1149:stm32f4xx_rcc.c ****   *         is disabled and the application software has to enable this clock before 
1150:stm32f4xx_rcc.c ****   *         using it. 
1151:stm32f4xx_rcc.c ****   * @param  RCC_AHBPeriph: specifies the AHB2 peripheral to gates its clock.
1152:stm32f4xx_rcc.c ****   *          This parameter can be any combination of the following values:
1153:stm32f4xx_rcc.c ****   *            @arg RCC_AHB2Periph_DCMI:   DCMI clock
1154:stm32f4xx_rcc.c ****   *            @arg RCC_AHB2Periph_CRYP:   CRYP clock
1155:stm32f4xx_rcc.c ****   *            @arg RCC_AHB2Periph_HASH:   HASH clock
1156:stm32f4xx_rcc.c ****   *            @arg RCC_AHB2Periph_RNG:    RNG clock
1157:stm32f4xx_rcc.c ****   *            @arg RCC_AHB2Periph_OTG_FS: USB OTG FS clock
1158:stm32f4xx_rcc.c ****   * @param  NewState: new state of the specified peripheral clock.
1159:stm32f4xx_rcc.c ****   *          This parameter can be: ENABLE or DISABLE.
1160:stm32f4xx_rcc.c ****   * @retval None
1161:stm32f4xx_rcc.c ****   */
1162:stm32f4xx_rcc.c **** void RCC_AHB2PeriphClockCmd(uint32_t RCC_AHB2Periph, FunctionalState NewState)
1163:stm32f4xx_rcc.c **** {
ARM GAS  /tmp/cc69dDoz.s 			page 39


 989              		.loc 1 1163 0
 990              		.cfi_startproc
 991              		@ args = 0, pretend = 0, frame = 0
 992              		@ frame_needed = 0, uses_anonymous_args = 0
 993              		@ link register save eliminated.
 994              	.LVL84:
 995 0000 044B     		ldr	r3, .L97	@ tmp146,
1164:stm32f4xx_rcc.c ****   /* Check the parameters */
1165:stm32f4xx_rcc.c ****   assert_param(IS_RCC_AHB2_PERIPH(RCC_AHB2Periph));
1166:stm32f4xx_rcc.c ****   assert_param(IS_FUNCTIONAL_STATE(NewState));
1167:stm32f4xx_rcc.c **** 
1168:stm32f4xx_rcc.c ****   if (NewState != DISABLE)
1169:stm32f4xx_rcc.c ****   {
1170:stm32f4xx_rcc.c ****     RCC->AHB2ENR |= RCC_AHB2Periph;
 996              		.loc 1 1170 0
 997 0002 5A6B     		ldr	r2, [r3, #52]	@ D.6259,
1168:stm32f4xx_rcc.c ****   if (NewState != DISABLE)
 998              		.loc 1 1168 0
 999 0004 09B1     		cbz	r1, .L94	@ NewState,
 1000              		.loc 1 1170 0
 1001 0006 1043     		orrs	r0, r0, r2	@, D.6260, RCC_AHB2Periph, D.6259
 1002              	.LVL85:
 1003 0008 01E0     		b	.L96	@
 1004              	.LVL86:
 1005              	.L94:
1171:stm32f4xx_rcc.c ****   }
1172:stm32f4xx_rcc.c ****   else
1173:stm32f4xx_rcc.c ****   {
1174:stm32f4xx_rcc.c ****     RCC->AHB2ENR &= ~RCC_AHB2Periph;
 1006              		.loc 1 1174 0
 1007 000a 22EA0000 		bic	r0, r2, r0	@ D.6264, D.6262, RCC_AHB2Periph
 1008              	.LVL87:
 1009              	.L96:
 1010 000e 5863     		str	r0, [r3, #52]	@ D.6264,
 1011 0010 7047     		bx	lr	@
 1012              	.L98:
 1013 0012 00BF     		.align	2
 1014              	.L97:
 1015 0014 00380240 		.word	1073887232
 1016              		.cfi_endproc
 1017              	.LFE136:
 1018              		.size	RCC_AHB2PeriphClockCmd, .-RCC_AHB2PeriphClockCmd
 1019              		.section	.text.RCC_AHB3PeriphClockCmd,"ax",%progbits
 1020              		.align	1
 1021              		.global	RCC_AHB3PeriphClockCmd
 1022              		.thumb
 1023              		.thumb_func
 1024              		.type	RCC_AHB3PeriphClockCmd, %function
 1025              	RCC_AHB3PeriphClockCmd:
 1026              	.LFB137:
1175:stm32f4xx_rcc.c ****   }
1176:stm32f4xx_rcc.c **** }
1177:stm32f4xx_rcc.c **** 
1178:stm32f4xx_rcc.c **** /**
1179:stm32f4xx_rcc.c ****   * @brief  Enables or disables the AHB3 peripheral clock.
1180:stm32f4xx_rcc.c ****   * @note   After reset, the peripheral clock (used for registers read/write access)
1181:stm32f4xx_rcc.c ****   *         is disabled and the application software has to enable this clock before 
ARM GAS  /tmp/cc69dDoz.s 			page 40


1182:stm32f4xx_rcc.c ****   *         using it. 
1183:stm32f4xx_rcc.c ****   * @param  RCC_AHBPeriph: specifies the AHB3 peripheral to gates its clock.
1184:stm32f4xx_rcc.c ****   *          This parameter must be: RCC_AHB3Periph_FSMC
1185:stm32f4xx_rcc.c ****   *                                  
1186:stm32f4xx_rcc.c ****   * @param  NewState: new state of the specified peripheral clock.
1187:stm32f4xx_rcc.c ****   *          This parameter can be: ENABLE or DISABLE.
1188:stm32f4xx_rcc.c ****   * @retval None
1189:stm32f4xx_rcc.c ****   */
1190:stm32f4xx_rcc.c **** void RCC_AHB3PeriphClockCmd(uint32_t RCC_AHB3Periph, FunctionalState NewState)
1191:stm32f4xx_rcc.c **** {
 1027              		.loc 1 1191 0
 1028              		.cfi_startproc
 1029              		@ args = 0, pretend = 0, frame = 0
 1030              		@ frame_needed = 0, uses_anonymous_args = 0
 1031              		@ link register save eliminated.
 1032              	.LVL88:
 1033 0000 044B     		ldr	r3, .L103	@ tmp146,
1192:stm32f4xx_rcc.c ****   /* Check the parameters */
1193:stm32f4xx_rcc.c ****   assert_param(IS_RCC_AHB3_PERIPH(RCC_AHB3Periph));  
1194:stm32f4xx_rcc.c ****   assert_param(IS_FUNCTIONAL_STATE(NewState));
1195:stm32f4xx_rcc.c **** 
1196:stm32f4xx_rcc.c ****   if (NewState != DISABLE)
1197:stm32f4xx_rcc.c ****   {
1198:stm32f4xx_rcc.c ****     RCC->AHB3ENR |= RCC_AHB3Periph;
 1034              		.loc 1 1198 0
 1035 0002 9A6B     		ldr	r2, [r3, #56]	@ D.6250,
1196:stm32f4xx_rcc.c ****   if (NewState != DISABLE)
 1036              		.loc 1 1196 0
 1037 0004 09B1     		cbz	r1, .L100	@ NewState,
 1038              		.loc 1 1198 0
 1039 0006 1043     		orrs	r0, r0, r2	@, D.6251, RCC_AHB3Periph, D.6250
 1040              	.LVL89:
 1041 0008 01E0     		b	.L102	@
 1042              	.LVL90:
 1043              	.L100:
1199:stm32f4xx_rcc.c ****   }
1200:stm32f4xx_rcc.c ****   else
1201:stm32f4xx_rcc.c ****   {
1202:stm32f4xx_rcc.c ****     RCC->AHB3ENR &= ~RCC_AHB3Periph;
 1044              		.loc 1 1202 0
 1045 000a 22EA0000 		bic	r0, r2, r0	@ D.6255, D.6253, RCC_AHB3Periph
 1046              	.LVL91:
 1047              	.L102:
 1048 000e 9863     		str	r0, [r3, #56]	@ D.6255,
 1049 0010 7047     		bx	lr	@
 1050              	.L104:
 1051 0012 00BF     		.align	2
 1052              	.L103:
 1053 0014 00380240 		.word	1073887232
 1054              		.cfi_endproc
 1055              	.LFE137:
 1056              		.size	RCC_AHB3PeriphClockCmd, .-RCC_AHB3PeriphClockCmd
 1057              		.section	.text.RCC_APB1PeriphClockCmd,"ax",%progbits
 1058              		.align	1
 1059              		.global	RCC_APB1PeriphClockCmd
 1060              		.thumb
 1061              		.thumb_func
ARM GAS  /tmp/cc69dDoz.s 			page 41


 1062              		.type	RCC_APB1PeriphClockCmd, %function
 1063              	RCC_APB1PeriphClockCmd:
 1064              	.LFB138:
1203:stm32f4xx_rcc.c ****   }
1204:stm32f4xx_rcc.c **** }
1205:stm32f4xx_rcc.c **** 
1206:stm32f4xx_rcc.c **** /**
1207:stm32f4xx_rcc.c ****   * @brief  Enables or disables the Low Speed APB (APB1) peripheral clock.
1208:stm32f4xx_rcc.c ****   * @note   After reset, the peripheral clock (used for registers read/write access)
1209:stm32f4xx_rcc.c ****   *         is disabled and the application software has to enable this clock before 
1210:stm32f4xx_rcc.c ****   *         using it. 
1211:stm32f4xx_rcc.c ****   * @param  RCC_APB1Periph: specifies the APB1 peripheral to gates its clock.
1212:stm32f4xx_rcc.c ****   *          This parameter can be any combination of the following values:
1213:stm32f4xx_rcc.c ****   *            @arg RCC_APB1Periph_TIM2:   TIM2 clock
1214:stm32f4xx_rcc.c ****   *            @arg RCC_APB1Periph_TIM3:   TIM3 clock
1215:stm32f4xx_rcc.c ****   *            @arg RCC_APB1Periph_TIM4:   TIM4 clock
1216:stm32f4xx_rcc.c ****   *            @arg RCC_APB1Periph_TIM5:   TIM5 clock
1217:stm32f4xx_rcc.c ****   *            @arg RCC_APB1Periph_TIM6:   TIM6 clock
1218:stm32f4xx_rcc.c ****   *            @arg RCC_APB1Periph_TIM7:   TIM7 clock
1219:stm32f4xx_rcc.c ****   *            @arg RCC_APB1Periph_TIM12:  TIM12 clock
1220:stm32f4xx_rcc.c ****   *            @arg RCC_APB1Periph_TIM13:  TIM13 clock
1221:stm32f4xx_rcc.c ****   *            @arg RCC_APB1Periph_TIM14:  TIM14 clock
1222:stm32f4xx_rcc.c ****   *            @arg RCC_APB1Periph_WWDG:   WWDG clock
1223:stm32f4xx_rcc.c ****   *            @arg RCC_APB1Periph_SPI2:   SPI2 clock
1224:stm32f4xx_rcc.c ****   *            @arg RCC_APB1Periph_SPI3:   SPI3 clock
1225:stm32f4xx_rcc.c ****   *            @arg RCC_APB1Periph_USART2: USART2 clock
1226:stm32f4xx_rcc.c ****   *            @arg RCC_APB1Periph_USART3: USART3 clock
1227:stm32f4xx_rcc.c ****   *            @arg RCC_APB1Periph_UART4:  UART4 clock
1228:stm32f4xx_rcc.c ****   *            @arg RCC_APB1Periph_UART5:  UART5 clock
1229:stm32f4xx_rcc.c ****   *            @arg RCC_APB1Periph_I2C1:   I2C1 clock
1230:stm32f4xx_rcc.c ****   *            @arg RCC_APB1Periph_I2C2:   I2C2 clock
1231:stm32f4xx_rcc.c ****   *            @arg RCC_APB1Periph_I2C3:   I2C3 clock
1232:stm32f4xx_rcc.c ****   *            @arg RCC_APB1Periph_CAN1:   CAN1 clock
1233:stm32f4xx_rcc.c ****   *            @arg RCC_APB1Periph_CAN2:   CAN2 clock
1234:stm32f4xx_rcc.c ****   *            @arg RCC_APB1Periph_PWR:    PWR clock
1235:stm32f4xx_rcc.c ****   *            @arg RCC_APB1Periph_DAC:    DAC clock
1236:stm32f4xx_rcc.c ****   *            @arg RCC_APB1Periph_UART7:  UART7 clock
1237:stm32f4xx_rcc.c ****   *            @arg RCC_APB1Periph_UART8:  UART8 clock
1238:stm32f4xx_rcc.c ****   * @param  NewState: new state of the specified peripheral clock.
1239:stm32f4xx_rcc.c ****   *          This parameter can be: ENABLE or DISABLE.
1240:stm32f4xx_rcc.c ****   * @retval None
1241:stm32f4xx_rcc.c ****   */
1242:stm32f4xx_rcc.c **** void RCC_APB1PeriphClockCmd(uint32_t RCC_APB1Periph, FunctionalState NewState)
1243:stm32f4xx_rcc.c **** {
 1065              		.loc 1 1243 0
 1066              		.cfi_startproc
 1067              		@ args = 0, pretend = 0, frame = 0
 1068              		@ frame_needed = 0, uses_anonymous_args = 0
 1069              		@ link register save eliminated.
 1070              	.LVL92:
 1071 0000 044B     		ldr	r3, .L109	@ tmp146,
1244:stm32f4xx_rcc.c ****   /* Check the parameters */
1245:stm32f4xx_rcc.c ****   assert_param(IS_RCC_APB1_PERIPH(RCC_APB1Periph));  
1246:stm32f4xx_rcc.c ****   assert_param(IS_FUNCTIONAL_STATE(NewState));
1247:stm32f4xx_rcc.c **** 
1248:stm32f4xx_rcc.c ****   if (NewState != DISABLE)
1249:stm32f4xx_rcc.c ****   {
ARM GAS  /tmp/cc69dDoz.s 			page 42


1250:stm32f4xx_rcc.c ****     RCC->APB1ENR |= RCC_APB1Periph;
 1072              		.loc 1 1250 0
 1073 0002 1A6C     		ldr	r2, [r3, #64]	@ D.6241,
1248:stm32f4xx_rcc.c ****   if (NewState != DISABLE)
 1074              		.loc 1 1248 0
 1075 0004 09B1     		cbz	r1, .L106	@ NewState,
 1076              		.loc 1 1250 0
 1077 0006 1043     		orrs	r0, r0, r2	@, D.6242, RCC_APB1Periph, D.6241
 1078              	.LVL93:
 1079 0008 01E0     		b	.L108	@
 1080              	.LVL94:
 1081              	.L106:
1251:stm32f4xx_rcc.c ****   }
1252:stm32f4xx_rcc.c ****   else
1253:stm32f4xx_rcc.c ****   {
1254:stm32f4xx_rcc.c ****     RCC->APB1ENR &= ~RCC_APB1Periph;
 1082              		.loc 1 1254 0
 1083 000a 22EA0000 		bic	r0, r2, r0	@ D.6246, D.6244, RCC_APB1Periph
 1084              	.LVL95:
 1085              	.L108:
 1086 000e 1864     		str	r0, [r3, #64]	@ D.6246,
 1087 0010 7047     		bx	lr	@
 1088              	.L110:
 1089 0012 00BF     		.align	2
 1090              	.L109:
 1091 0014 00380240 		.word	1073887232
 1092              		.cfi_endproc
 1093              	.LFE138:
 1094              		.size	RCC_APB1PeriphClockCmd, .-RCC_APB1PeriphClockCmd
 1095              		.section	.text.RCC_APB2PeriphClockCmd,"ax",%progbits
 1096              		.align	1
 1097              		.global	RCC_APB2PeriphClockCmd
 1098              		.thumb
 1099              		.thumb_func
 1100              		.type	RCC_APB2PeriphClockCmd, %function
 1101              	RCC_APB2PeriphClockCmd:
 1102              	.LFB139:
1255:stm32f4xx_rcc.c ****   }
1256:stm32f4xx_rcc.c **** }
1257:stm32f4xx_rcc.c **** 
1258:stm32f4xx_rcc.c **** /**
1259:stm32f4xx_rcc.c ****   * @brief  Enables or disables the High Speed APB (APB2) peripheral clock.
1260:stm32f4xx_rcc.c ****   * @note   After reset, the peripheral clock (used for registers read/write access)
1261:stm32f4xx_rcc.c ****   *         is disabled and the application software has to enable this clock before 
1262:stm32f4xx_rcc.c ****   *         using it.
1263:stm32f4xx_rcc.c ****   * @param  RCC_APB2Periph: specifies the APB2 peripheral to gates its clock.
1264:stm32f4xx_rcc.c ****   *          This parameter can be any combination of the following values:
1265:stm32f4xx_rcc.c ****   *            @arg RCC_APB2Periph_TIM1:   TIM1 clock
1266:stm32f4xx_rcc.c ****   *            @arg RCC_APB2Periph_TIM8:   TIM8 clock
1267:stm32f4xx_rcc.c ****   *            @arg RCC_APB2Periph_USART1: USART1 clock
1268:stm32f4xx_rcc.c ****   *            @arg RCC_APB2Periph_USART6: USART6 clock
1269:stm32f4xx_rcc.c ****   *            @arg RCC_APB2Periph_ADC1:   ADC1 clock
1270:stm32f4xx_rcc.c ****   *            @arg RCC_APB2Periph_ADC2:   ADC2 clock
1271:stm32f4xx_rcc.c ****   *            @arg RCC_APB2Periph_ADC3:   ADC3 clock
1272:stm32f4xx_rcc.c ****   *            @arg RCC_APB2Periph_SDIO:   SDIO clock
1273:stm32f4xx_rcc.c ****   *            @arg RCC_APB2Periph_SPI1:   SPI1 clock
1274:stm32f4xx_rcc.c ****   *            @arg RCC_APB2Periph_SPI4:   SPI4 clock
ARM GAS  /tmp/cc69dDoz.s 			page 43


1275:stm32f4xx_rcc.c ****   *            @arg RCC_APB2Periph_SYSCFG: SYSCFG clock
1276:stm32f4xx_rcc.c ****   *            @arg RCC_APB2Periph_TIM9:   TIM9 clock
1277:stm32f4xx_rcc.c ****   *            @arg RCC_APB2Periph_TIM10:  TIM10 clock
1278:stm32f4xx_rcc.c ****   *            @arg RCC_APB2Periph_TIM11:  TIM11 clock
1279:stm32f4xx_rcc.c ****   *            @arg RCC_APB2Periph_SPI5:   SPI5 clock
1280:stm32f4xx_rcc.c ****   *            @arg RCC_APB2Periph_SPI6:   SPI6 clock
1281:stm32f4xx_rcc.c ****   * @param  NewState: new state of the specified peripheral clock.
1282:stm32f4xx_rcc.c ****   *          This parameter can be: ENABLE or DISABLE.
1283:stm32f4xx_rcc.c ****   * @retval None
1284:stm32f4xx_rcc.c ****   */
1285:stm32f4xx_rcc.c **** void RCC_APB2PeriphClockCmd(uint32_t RCC_APB2Periph, FunctionalState NewState)
1286:stm32f4xx_rcc.c **** {
 1103              		.loc 1 1286 0
 1104              		.cfi_startproc
 1105              		@ args = 0, pretend = 0, frame = 0
 1106              		@ frame_needed = 0, uses_anonymous_args = 0
 1107              		@ link register save eliminated.
 1108              	.LVL96:
 1109 0000 044B     		ldr	r3, .L115	@ tmp146,
1287:stm32f4xx_rcc.c ****   /* Check the parameters */
1288:stm32f4xx_rcc.c ****   assert_param(IS_RCC_APB2_PERIPH(RCC_APB2Periph));
1289:stm32f4xx_rcc.c ****   assert_param(IS_FUNCTIONAL_STATE(NewState));
1290:stm32f4xx_rcc.c **** 
1291:stm32f4xx_rcc.c ****   if (NewState != DISABLE)
1292:stm32f4xx_rcc.c ****   {
1293:stm32f4xx_rcc.c ****     RCC->APB2ENR |= RCC_APB2Periph;
 1110              		.loc 1 1293 0
 1111 0002 5A6C     		ldr	r2, [r3, #68]	@ D.6232,
1291:stm32f4xx_rcc.c ****   if (NewState != DISABLE)
 1112              		.loc 1 1291 0
 1113 0004 09B1     		cbz	r1, .L112	@ NewState,
 1114              		.loc 1 1293 0
 1115 0006 1043     		orrs	r0, r0, r2	@, D.6233, RCC_APB2Periph, D.6232
 1116              	.LVL97:
 1117 0008 01E0     		b	.L114	@
 1118              	.LVL98:
 1119              	.L112:
1294:stm32f4xx_rcc.c ****   }
1295:stm32f4xx_rcc.c ****   else
1296:stm32f4xx_rcc.c ****   {
1297:stm32f4xx_rcc.c ****     RCC->APB2ENR &= ~RCC_APB2Periph;
 1120              		.loc 1 1297 0
 1121 000a 22EA0000 		bic	r0, r2, r0	@ D.6237, D.6235, RCC_APB2Periph
 1122              	.LVL99:
 1123              	.L114:
 1124 000e 5864     		str	r0, [r3, #68]	@ D.6237,
 1125 0010 7047     		bx	lr	@
 1126              	.L116:
 1127 0012 00BF     		.align	2
 1128              	.L115:
 1129 0014 00380240 		.word	1073887232
 1130              		.cfi_endproc
 1131              	.LFE139:
 1132              		.size	RCC_APB2PeriphClockCmd, .-RCC_APB2PeriphClockCmd
 1133              		.section	.text.RCC_AHB1PeriphResetCmd,"ax",%progbits
 1134              		.align	1
 1135              		.global	RCC_AHB1PeriphResetCmd
ARM GAS  /tmp/cc69dDoz.s 			page 44


 1136              		.thumb
 1137              		.thumb_func
 1138              		.type	RCC_AHB1PeriphResetCmd, %function
 1139              	RCC_AHB1PeriphResetCmd:
 1140              	.LFB140:
1298:stm32f4xx_rcc.c ****   }
1299:stm32f4xx_rcc.c **** }
1300:stm32f4xx_rcc.c **** 
1301:stm32f4xx_rcc.c **** /**
1302:stm32f4xx_rcc.c ****   * @brief  Forces or releases AHB1 peripheral reset.
1303:stm32f4xx_rcc.c ****   * @param  RCC_AHB1Periph: specifies the AHB1 peripheral to reset.
1304:stm32f4xx_rcc.c ****   *          This parameter can be any combination of the following values:
1305:stm32f4xx_rcc.c ****   *            @arg RCC_AHB1Periph_GPIOA:   GPIOA clock
1306:stm32f4xx_rcc.c ****   *            @arg RCC_AHB1Periph_GPIOB:   GPIOB clock 
1307:stm32f4xx_rcc.c ****   *            @arg RCC_AHB1Periph_GPIOC:   GPIOC clock
1308:stm32f4xx_rcc.c ****   *            @arg RCC_AHB1Periph_GPIOD:   GPIOD clock
1309:stm32f4xx_rcc.c ****   *            @arg RCC_AHB1Periph_GPIOE:   GPIOE clock
1310:stm32f4xx_rcc.c ****   *            @arg RCC_AHB1Periph_GPIOF:   GPIOF clock
1311:stm32f4xx_rcc.c ****   *            @arg RCC_AHB1Periph_GPIOG:   GPIOG clock
1312:stm32f4xx_rcc.c ****   *            @arg RCC_AHB1Periph_GPIOG:   GPIOG clock
1313:stm32f4xx_rcc.c ****   *            @arg RCC_AHB1Periph_GPIOI:   GPIOI clock  
1314:stm32f4xx_rcc.c ****   *            @arg RCC_AHB1Periph_CRC:     CRC clock
1315:stm32f4xx_rcc.c ****   *            @arg RCC_AHB1Periph_DMA1:    DMA1 clock
1316:stm32f4xx_rcc.c ****   *            @arg RCC_AHB1Periph_DMA2:    DMA2 clock 
1317:stm32f4xx_rcc.c ****   *            @arg RCC_AHB1Periph_ETH_MAC: Ethernet MAC clock
1318:stm32f4xx_rcc.c ****   *            @arg RCC_AHB1Periph_OTG_HS:  USB OTG HS clock
1319:stm32f4xx_rcc.c ****   *                  
1320:stm32f4xx_rcc.c ****   * @param  NewState: new state of the specified peripheral reset.
1321:stm32f4xx_rcc.c ****   *          This parameter can be: ENABLE or DISABLE.
1322:stm32f4xx_rcc.c ****   * @retval None
1323:stm32f4xx_rcc.c ****   */
1324:stm32f4xx_rcc.c **** void RCC_AHB1PeriphResetCmd(uint32_t RCC_AHB1Periph, FunctionalState NewState)
1325:stm32f4xx_rcc.c **** {
 1141              		.loc 1 1325 0
 1142              		.cfi_startproc
 1143              		@ args = 0, pretend = 0, frame = 0
 1144              		@ frame_needed = 0, uses_anonymous_args = 0
 1145              		@ link register save eliminated.
 1146              	.LVL100:
 1147 0000 044B     		ldr	r3, .L121	@ tmp146,
1326:stm32f4xx_rcc.c ****   /* Check the parameters */
1327:stm32f4xx_rcc.c ****   assert_param(IS_RCC_AHB1_RESET_PERIPH(RCC_AHB1Periph));
1328:stm32f4xx_rcc.c ****   assert_param(IS_FUNCTIONAL_STATE(NewState));
1329:stm32f4xx_rcc.c **** 
1330:stm32f4xx_rcc.c ****   if (NewState != DISABLE)
1331:stm32f4xx_rcc.c ****   {
1332:stm32f4xx_rcc.c ****     RCC->AHB1RSTR |= RCC_AHB1Periph;
 1148              		.loc 1 1332 0
 1149 0002 1A69     		ldr	r2, [r3, #16]	@ D.6223,
1330:stm32f4xx_rcc.c ****   if (NewState != DISABLE)
 1150              		.loc 1 1330 0
 1151 0004 09B1     		cbz	r1, .L118	@ NewState,
 1152              		.loc 1 1332 0
 1153 0006 1043     		orrs	r0, r0, r2	@, D.6224, RCC_AHB1Periph, D.6223
 1154              	.LVL101:
 1155 0008 01E0     		b	.L120	@
 1156              	.LVL102:
ARM GAS  /tmp/cc69dDoz.s 			page 45


 1157              	.L118:
1333:stm32f4xx_rcc.c ****   }
1334:stm32f4xx_rcc.c ****   else
1335:stm32f4xx_rcc.c ****   {
1336:stm32f4xx_rcc.c ****     RCC->AHB1RSTR &= ~RCC_AHB1Periph;
 1158              		.loc 1 1336 0
 1159 000a 22EA0000 		bic	r0, r2, r0	@ D.6228, D.6226, RCC_AHB1Periph
 1160              	.LVL103:
 1161              	.L120:
 1162 000e 1861     		str	r0, [r3, #16]	@ D.6228,
 1163 0010 7047     		bx	lr	@
 1164              	.L122:
 1165 0012 00BF     		.align	2
 1166              	.L121:
 1167 0014 00380240 		.word	1073887232
 1168              		.cfi_endproc
 1169              	.LFE140:
 1170              		.size	RCC_AHB1PeriphResetCmd, .-RCC_AHB1PeriphResetCmd
 1171              		.section	.text.RCC_AHB2PeriphResetCmd,"ax",%progbits
 1172              		.align	1
 1173              		.global	RCC_AHB2PeriphResetCmd
 1174              		.thumb
 1175              		.thumb_func
 1176              		.type	RCC_AHB2PeriphResetCmd, %function
 1177              	RCC_AHB2PeriphResetCmd:
 1178              	.LFB141:
1337:stm32f4xx_rcc.c ****   }
1338:stm32f4xx_rcc.c **** }
1339:stm32f4xx_rcc.c **** 
1340:stm32f4xx_rcc.c **** /**
1341:stm32f4xx_rcc.c ****   * @brief  Forces or releases AHB2 peripheral reset.
1342:stm32f4xx_rcc.c ****   * @param  RCC_AHB2Periph: specifies the AHB2 peripheral to reset.
1343:stm32f4xx_rcc.c ****   *          This parameter can be any combination of the following values:
1344:stm32f4xx_rcc.c ****   *            @arg RCC_AHB2Periph_DCMI:   DCMI clock
1345:stm32f4xx_rcc.c ****   *            @arg RCC_AHB2Periph_CRYP:   CRYP clock
1346:stm32f4xx_rcc.c ****   *            @arg RCC_AHB2Periph_HASH:   HASH clock
1347:stm32f4xx_rcc.c ****   *            @arg RCC_AHB2Periph_RNG:    RNG clock
1348:stm32f4xx_rcc.c ****   *            @arg RCC_AHB2Periph_OTG_FS: USB OTG FS clock
1349:stm32f4xx_rcc.c ****   * @param  NewState: new state of the specified peripheral reset.
1350:stm32f4xx_rcc.c ****   *          This parameter can be: ENABLE or DISABLE.
1351:stm32f4xx_rcc.c ****   * @retval None
1352:stm32f4xx_rcc.c ****   */
1353:stm32f4xx_rcc.c **** void RCC_AHB2PeriphResetCmd(uint32_t RCC_AHB2Periph, FunctionalState NewState)
1354:stm32f4xx_rcc.c **** {
 1179              		.loc 1 1354 0
 1180              		.cfi_startproc
 1181              		@ args = 0, pretend = 0, frame = 0
 1182              		@ frame_needed = 0, uses_anonymous_args = 0
 1183              		@ link register save eliminated.
 1184              	.LVL104:
 1185 0000 044B     		ldr	r3, .L127	@ tmp146,
1355:stm32f4xx_rcc.c ****   /* Check the parameters */
1356:stm32f4xx_rcc.c ****   assert_param(IS_RCC_AHB2_PERIPH(RCC_AHB2Periph));
1357:stm32f4xx_rcc.c ****   assert_param(IS_FUNCTIONAL_STATE(NewState));
1358:stm32f4xx_rcc.c **** 
1359:stm32f4xx_rcc.c ****   if (NewState != DISABLE)
1360:stm32f4xx_rcc.c ****   {
ARM GAS  /tmp/cc69dDoz.s 			page 46


1361:stm32f4xx_rcc.c ****     RCC->AHB2RSTR |= RCC_AHB2Periph;
 1186              		.loc 1 1361 0
 1187 0002 5A69     		ldr	r2, [r3, #20]	@ D.6214,
1359:stm32f4xx_rcc.c ****   if (NewState != DISABLE)
 1188              		.loc 1 1359 0
 1189 0004 09B1     		cbz	r1, .L124	@ NewState,
 1190              		.loc 1 1361 0
 1191 0006 1043     		orrs	r0, r0, r2	@, D.6215, RCC_AHB2Periph, D.6214
 1192              	.LVL105:
 1193 0008 01E0     		b	.L126	@
 1194              	.LVL106:
 1195              	.L124:
1362:stm32f4xx_rcc.c ****   }
1363:stm32f4xx_rcc.c ****   else
1364:stm32f4xx_rcc.c ****   {
1365:stm32f4xx_rcc.c ****     RCC->AHB2RSTR &= ~RCC_AHB2Periph;
 1196              		.loc 1 1365 0
 1197 000a 22EA0000 		bic	r0, r2, r0	@ D.6219, D.6217, RCC_AHB2Periph
 1198              	.LVL107:
 1199              	.L126:
 1200 000e 5861     		str	r0, [r3, #20]	@ D.6219,
 1201 0010 7047     		bx	lr	@
 1202              	.L128:
 1203 0012 00BF     		.align	2
 1204              	.L127:
 1205 0014 00380240 		.word	1073887232
 1206              		.cfi_endproc
 1207              	.LFE141:
 1208              		.size	RCC_AHB2PeriphResetCmd, .-RCC_AHB2PeriphResetCmd
 1209              		.section	.text.RCC_AHB3PeriphResetCmd,"ax",%progbits
 1210              		.align	1
 1211              		.global	RCC_AHB3PeriphResetCmd
 1212              		.thumb
 1213              		.thumb_func
 1214              		.type	RCC_AHB3PeriphResetCmd, %function
 1215              	RCC_AHB3PeriphResetCmd:
 1216              	.LFB142:
1366:stm32f4xx_rcc.c ****   }
1367:stm32f4xx_rcc.c **** }
1368:stm32f4xx_rcc.c **** 
1369:stm32f4xx_rcc.c **** /**
1370:stm32f4xx_rcc.c ****   * @brief  Forces or releases AHB3 peripheral reset.
1371:stm32f4xx_rcc.c ****   * @param  RCC_AHB3Periph: specifies the AHB3 peripheral to reset.
1372:stm32f4xx_rcc.c ****   *          This parameter must be: RCC_AHB3Periph_FSMC
1373:stm32f4xx_rcc.c ****   *                                   
1374:stm32f4xx_rcc.c ****   * @param  NewState: new state of the specified peripheral reset.
1375:stm32f4xx_rcc.c ****   *          This parameter can be: ENABLE or DISABLE.
1376:stm32f4xx_rcc.c ****   * @retval None
1377:stm32f4xx_rcc.c ****   */
1378:stm32f4xx_rcc.c **** void RCC_AHB3PeriphResetCmd(uint32_t RCC_AHB3Periph, FunctionalState NewState)
1379:stm32f4xx_rcc.c **** {
 1217              		.loc 1 1379 0
 1218              		.cfi_startproc
 1219              		@ args = 0, pretend = 0, frame = 0
 1220              		@ frame_needed = 0, uses_anonymous_args = 0
 1221              		@ link register save eliminated.
 1222              	.LVL108:
ARM GAS  /tmp/cc69dDoz.s 			page 47


 1223 0000 044B     		ldr	r3, .L133	@ tmp146,
1380:stm32f4xx_rcc.c ****   /* Check the parameters */
1381:stm32f4xx_rcc.c ****   assert_param(IS_RCC_AHB3_PERIPH(RCC_AHB3Periph));
1382:stm32f4xx_rcc.c ****   assert_param(IS_FUNCTIONAL_STATE(NewState));
1383:stm32f4xx_rcc.c **** 
1384:stm32f4xx_rcc.c ****   if (NewState != DISABLE)
1385:stm32f4xx_rcc.c ****   {
1386:stm32f4xx_rcc.c ****     RCC->AHB3RSTR |= RCC_AHB3Periph;
 1224              		.loc 1 1386 0
 1225 0002 9A69     		ldr	r2, [r3, #24]	@ D.6205,
1384:stm32f4xx_rcc.c ****   if (NewState != DISABLE)
 1226              		.loc 1 1384 0
 1227 0004 09B1     		cbz	r1, .L130	@ NewState,
 1228              		.loc 1 1386 0
 1229 0006 1043     		orrs	r0, r0, r2	@, D.6206, RCC_AHB3Periph, D.6205
 1230              	.LVL109:
 1231 0008 01E0     		b	.L132	@
 1232              	.LVL110:
 1233              	.L130:
1387:stm32f4xx_rcc.c ****   }
1388:stm32f4xx_rcc.c ****   else
1389:stm32f4xx_rcc.c ****   {
1390:stm32f4xx_rcc.c ****     RCC->AHB3RSTR &= ~RCC_AHB3Periph;
 1234              		.loc 1 1390 0
 1235 000a 22EA0000 		bic	r0, r2, r0	@ D.6210, D.6208, RCC_AHB3Periph
 1236              	.LVL111:
 1237              	.L132:
 1238 000e 9861     		str	r0, [r3, #24]	@ D.6210,
 1239 0010 7047     		bx	lr	@
 1240              	.L134:
 1241 0012 00BF     		.align	2
 1242              	.L133:
 1243 0014 00380240 		.word	1073887232
 1244              		.cfi_endproc
 1245              	.LFE142:
 1246              		.size	RCC_AHB3PeriphResetCmd, .-RCC_AHB3PeriphResetCmd
 1247              		.section	.text.RCC_APB1PeriphResetCmd,"ax",%progbits
 1248              		.align	1
 1249              		.global	RCC_APB1PeriphResetCmd
 1250              		.thumb
 1251              		.thumb_func
 1252              		.type	RCC_APB1PeriphResetCmd, %function
 1253              	RCC_APB1PeriphResetCmd:
 1254              	.LFB143:
1391:stm32f4xx_rcc.c ****   }
1392:stm32f4xx_rcc.c **** }
1393:stm32f4xx_rcc.c **** 
1394:stm32f4xx_rcc.c **** /**
1395:stm32f4xx_rcc.c ****   * @brief  Forces or releases Low Speed APB (APB1) peripheral reset.
1396:stm32f4xx_rcc.c ****   * @param  RCC_APB1Periph: specifies the APB1 peripheral to reset.
1397:stm32f4xx_rcc.c ****   *          This parameter can be any combination of the following values:
1398:stm32f4xx_rcc.c ****   *            @arg RCC_APB1Periph_TIM2:   TIM2 clock
1399:stm32f4xx_rcc.c ****   *            @arg RCC_APB1Periph_TIM3:   TIM3 clock
1400:stm32f4xx_rcc.c ****   *            @arg RCC_APB1Periph_TIM4:   TIM4 clock
1401:stm32f4xx_rcc.c ****   *            @arg RCC_APB1Periph_TIM5:   TIM5 clock
1402:stm32f4xx_rcc.c ****   *            @arg RCC_APB1Periph_TIM6:   TIM6 clock
1403:stm32f4xx_rcc.c ****   *            @arg RCC_APB1Periph_TIM7:   TIM7 clock
ARM GAS  /tmp/cc69dDoz.s 			page 48


1404:stm32f4xx_rcc.c ****   *            @arg RCC_APB1Periph_TIM12:  TIM12 clock
1405:stm32f4xx_rcc.c ****   *            @arg RCC_APB1Periph_TIM13:  TIM13 clock
1406:stm32f4xx_rcc.c ****   *            @arg RCC_APB1Periph_TIM14:  TIM14 clock
1407:stm32f4xx_rcc.c ****   *            @arg RCC_APB1Periph_WWDG:   WWDG clock
1408:stm32f4xx_rcc.c ****   *            @arg RCC_APB1Periph_SPI2:   SPI2 clock
1409:stm32f4xx_rcc.c ****   *            @arg RCC_APB1Periph_SPI3:   SPI3 clock
1410:stm32f4xx_rcc.c ****   *            @arg RCC_APB1Periph_USART2: USART2 clock
1411:stm32f4xx_rcc.c ****   *            @arg RCC_APB1Periph_USART3: USART3 clock
1412:stm32f4xx_rcc.c ****   *            @arg RCC_APB1Periph_UART4:  UART4 clock
1413:stm32f4xx_rcc.c ****   *            @arg RCC_APB1Periph_UART5:  UART5 clock
1414:stm32f4xx_rcc.c ****   *            @arg RCC_APB1Periph_I2C1:   I2C1 clock
1415:stm32f4xx_rcc.c ****   *            @arg RCC_APB1Periph_I2C2:   I2C2 clock
1416:stm32f4xx_rcc.c ****   *            @arg RCC_APB1Periph_I2C3:   I2C3 clock
1417:stm32f4xx_rcc.c ****   *            @arg RCC_APB1Periph_CAN1:   CAN1 clock
1418:stm32f4xx_rcc.c ****   *            @arg RCC_APB1Periph_CAN2:   CAN2 clock
1419:stm32f4xx_rcc.c ****   *            @arg RCC_APB1Periph_PWR:    PWR clock
1420:stm32f4xx_rcc.c ****   *            @arg RCC_APB1Periph_DAC:    DAC clock
1421:stm32f4xx_rcc.c ****   *            @arg RCC_APB1Periph_UART7:  UART7 clock
1422:stm32f4xx_rcc.c ****   *            @arg RCC_APB1Periph_UART8:  UART8 clock  
1423:stm32f4xx_rcc.c ****   * @param  NewState: new state of the specified peripheral reset.
1424:stm32f4xx_rcc.c ****   *          This parameter can be: ENABLE or DISABLE.
1425:stm32f4xx_rcc.c ****   * @retval None
1426:stm32f4xx_rcc.c ****   */
1427:stm32f4xx_rcc.c **** void RCC_APB1PeriphResetCmd(uint32_t RCC_APB1Periph, FunctionalState NewState)
1428:stm32f4xx_rcc.c **** {
 1255              		.loc 1 1428 0
 1256              		.cfi_startproc
 1257              		@ args = 0, pretend = 0, frame = 0
 1258              		@ frame_needed = 0, uses_anonymous_args = 0
 1259              		@ link register save eliminated.
 1260              	.LVL112:
 1261 0000 044B     		ldr	r3, .L139	@ tmp146,
1429:stm32f4xx_rcc.c ****   /* Check the parameters */
1430:stm32f4xx_rcc.c ****   assert_param(IS_RCC_APB1_PERIPH(RCC_APB1Periph));
1431:stm32f4xx_rcc.c ****   assert_param(IS_FUNCTIONAL_STATE(NewState));
1432:stm32f4xx_rcc.c ****   if (NewState != DISABLE)
1433:stm32f4xx_rcc.c ****   {
1434:stm32f4xx_rcc.c ****     RCC->APB1RSTR |= RCC_APB1Periph;
 1262              		.loc 1 1434 0
 1263 0002 1A6A     		ldr	r2, [r3, #32]	@ D.6196,
1432:stm32f4xx_rcc.c ****   if (NewState != DISABLE)
 1264              		.loc 1 1432 0
 1265 0004 09B1     		cbz	r1, .L136	@ NewState,
 1266              		.loc 1 1434 0
 1267 0006 1043     		orrs	r0, r0, r2	@, D.6197, RCC_APB1Periph, D.6196
 1268              	.LVL113:
 1269 0008 01E0     		b	.L138	@
 1270              	.LVL114:
 1271              	.L136:
1435:stm32f4xx_rcc.c ****   }
1436:stm32f4xx_rcc.c ****   else
1437:stm32f4xx_rcc.c ****   {
1438:stm32f4xx_rcc.c ****     RCC->APB1RSTR &= ~RCC_APB1Periph;
 1272              		.loc 1 1438 0
 1273 000a 22EA0000 		bic	r0, r2, r0	@ D.6201, D.6199, RCC_APB1Periph
 1274              	.LVL115:
 1275              	.L138:
ARM GAS  /tmp/cc69dDoz.s 			page 49


 1276 000e 1862     		str	r0, [r3, #32]	@ D.6201,
 1277 0010 7047     		bx	lr	@
 1278              	.L140:
 1279 0012 00BF     		.align	2
 1280              	.L139:
 1281 0014 00380240 		.word	1073887232
 1282              		.cfi_endproc
 1283              	.LFE143:
 1284              		.size	RCC_APB1PeriphResetCmd, .-RCC_APB1PeriphResetCmd
 1285              		.section	.text.RCC_APB2PeriphResetCmd,"ax",%progbits
 1286              		.align	1
 1287              		.global	RCC_APB2PeriphResetCmd
 1288              		.thumb
 1289              		.thumb_func
 1290              		.type	RCC_APB2PeriphResetCmd, %function
 1291              	RCC_APB2PeriphResetCmd:
 1292              	.LFB144:
1439:stm32f4xx_rcc.c ****   }
1440:stm32f4xx_rcc.c **** }
1441:stm32f4xx_rcc.c **** 
1442:stm32f4xx_rcc.c **** /**
1443:stm32f4xx_rcc.c ****   * @brief  Forces or releases High Speed APB (APB2) peripheral reset.
1444:stm32f4xx_rcc.c ****   * @param  RCC_APB2Periph: specifies the APB2 peripheral to reset.
1445:stm32f4xx_rcc.c ****   *          This parameter can be any combination of the following values:
1446:stm32f4xx_rcc.c ****   *            @arg RCC_APB2Periph_TIM1:   TIM1 clock
1447:stm32f4xx_rcc.c ****   *            @arg RCC_APB2Periph_TIM8:   TIM8 clock
1448:stm32f4xx_rcc.c ****   *            @arg RCC_APB2Periph_USART1: USART1 clock
1449:stm32f4xx_rcc.c ****   *            @arg RCC_APB2Periph_USART6: USART6 clock
1450:stm32f4xx_rcc.c ****   *            @arg RCC_APB2Periph_ADC1:   ADC1 clock
1451:stm32f4xx_rcc.c ****   *            @arg RCC_APB2Periph_ADC2:   ADC2 clock
1452:stm32f4xx_rcc.c ****   *            @arg RCC_APB2Periph_ADC3:   ADC3 clock
1453:stm32f4xx_rcc.c ****   *            @arg RCC_APB2Periph_SDIO:   SDIO clock
1454:stm32f4xx_rcc.c ****   *            @arg RCC_APB2Periph_SPI1:   SPI1 clock
1455:stm32f4xx_rcc.c ****   *            @arg RCC_APB2Periph_SPI4:   SPI4 clock  
1456:stm32f4xx_rcc.c ****   *            @arg RCC_APB2Periph_SYSCFG: SYSCFG clock
1457:stm32f4xx_rcc.c ****   *            @arg RCC_APB2Periph_TIM9:   TIM9 clock
1458:stm32f4xx_rcc.c ****   *            @arg RCC_APB2Periph_TIM10:  TIM10 clock
1459:stm32f4xx_rcc.c ****   *            @arg RCC_APB2Periph_TIM11:  TIM11 clock
1460:stm32f4xx_rcc.c ****   *            @arg RCC_APB2Periph_SPI5:   SPI5 clock
1461:stm32f4xx_rcc.c ****   *            @arg RCC_APB2Periph_SPI6:   SPI6 clock 
1462:stm32f4xx_rcc.c ****   * @param  NewState: new state of the specified peripheral reset.
1463:stm32f4xx_rcc.c ****   *          This parameter can be: ENABLE or DISABLE.
1464:stm32f4xx_rcc.c ****   * @retval None
1465:stm32f4xx_rcc.c ****   */
1466:stm32f4xx_rcc.c **** void RCC_APB2PeriphResetCmd(uint32_t RCC_APB2Periph, FunctionalState NewState)
1467:stm32f4xx_rcc.c **** {
 1293              		.loc 1 1467 0
 1294              		.cfi_startproc
 1295              		@ args = 0, pretend = 0, frame = 0
 1296              		@ frame_needed = 0, uses_anonymous_args = 0
 1297              		@ link register save eliminated.
 1298              	.LVL116:
 1299 0000 044B     		ldr	r3, .L145	@ tmp146,
1468:stm32f4xx_rcc.c ****   /* Check the parameters */
1469:stm32f4xx_rcc.c ****   assert_param(IS_RCC_APB2_RESET_PERIPH(RCC_APB2Periph));
1470:stm32f4xx_rcc.c ****   assert_param(IS_FUNCTIONAL_STATE(NewState));
1471:stm32f4xx_rcc.c ****   if (NewState != DISABLE)
ARM GAS  /tmp/cc69dDoz.s 			page 50


1472:stm32f4xx_rcc.c ****   {
1473:stm32f4xx_rcc.c ****     RCC->APB2RSTR |= RCC_APB2Periph;
 1300              		.loc 1 1473 0
 1301 0002 5A6A     		ldr	r2, [r3, #36]	@ D.6187,
1471:stm32f4xx_rcc.c ****   if (NewState != DISABLE)
 1302              		.loc 1 1471 0
 1303 0004 09B1     		cbz	r1, .L142	@ NewState,
 1304              		.loc 1 1473 0
 1305 0006 1043     		orrs	r0, r0, r2	@, D.6188, RCC_APB2Periph, D.6187
 1306              	.LVL117:
 1307 0008 01E0     		b	.L144	@
 1308              	.LVL118:
 1309              	.L142:
1474:stm32f4xx_rcc.c ****   }
1475:stm32f4xx_rcc.c ****   else
1476:stm32f4xx_rcc.c ****   {
1477:stm32f4xx_rcc.c ****     RCC->APB2RSTR &= ~RCC_APB2Periph;
 1310              		.loc 1 1477 0
 1311 000a 22EA0000 		bic	r0, r2, r0	@ D.6192, D.6190, RCC_APB2Periph
 1312              	.LVL119:
 1313              	.L144:
 1314 000e 5862     		str	r0, [r3, #36]	@ D.6192,
 1315 0010 7047     		bx	lr	@
 1316              	.L146:
 1317 0012 00BF     		.align	2
 1318              	.L145:
 1319 0014 00380240 		.word	1073887232
 1320              		.cfi_endproc
 1321              	.LFE144:
 1322              		.size	RCC_APB2PeriphResetCmd, .-RCC_APB2PeriphResetCmd
 1323              		.section	.text.RCC_AHB1PeriphClockLPModeCmd,"ax",%progbits
 1324              		.align	1
 1325              		.global	RCC_AHB1PeriphClockLPModeCmd
 1326              		.thumb
 1327              		.thumb_func
 1328              		.type	RCC_AHB1PeriphClockLPModeCmd, %function
 1329              	RCC_AHB1PeriphClockLPModeCmd:
 1330              	.LFB145:
1478:stm32f4xx_rcc.c ****   }
1479:stm32f4xx_rcc.c **** }
1480:stm32f4xx_rcc.c **** 
1481:stm32f4xx_rcc.c **** /**
1482:stm32f4xx_rcc.c ****   * @brief  Enables or disables the AHB1 peripheral clock during Low Power (Sleep) mode.
1483:stm32f4xx_rcc.c ****   * @note   Peripheral clock gating in SLEEP mode can be used to further reduce
1484:stm32f4xx_rcc.c ****   *         power consumption.
1485:stm32f4xx_rcc.c ****   * @note   After wakeup from SLEEP mode, the peripheral clock is enabled again.
1486:stm32f4xx_rcc.c ****   * @note   By default, all peripheral clocks are enabled during SLEEP mode.
1487:stm32f4xx_rcc.c ****   * @param  RCC_AHBPeriph: specifies the AHB1 peripheral to gates its clock.
1488:stm32f4xx_rcc.c ****   *          This parameter can be any combination of the following values:
1489:stm32f4xx_rcc.c ****   *            @arg RCC_AHB1Periph_GPIOA:       GPIOA clock
1490:stm32f4xx_rcc.c ****   *            @arg RCC_AHB1Periph_GPIOB:       GPIOB clock 
1491:stm32f4xx_rcc.c ****   *            @arg RCC_AHB1Periph_GPIOC:       GPIOC clock
1492:stm32f4xx_rcc.c ****   *            @arg RCC_AHB1Periph_GPIOD:       GPIOD clock
1493:stm32f4xx_rcc.c ****   *            @arg RCC_AHB1Periph_GPIOE:       GPIOE clock
1494:stm32f4xx_rcc.c ****   *            @arg RCC_AHB1Periph_GPIOF:       GPIOF clock
1495:stm32f4xx_rcc.c ****   *            @arg RCC_AHB1Periph_GPIOG:       GPIOG clock
1496:stm32f4xx_rcc.c ****   *            @arg RCC_AHB1Periph_GPIOG:       GPIOG clock
ARM GAS  /tmp/cc69dDoz.s 			page 51


1497:stm32f4xx_rcc.c ****   *            @arg RCC_AHB1Periph_GPIOI:       GPIOI clock 
1498:stm32f4xx_rcc.c ****   *            @arg RCC_AHB1Periph_CRC:         CRC clock
1499:stm32f4xx_rcc.c ****   *            @arg RCC_AHB1Periph_BKPSRAM:     BKPSRAM interface clock
1500:stm32f4xx_rcc.c ****   *            @arg RCC_AHB1Periph_DMA1:        DMA1 clock
1501:stm32f4xx_rcc.c ****   *            @arg RCC_AHB1Periph_DMA2:        DMA2 clock
1502:stm32f4xx_rcc.c ****   *            @arg RCC_AHB1Periph_ETH_MAC:     Ethernet MAC clock
1503:stm32f4xx_rcc.c ****   *            @arg RCC_AHB1Periph_ETH_MAC_Tx:  Ethernet Transmission clock
1504:stm32f4xx_rcc.c ****   *            @arg RCC_AHB1Periph_ETH_MAC_Rx:  Ethernet Reception clock
1505:stm32f4xx_rcc.c ****   *            @arg RCC_AHB1Periph_ETH_MAC_PTP: Ethernet PTP clock
1506:stm32f4xx_rcc.c ****   *            @arg RCC_AHB1Periph_OTG_HS:      USB OTG HS clock
1507:stm32f4xx_rcc.c ****   *            @arg RCC_AHB1Periph_OTG_HS_ULPI: USB OTG HS ULPI clock
1508:stm32f4xx_rcc.c ****   * @param  NewState: new state of the specified peripheral clock.
1509:stm32f4xx_rcc.c ****   *          This parameter can be: ENABLE or DISABLE.
1510:stm32f4xx_rcc.c ****   * @retval None
1511:stm32f4xx_rcc.c ****   */
1512:stm32f4xx_rcc.c **** void RCC_AHB1PeriphClockLPModeCmd(uint32_t RCC_AHB1Periph, FunctionalState NewState)
1513:stm32f4xx_rcc.c **** {
 1331              		.loc 1 1513 0
 1332              		.cfi_startproc
 1333              		@ args = 0, pretend = 0, frame = 0
 1334              		@ frame_needed = 0, uses_anonymous_args = 0
 1335              		@ link register save eliminated.
 1336              	.LVL120:
 1337 0000 044B     		ldr	r3, .L151	@ tmp146,
1514:stm32f4xx_rcc.c ****   /* Check the parameters */
1515:stm32f4xx_rcc.c ****   assert_param(IS_RCC_AHB1_LPMODE_PERIPH(RCC_AHB1Periph));
1516:stm32f4xx_rcc.c ****   assert_param(IS_FUNCTIONAL_STATE(NewState));
1517:stm32f4xx_rcc.c ****   if (NewState != DISABLE)
1518:stm32f4xx_rcc.c ****   {
1519:stm32f4xx_rcc.c ****     RCC->AHB1LPENR |= RCC_AHB1Periph;
 1338              		.loc 1 1519 0
 1339 0002 1A6D     		ldr	r2, [r3, #80]	@ D.6178,
1517:stm32f4xx_rcc.c ****   if (NewState != DISABLE)
 1340              		.loc 1 1517 0
 1341 0004 09B1     		cbz	r1, .L148	@ NewState,
 1342              		.loc 1 1519 0
 1343 0006 1043     		orrs	r0, r0, r2	@, D.6179, RCC_AHB1Periph, D.6178
 1344              	.LVL121:
 1345 0008 01E0     		b	.L150	@
 1346              	.LVL122:
 1347              	.L148:
1520:stm32f4xx_rcc.c ****   }
1521:stm32f4xx_rcc.c ****   else
1522:stm32f4xx_rcc.c ****   {
1523:stm32f4xx_rcc.c ****     RCC->AHB1LPENR &= ~RCC_AHB1Periph;
 1348              		.loc 1 1523 0
 1349 000a 22EA0000 		bic	r0, r2, r0	@ D.6183, D.6181, RCC_AHB1Periph
 1350              	.LVL123:
 1351              	.L150:
 1352 000e 1865     		str	r0, [r3, #80]	@ D.6183,
 1353 0010 7047     		bx	lr	@
 1354              	.L152:
 1355 0012 00BF     		.align	2
 1356              	.L151:
 1357 0014 00380240 		.word	1073887232
 1358              		.cfi_endproc
 1359              	.LFE145:
ARM GAS  /tmp/cc69dDoz.s 			page 52


 1360              		.size	RCC_AHB1PeriphClockLPModeCmd, .-RCC_AHB1PeriphClockLPModeCmd
 1361              		.section	.text.RCC_AHB2PeriphClockLPModeCmd,"ax",%progbits
 1362              		.align	1
 1363              		.global	RCC_AHB2PeriphClockLPModeCmd
 1364              		.thumb
 1365              		.thumb_func
 1366              		.type	RCC_AHB2PeriphClockLPModeCmd, %function
 1367              	RCC_AHB2PeriphClockLPModeCmd:
 1368              	.LFB146:
1524:stm32f4xx_rcc.c ****   }
1525:stm32f4xx_rcc.c **** }
1526:stm32f4xx_rcc.c **** 
1527:stm32f4xx_rcc.c **** /**
1528:stm32f4xx_rcc.c ****   * @brief  Enables or disables the AHB2 peripheral clock during Low Power (Sleep) mode.
1529:stm32f4xx_rcc.c ****   * @note   Peripheral clock gating in SLEEP mode can be used to further reduce
1530:stm32f4xx_rcc.c ****   *           power consumption.
1531:stm32f4xx_rcc.c ****   * @note   After wakeup from SLEEP mode, the peripheral clock is enabled again.
1532:stm32f4xx_rcc.c ****   * @note   By default, all peripheral clocks are enabled during SLEEP mode.
1533:stm32f4xx_rcc.c ****   * @param  RCC_AHBPeriph: specifies the AHB2 peripheral to gates its clock.
1534:stm32f4xx_rcc.c ****   *          This parameter can be any combination of the following values:
1535:stm32f4xx_rcc.c ****   *            @arg RCC_AHB2Periph_DCMI:   DCMI clock
1536:stm32f4xx_rcc.c ****   *            @arg RCC_AHB2Periph_CRYP:   CRYP clock
1537:stm32f4xx_rcc.c ****   *            @arg RCC_AHB2Periph_HASH:   HASH clock
1538:stm32f4xx_rcc.c ****   *            @arg RCC_AHB2Periph_RNG:    RNG clock
1539:stm32f4xx_rcc.c ****   *            @arg RCC_AHB2Periph_OTG_FS: USB OTG FS clock  
1540:stm32f4xx_rcc.c ****   * @param  NewState: new state of the specified peripheral clock.
1541:stm32f4xx_rcc.c ****   *          This parameter can be: ENABLE or DISABLE.
1542:stm32f4xx_rcc.c ****   * @retval None
1543:stm32f4xx_rcc.c ****   */
1544:stm32f4xx_rcc.c **** void RCC_AHB2PeriphClockLPModeCmd(uint32_t RCC_AHB2Periph, FunctionalState NewState)
1545:stm32f4xx_rcc.c **** {
 1369              		.loc 1 1545 0
 1370              		.cfi_startproc
 1371              		@ args = 0, pretend = 0, frame = 0
 1372              		@ frame_needed = 0, uses_anonymous_args = 0
 1373              		@ link register save eliminated.
 1374              	.LVL124:
 1375 0000 044B     		ldr	r3, .L157	@ tmp146,
1546:stm32f4xx_rcc.c ****   /* Check the parameters */
1547:stm32f4xx_rcc.c ****   assert_param(IS_RCC_AHB2_PERIPH(RCC_AHB2Periph));
1548:stm32f4xx_rcc.c ****   assert_param(IS_FUNCTIONAL_STATE(NewState));
1549:stm32f4xx_rcc.c ****   if (NewState != DISABLE)
1550:stm32f4xx_rcc.c ****   {
1551:stm32f4xx_rcc.c ****     RCC->AHB2LPENR |= RCC_AHB2Periph;
 1376              		.loc 1 1551 0
 1377 0002 5A6D     		ldr	r2, [r3, #84]	@ D.6169,
1549:stm32f4xx_rcc.c ****   if (NewState != DISABLE)
 1378              		.loc 1 1549 0
 1379 0004 09B1     		cbz	r1, .L154	@ NewState,
 1380              		.loc 1 1551 0
 1381 0006 1043     		orrs	r0, r0, r2	@, D.6170, RCC_AHB2Periph, D.6169
 1382              	.LVL125:
 1383 0008 01E0     		b	.L156	@
 1384              	.LVL126:
 1385              	.L154:
1552:stm32f4xx_rcc.c ****   }
1553:stm32f4xx_rcc.c ****   else
ARM GAS  /tmp/cc69dDoz.s 			page 53


1554:stm32f4xx_rcc.c ****   {
1555:stm32f4xx_rcc.c ****     RCC->AHB2LPENR &= ~RCC_AHB2Periph;
 1386              		.loc 1 1555 0
 1387 000a 22EA0000 		bic	r0, r2, r0	@ D.6174, D.6172, RCC_AHB2Periph
 1388              	.LVL127:
 1389              	.L156:
 1390 000e 5865     		str	r0, [r3, #84]	@ D.6174,
 1391 0010 7047     		bx	lr	@
 1392              	.L158:
 1393 0012 00BF     		.align	2
 1394              	.L157:
 1395 0014 00380240 		.word	1073887232
 1396              		.cfi_endproc
 1397              	.LFE146:
 1398              		.size	RCC_AHB2PeriphClockLPModeCmd, .-RCC_AHB2PeriphClockLPModeCmd
 1399              		.section	.text.RCC_AHB3PeriphClockLPModeCmd,"ax",%progbits
 1400              		.align	1
 1401              		.global	RCC_AHB3PeriphClockLPModeCmd
 1402              		.thumb
 1403              		.thumb_func
 1404              		.type	RCC_AHB3PeriphClockLPModeCmd, %function
 1405              	RCC_AHB3PeriphClockLPModeCmd:
 1406              	.LFB147:
1556:stm32f4xx_rcc.c ****   }
1557:stm32f4xx_rcc.c **** }
1558:stm32f4xx_rcc.c **** 
1559:stm32f4xx_rcc.c **** /**
1560:stm32f4xx_rcc.c ****   * @brief  Enables or disables the AHB3 peripheral clock during Low Power (Sleep) mode.
1561:stm32f4xx_rcc.c ****   * @note   Peripheral clock gating in SLEEP mode can be used to further reduce
1562:stm32f4xx_rcc.c ****   *         power consumption.
1563:stm32f4xx_rcc.c ****   * @note   After wakeup from SLEEP mode, the peripheral clock is enabled again.
1564:stm32f4xx_rcc.c ****   * @note   By default, all peripheral clocks are enabled during SLEEP mode.
1565:stm32f4xx_rcc.c ****   * @param  RCC_AHBPeriph: specifies the AHB3 peripheral to gates its clock.
1566:stm32f4xx_rcc.c ****   *          This parameter must be: RCC_AHB3Periph_FSMC
1567:stm32f4xx_rcc.c ****   *                                  
1568:stm32f4xx_rcc.c ****   * @param  NewState: new state of the specified peripheral clock.
1569:stm32f4xx_rcc.c ****   *          This parameter can be: ENABLE or DISABLE.
1570:stm32f4xx_rcc.c ****   * @retval None
1571:stm32f4xx_rcc.c ****   */
1572:stm32f4xx_rcc.c **** void RCC_AHB3PeriphClockLPModeCmd(uint32_t RCC_AHB3Periph, FunctionalState NewState)
1573:stm32f4xx_rcc.c **** {
 1407              		.loc 1 1573 0
 1408              		.cfi_startproc
 1409              		@ args = 0, pretend = 0, frame = 0
 1410              		@ frame_needed = 0, uses_anonymous_args = 0
 1411              		@ link register save eliminated.
 1412              	.LVL128:
 1413 0000 044B     		ldr	r3, .L163	@ tmp146,
1574:stm32f4xx_rcc.c ****   /* Check the parameters */
1575:stm32f4xx_rcc.c ****   assert_param(IS_RCC_AHB3_PERIPH(RCC_AHB3Periph));
1576:stm32f4xx_rcc.c ****   assert_param(IS_FUNCTIONAL_STATE(NewState));
1577:stm32f4xx_rcc.c ****   if (NewState != DISABLE)
1578:stm32f4xx_rcc.c ****   {
1579:stm32f4xx_rcc.c ****     RCC->AHB3LPENR |= RCC_AHB3Periph;
 1414              		.loc 1 1579 0
 1415 0002 9A6D     		ldr	r2, [r3, #88]	@ D.6160,
1577:stm32f4xx_rcc.c ****   if (NewState != DISABLE)
ARM GAS  /tmp/cc69dDoz.s 			page 54


 1416              		.loc 1 1577 0
 1417 0004 09B1     		cbz	r1, .L160	@ NewState,
 1418              		.loc 1 1579 0
 1419 0006 1043     		orrs	r0, r0, r2	@, D.6161, RCC_AHB3Periph, D.6160
 1420              	.LVL129:
 1421 0008 01E0     		b	.L162	@
 1422              	.LVL130:
 1423              	.L160:
1580:stm32f4xx_rcc.c ****   }
1581:stm32f4xx_rcc.c ****   else
1582:stm32f4xx_rcc.c ****   {
1583:stm32f4xx_rcc.c ****     RCC->AHB3LPENR &= ~RCC_AHB3Periph;
 1424              		.loc 1 1583 0
 1425 000a 22EA0000 		bic	r0, r2, r0	@ D.6165, D.6163, RCC_AHB3Periph
 1426              	.LVL131:
 1427              	.L162:
 1428 000e 9865     		str	r0, [r3, #88]	@ D.6165,
 1429 0010 7047     		bx	lr	@
 1430              	.L164:
 1431 0012 00BF     		.align	2
 1432              	.L163:
 1433 0014 00380240 		.word	1073887232
 1434              		.cfi_endproc
 1435              	.LFE147:
 1436              		.size	RCC_AHB3PeriphClockLPModeCmd, .-RCC_AHB3PeriphClockLPModeCmd
 1437              		.section	.text.RCC_APB1PeriphClockLPModeCmd,"ax",%progbits
 1438              		.align	1
 1439              		.global	RCC_APB1PeriphClockLPModeCmd
 1440              		.thumb
 1441              		.thumb_func
 1442              		.type	RCC_APB1PeriphClockLPModeCmd, %function
 1443              	RCC_APB1PeriphClockLPModeCmd:
 1444              	.LFB148:
1584:stm32f4xx_rcc.c ****   }
1585:stm32f4xx_rcc.c **** }
1586:stm32f4xx_rcc.c **** 
1587:stm32f4xx_rcc.c **** /**
1588:stm32f4xx_rcc.c ****   * @brief  Enables or disables the APB1 peripheral clock during Low Power (Sleep) mode.
1589:stm32f4xx_rcc.c ****   * @note   Peripheral clock gating in SLEEP mode can be used to further reduce
1590:stm32f4xx_rcc.c ****   *         power consumption.
1591:stm32f4xx_rcc.c ****   * @note   After wakeup from SLEEP mode, the peripheral clock is enabled again.
1592:stm32f4xx_rcc.c ****   * @note   By default, all peripheral clocks are enabled during SLEEP mode.
1593:stm32f4xx_rcc.c ****   * @param  RCC_APB1Periph: specifies the APB1 peripheral to gates its clock.
1594:stm32f4xx_rcc.c ****   *          This parameter can be any combination of the following values:
1595:stm32f4xx_rcc.c ****   *            @arg RCC_APB1Periph_TIM2:   TIM2 clock
1596:stm32f4xx_rcc.c ****   *            @arg RCC_APB1Periph_TIM3:   TIM3 clock
1597:stm32f4xx_rcc.c ****   *            @arg RCC_APB1Periph_TIM4:   TIM4 clock
1598:stm32f4xx_rcc.c ****   *            @arg RCC_APB1Periph_TIM5:   TIM5 clock
1599:stm32f4xx_rcc.c ****   *            @arg RCC_APB1Periph_TIM6:   TIM6 clock
1600:stm32f4xx_rcc.c ****   *            @arg RCC_APB1Periph_TIM7:   TIM7 clock
1601:stm32f4xx_rcc.c ****   *            @arg RCC_APB1Periph_TIM12:  TIM12 clock
1602:stm32f4xx_rcc.c ****   *            @arg RCC_APB1Periph_TIM13:  TIM13 clock
1603:stm32f4xx_rcc.c ****   *            @arg RCC_APB1Periph_TIM14:  TIM14 clock
1604:stm32f4xx_rcc.c ****   *            @arg RCC_APB1Periph_WWDG:   WWDG clock
1605:stm32f4xx_rcc.c ****   *            @arg RCC_APB1Periph_SPI2:   SPI2 clock
1606:stm32f4xx_rcc.c ****   *            @arg RCC_APB1Periph_SPI3:   SPI3 clock
1607:stm32f4xx_rcc.c ****   *            @arg RCC_APB1Periph_USART2: USART2 clock
ARM GAS  /tmp/cc69dDoz.s 			page 55


1608:stm32f4xx_rcc.c ****   *            @arg RCC_APB1Periph_USART3: USART3 clock
1609:stm32f4xx_rcc.c ****   *            @arg RCC_APB1Periph_UART4:  UART4 clock
1610:stm32f4xx_rcc.c ****   *            @arg RCC_APB1Periph_UART5:  UART5 clock
1611:stm32f4xx_rcc.c ****   *            @arg RCC_APB1Periph_I2C1:   I2C1 clock
1612:stm32f4xx_rcc.c ****   *            @arg RCC_APB1Periph_I2C2:   I2C2 clock
1613:stm32f4xx_rcc.c ****   *            @arg RCC_APB1Periph_I2C3:   I2C3 clock
1614:stm32f4xx_rcc.c ****   *            @arg RCC_APB1Periph_CAN1:   CAN1 clock
1615:stm32f4xx_rcc.c ****   *            @arg RCC_APB1Periph_CAN2:   CAN2 clock
1616:stm32f4xx_rcc.c ****   *            @arg RCC_APB1Periph_PWR:    PWR clock
1617:stm32f4xx_rcc.c ****   *            @arg RCC_APB1Periph_DAC:    DAC clock
1618:stm32f4xx_rcc.c ****   *            @arg RCC_APB1Periph_UART7:  UART7 clock
1619:stm32f4xx_rcc.c ****   *            @arg RCC_APB1Periph_UART8:  UART8 clock
1620:stm32f4xx_rcc.c ****   * @param  NewState: new state of the specified peripheral clock.
1621:stm32f4xx_rcc.c ****   *          This parameter can be: ENABLE or DISABLE.
1622:stm32f4xx_rcc.c ****   * @retval None
1623:stm32f4xx_rcc.c ****   */
1624:stm32f4xx_rcc.c **** void RCC_APB1PeriphClockLPModeCmd(uint32_t RCC_APB1Periph, FunctionalState NewState)
1625:stm32f4xx_rcc.c **** {
 1445              		.loc 1 1625 0
 1446              		.cfi_startproc
 1447              		@ args = 0, pretend = 0, frame = 0
 1448              		@ frame_needed = 0, uses_anonymous_args = 0
 1449              		@ link register save eliminated.
 1450              	.LVL132:
 1451 0000 044B     		ldr	r3, .L169	@ tmp146,
1626:stm32f4xx_rcc.c ****   /* Check the parameters */
1627:stm32f4xx_rcc.c ****   assert_param(IS_RCC_APB1_PERIPH(RCC_APB1Periph));
1628:stm32f4xx_rcc.c ****   assert_param(IS_FUNCTIONAL_STATE(NewState));
1629:stm32f4xx_rcc.c ****   if (NewState != DISABLE)
1630:stm32f4xx_rcc.c ****   {
1631:stm32f4xx_rcc.c ****     RCC->APB1LPENR |= RCC_APB1Periph;
 1452              		.loc 1 1631 0
 1453 0002 1A6E     		ldr	r2, [r3, #96]	@ D.6151,
1629:stm32f4xx_rcc.c ****   if (NewState != DISABLE)
 1454              		.loc 1 1629 0
 1455 0004 09B1     		cbz	r1, .L166	@ NewState,
 1456              		.loc 1 1631 0
 1457 0006 1043     		orrs	r0, r0, r2	@, D.6152, RCC_APB1Periph, D.6151
 1458              	.LVL133:
 1459 0008 01E0     		b	.L168	@
 1460              	.LVL134:
 1461              	.L166:
1632:stm32f4xx_rcc.c ****   }
1633:stm32f4xx_rcc.c ****   else
1634:stm32f4xx_rcc.c ****   {
1635:stm32f4xx_rcc.c ****     RCC->APB1LPENR &= ~RCC_APB1Periph;
 1462              		.loc 1 1635 0
 1463 000a 22EA0000 		bic	r0, r2, r0	@ D.6156, D.6154, RCC_APB1Periph
 1464              	.LVL135:
 1465              	.L168:
 1466 000e 1866     		str	r0, [r3, #96]	@ D.6156,
 1467 0010 7047     		bx	lr	@
 1468              	.L170:
 1469 0012 00BF     		.align	2
 1470              	.L169:
 1471 0014 00380240 		.word	1073887232
 1472              		.cfi_endproc
ARM GAS  /tmp/cc69dDoz.s 			page 56


 1473              	.LFE148:
 1474              		.size	RCC_APB1PeriphClockLPModeCmd, .-RCC_APB1PeriphClockLPModeCmd
 1475              		.section	.text.RCC_APB2PeriphClockLPModeCmd,"ax",%progbits
 1476              		.align	1
 1477              		.global	RCC_APB2PeriphClockLPModeCmd
 1478              		.thumb
 1479              		.thumb_func
 1480              		.type	RCC_APB2PeriphClockLPModeCmd, %function
 1481              	RCC_APB2PeriphClockLPModeCmd:
 1482              	.LFB149:
1636:stm32f4xx_rcc.c ****   }
1637:stm32f4xx_rcc.c **** }
1638:stm32f4xx_rcc.c **** 
1639:stm32f4xx_rcc.c **** /**
1640:stm32f4xx_rcc.c ****   * @brief  Enables or disables the APB2 peripheral clock during Low Power (Sleep) mode.
1641:stm32f4xx_rcc.c ****   * @note   Peripheral clock gating in SLEEP mode can be used to further reduce
1642:stm32f4xx_rcc.c ****   *         power consumption.
1643:stm32f4xx_rcc.c ****   * @note   After wakeup from SLEEP mode, the peripheral clock is enabled again.
1644:stm32f4xx_rcc.c ****   * @note   By default, all peripheral clocks are enabled during SLEEP mode.
1645:stm32f4xx_rcc.c ****   * @param  RCC_APB2Periph: specifies the APB2 peripheral to gates its clock.
1646:stm32f4xx_rcc.c ****   *          This parameter can be any combination of the following values:
1647:stm32f4xx_rcc.c ****   *            @arg RCC_APB2Periph_TIM1:   TIM1 clock
1648:stm32f4xx_rcc.c ****   *            @arg RCC_APB2Periph_TIM8:   TIM8 clock
1649:stm32f4xx_rcc.c ****   *            @arg RCC_APB2Periph_USART1: USART1 clock
1650:stm32f4xx_rcc.c ****   *            @arg RCC_APB2Periph_USART6: USART6 clock
1651:stm32f4xx_rcc.c ****   *            @arg RCC_APB2Periph_ADC1:   ADC1 clock
1652:stm32f4xx_rcc.c ****   *            @arg RCC_APB2Periph_ADC2:   ADC2 clock
1653:stm32f4xx_rcc.c ****   *            @arg RCC_APB2Periph_ADC3:   ADC3 clock
1654:stm32f4xx_rcc.c ****   *            @arg RCC_APB2Periph_SDIO:   SDIO clock
1655:stm32f4xx_rcc.c ****   *            @arg RCC_APB2Periph_SPI1:   SPI1 clock
1656:stm32f4xx_rcc.c ****   *            @arg RCC_APB2Periph_SPI4:   SPI4 clock
1657:stm32f4xx_rcc.c ****   *            @arg RCC_APB2Periph_SYSCFG: SYSCFG clock
1658:stm32f4xx_rcc.c ****   *            @arg RCC_APB2Periph_TIM9:   TIM9 clock
1659:stm32f4xx_rcc.c ****   *            @arg RCC_APB2Periph_TIM10:  TIM10 clock
1660:stm32f4xx_rcc.c ****   *            @arg RCC_APB2Periph_TIM11:  TIM11 clock
1661:stm32f4xx_rcc.c ****   *            @arg RCC_APB2Periph_SPI5:   SPI5 clock
1662:stm32f4xx_rcc.c ****   *            @arg RCC_APB2Periph_SPI6:   SPI6 clock  
1663:stm32f4xx_rcc.c ****   * @param  NewState: new state of the specified peripheral clock.
1664:stm32f4xx_rcc.c ****   *          This parameter can be: ENABLE or DISABLE.
1665:stm32f4xx_rcc.c ****   * @retval None
1666:stm32f4xx_rcc.c ****   */
1667:stm32f4xx_rcc.c **** void RCC_APB2PeriphClockLPModeCmd(uint32_t RCC_APB2Periph, FunctionalState NewState)
1668:stm32f4xx_rcc.c **** {
 1483              		.loc 1 1668 0
 1484              		.cfi_startproc
 1485              		@ args = 0, pretend = 0, frame = 0
 1486              		@ frame_needed = 0, uses_anonymous_args = 0
 1487              		@ link register save eliminated.
 1488              	.LVL136:
 1489 0000 044B     		ldr	r3, .L175	@ tmp146,
1669:stm32f4xx_rcc.c ****   /* Check the parameters */
1670:stm32f4xx_rcc.c ****   assert_param(IS_RCC_APB2_PERIPH(RCC_APB2Periph));
1671:stm32f4xx_rcc.c ****   assert_param(IS_FUNCTIONAL_STATE(NewState));
1672:stm32f4xx_rcc.c ****   if (NewState != DISABLE)
1673:stm32f4xx_rcc.c ****   {
1674:stm32f4xx_rcc.c ****     RCC->APB2LPENR |= RCC_APB2Periph;
 1490              		.loc 1 1674 0
ARM GAS  /tmp/cc69dDoz.s 			page 57


 1491 0002 5A6E     		ldr	r2, [r3, #100]	@ D.6142,
1672:stm32f4xx_rcc.c ****   if (NewState != DISABLE)
 1492              		.loc 1 1672 0
 1493 0004 09B1     		cbz	r1, .L172	@ NewState,
 1494              		.loc 1 1674 0
 1495 0006 1043     		orrs	r0, r0, r2	@, D.6143, RCC_APB2Periph, D.6142
 1496              	.LVL137:
 1497 0008 01E0     		b	.L174	@
 1498              	.LVL138:
 1499              	.L172:
1675:stm32f4xx_rcc.c ****   }
1676:stm32f4xx_rcc.c ****   else
1677:stm32f4xx_rcc.c ****   {
1678:stm32f4xx_rcc.c ****     RCC->APB2LPENR &= ~RCC_APB2Periph;
 1500              		.loc 1 1678 0
 1501 000a 22EA0000 		bic	r0, r2, r0	@ D.6147, D.6145, RCC_APB2Periph
 1502              	.LVL139:
 1503              	.L174:
 1504 000e 5866     		str	r0, [r3, #100]	@ D.6147,
 1505 0010 7047     		bx	lr	@
 1506              	.L176:
 1507 0012 00BF     		.align	2
 1508              	.L175:
 1509 0014 00380240 		.word	1073887232
 1510              		.cfi_endproc
 1511              	.LFE149:
 1512              		.size	RCC_APB2PeriphClockLPModeCmd, .-RCC_APB2PeriphClockLPModeCmd
 1513              		.section	.text.RCC_ITConfig,"ax",%progbits
 1514              		.align	1
 1515              		.global	RCC_ITConfig
 1516              		.thumb
 1517              		.thumb_func
 1518              		.type	RCC_ITConfig, %function
 1519              	RCC_ITConfig:
 1520              	.LFB150:
1679:stm32f4xx_rcc.c ****   }
1680:stm32f4xx_rcc.c **** }
1681:stm32f4xx_rcc.c **** 
1682:stm32f4xx_rcc.c **** /**
1683:stm32f4xx_rcc.c ****   * @}
1684:stm32f4xx_rcc.c ****   */
1685:stm32f4xx_rcc.c **** 
1686:stm32f4xx_rcc.c **** /** @defgroup RCC_Group4 Interrupts and flags management functions
1687:stm32f4xx_rcc.c ****  *  @brief   Interrupts and flags management functions 
1688:stm32f4xx_rcc.c ****  *
1689:stm32f4xx_rcc.c **** @verbatim   
1690:stm32f4xx_rcc.c ****  ===============================================================================
1691:stm32f4xx_rcc.c ****                 ##### Interrupts and flags management functions #####
1692:stm32f4xx_rcc.c ****  ===============================================================================  
1693:stm32f4xx_rcc.c **** 
1694:stm32f4xx_rcc.c **** @endverbatim
1695:stm32f4xx_rcc.c ****   * @{
1696:stm32f4xx_rcc.c ****   */
1697:stm32f4xx_rcc.c **** 
1698:stm32f4xx_rcc.c **** /**
1699:stm32f4xx_rcc.c ****   * @brief  Enables or disables the specified RCC interrupts.
1700:stm32f4xx_rcc.c ****   * @param  RCC_IT: specifies the RCC interrupt sources to be enabled or disabled.
ARM GAS  /tmp/cc69dDoz.s 			page 58


1701:stm32f4xx_rcc.c ****   *          This parameter can be any combination of the following values:
1702:stm32f4xx_rcc.c ****   *            @arg RCC_IT_LSIRDY: LSI ready interrupt
1703:stm32f4xx_rcc.c ****   *            @arg RCC_IT_LSERDY: LSE ready interrupt
1704:stm32f4xx_rcc.c ****   *            @arg RCC_IT_HSIRDY: HSI ready interrupt
1705:stm32f4xx_rcc.c ****   *            @arg RCC_IT_HSERDY: HSE ready interrupt
1706:stm32f4xx_rcc.c ****   *            @arg RCC_IT_PLLRDY: main PLL ready interrupt
1707:stm32f4xx_rcc.c ****   *            @arg RCC_IT_PLLI2SRDY: PLLI2S ready interrupt
1708:stm32f4xx_rcc.c ****   *              
1709:stm32f4xx_rcc.c ****   * @param  NewState: new state of the specified RCC interrupts.
1710:stm32f4xx_rcc.c ****   *          This parameter can be: ENABLE or DISABLE.
1711:stm32f4xx_rcc.c ****   * @retval None
1712:stm32f4xx_rcc.c ****   */
1713:stm32f4xx_rcc.c **** void RCC_ITConfig(uint8_t RCC_IT, FunctionalState NewState)
1714:stm32f4xx_rcc.c **** {
 1521              		.loc 1 1714 0
 1522              		.cfi_startproc
 1523              		@ args = 0, pretend = 0, frame = 0
 1524              		@ frame_needed = 0, uses_anonymous_args = 0
 1525              		@ link register save eliminated.
 1526              	.LVL140:
 1527 0000 044B     		ldr	r3, .L181	@ tmp155,
1715:stm32f4xx_rcc.c ****   /* Check the parameters */
1716:stm32f4xx_rcc.c ****   assert_param(IS_RCC_IT(RCC_IT));
1717:stm32f4xx_rcc.c ****   assert_param(IS_FUNCTIONAL_STATE(NewState));
1718:stm32f4xx_rcc.c ****   if (NewState != DISABLE)
1719:stm32f4xx_rcc.c ****   {
1720:stm32f4xx_rcc.c ****     /* Perform Byte access to RCC_CIR[14:8] bits to enable the selected interrupts */
1721:stm32f4xx_rcc.c ****     *(__IO uint8_t *) CIR_BYTE2_ADDRESS |= RCC_IT;
 1528              		.loc 1 1721 0
 1529 0002 1A78     		ldrb	r2, [r3, #0]	@ zero_extendqisi2	@ MEM[(volatile uint8_t *)1073887245B],
1718:stm32f4xx_rcc.c ****   if (NewState != DISABLE)
 1530              		.loc 1 1718 0
 1531 0004 09B1     		cbz	r1, .L178	@ NewState,
 1532              		.loc 1 1721 0
 1533 0006 1043     		orrs	r0, r0, r2	@, D.6134, RCC_IT, MEM[(volatile uint8_t *)1073887245B]
 1534              	.LVL141:
 1535 0008 01E0     		b	.L180	@
 1536              	.LVL142:
 1537              	.L178:
1722:stm32f4xx_rcc.c ****   }
1723:stm32f4xx_rcc.c ****   else
1724:stm32f4xx_rcc.c ****   {
1725:stm32f4xx_rcc.c ****     /* Perform Byte access to RCC_CIR[14:8] bits to disable the selected interrupts */
1726:stm32f4xx_rcc.c ****     *(__IO uint8_t *) CIR_BYTE2_ADDRESS &= (uint8_t)~RCC_IT;
 1538              		.loc 1 1726 0
 1539 000a 22EA0000 		bic	r0, r2, r0	@ D.6138, MEM[(volatile uint8_t *)1073887245B], RCC_IT
 1540              	.LVL143:
 1541              	.L180:
 1542 000e 1870     		strb	r0, [r3, #0]	@ D.6138,
 1543 0010 7047     		bx	lr	@
 1544              	.L182:
 1545 0012 00BF     		.align	2
 1546              	.L181:
 1547 0014 0D380240 		.word	1073887245
 1548              		.cfi_endproc
 1549              	.LFE150:
 1550              		.size	RCC_ITConfig, .-RCC_ITConfig
ARM GAS  /tmp/cc69dDoz.s 			page 59


 1551              		.section	.text.RCC_GetFlagStatus,"ax",%progbits
 1552              		.align	1
 1553              		.global	RCC_GetFlagStatus
 1554              		.thumb
 1555              		.thumb_func
 1556              		.type	RCC_GetFlagStatus, %function
 1557              	RCC_GetFlagStatus:
 1558              	.LFB151:
1727:stm32f4xx_rcc.c ****   }
1728:stm32f4xx_rcc.c **** }
1729:stm32f4xx_rcc.c **** 
1730:stm32f4xx_rcc.c **** /**
1731:stm32f4xx_rcc.c ****   * @brief  Checks whether the specified RCC flag is set or not.
1732:stm32f4xx_rcc.c ****   * @param  RCC_FLAG: specifies the flag to check.
1733:stm32f4xx_rcc.c ****   *          This parameter can be one of the following values:
1734:stm32f4xx_rcc.c ****   *            @arg RCC_FLAG_HSIRDY: HSI oscillator clock ready
1735:stm32f4xx_rcc.c ****   *            @arg RCC_FLAG_HSERDY: HSE oscillator clock ready
1736:stm32f4xx_rcc.c ****   *            @arg RCC_FLAG_PLLRDY: main PLL clock ready
1737:stm32f4xx_rcc.c ****   *            @arg RCC_FLAG_PLLI2SRDY: PLLI2S clock ready
1738:stm32f4xx_rcc.c ****   *            @arg RCC_FLAG_LSERDY: LSE oscillator clock ready
1739:stm32f4xx_rcc.c ****   *            @arg RCC_FLAG_LSIRDY: LSI oscillator clock ready
1740:stm32f4xx_rcc.c ****   *            @arg RCC_FLAG_BORRST: POR/PDR or BOR reset
1741:stm32f4xx_rcc.c ****   *            @arg RCC_FLAG_PINRST: Pin reset
1742:stm32f4xx_rcc.c ****   *            @arg RCC_FLAG_PORRST: POR/PDR reset
1743:stm32f4xx_rcc.c ****   *            @arg RCC_FLAG_SFTRST: Software reset
1744:stm32f4xx_rcc.c ****   *            @arg RCC_FLAG_IWDGRST: Independent Watchdog reset
1745:stm32f4xx_rcc.c ****   *            @arg RCC_FLAG_WWDGRST: Window Watchdog reset
1746:stm32f4xx_rcc.c ****   *            @arg RCC_FLAG_LPWRRST: Low Power reset
1747:stm32f4xx_rcc.c ****   * @retval The new state of RCC_FLAG (SET or RESET).
1748:stm32f4xx_rcc.c ****   */
1749:stm32f4xx_rcc.c **** FlagStatus RCC_GetFlagStatus(uint8_t RCC_FLAG)
1750:stm32f4xx_rcc.c **** {
 1559              		.loc 1 1750 0
 1560              		.cfi_startproc
 1561              		@ args = 0, pretend = 0, frame = 0
 1562              		@ frame_needed = 0, uses_anonymous_args = 0
 1563              		@ link register save eliminated.
 1564              	.LVL144:
1751:stm32f4xx_rcc.c ****   uint32_t tmp = 0;
1752:stm32f4xx_rcc.c ****   uint32_t statusreg = 0;
1753:stm32f4xx_rcc.c ****   FlagStatus bitstatus = RESET;
1754:stm32f4xx_rcc.c **** 
1755:stm32f4xx_rcc.c ****   /* Check the parameters */
1756:stm32f4xx_rcc.c ****   assert_param(IS_RCC_FLAG(RCC_FLAG));
1757:stm32f4xx_rcc.c **** 
1758:stm32f4xx_rcc.c ****   /* Get the RCC register index */
1759:stm32f4xx_rcc.c ****   tmp = RCC_FLAG >> 5;
 1565              		.loc 1 1759 0
 1566 0000 4309     		lsrs	r3, r0, #5	@ tmp, RCC_FLAG,
 1567              	.LVL145:
1760:stm32f4xx_rcc.c ****   if (tmp == 1)               /* The flag to check is in CR register */
 1568              		.loc 1 1760 0
 1569 0002 012B     		cmp	r3, #1	@ tmp,
 1570 0004 074A     		ldr	r2, .L187	@ tmp163,
 1571 0006 01D1     		bne	.L184	@,
1761:stm32f4xx_rcc.c ****   {
1762:stm32f4xx_rcc.c ****     statusreg = RCC->CR;
ARM GAS  /tmp/cc69dDoz.s 			page 60


 1572              		.loc 1 1762 0
 1573 0008 1368     		ldr	r3, [r2, #0]	@ statusreg, MEM[(struct RCC_TypeDef *)1073887232B].CR
 1574              	.LVL146:
 1575 000a 03E0     		b	.L185	@
 1576              	.LVL147:
 1577              	.L184:
1763:stm32f4xx_rcc.c ****   }
1764:stm32f4xx_rcc.c ****   else if (tmp == 2)          /* The flag to check is in BDCR register */
 1578              		.loc 1 1764 0
 1579 000c 022B     		cmp	r3, #2	@ tmp,
1765:stm32f4xx_rcc.c ****   {
1766:stm32f4xx_rcc.c ****     statusreg = RCC->BDCR;
 1580              		.loc 1 1766 0
 1581 000e 0CBF     		ite	eq
 1582 0010 136F     		ldreq	r3, [r2, #112]	@ statusreg, MEM[(struct RCC_TypeDef *)1073887232B].BDCR
 1583              	.LVL148:
1767:stm32f4xx_rcc.c ****   }
1768:stm32f4xx_rcc.c ****   else                       /* The flag to check is in CSR register */
1769:stm32f4xx_rcc.c ****   {
1770:stm32f4xx_rcc.c ****     statusreg = RCC->CSR;
 1584              		.loc 1 1770 0
 1585 0012 536F     		ldrne	r3, [r2, #116]	@ statusreg, MEM[(struct RCC_TypeDef *)1073887232B].CSR
 1586              	.LVL149:
 1587              	.L185:
1771:stm32f4xx_rcc.c ****   }
1772:stm32f4xx_rcc.c **** 
1773:stm32f4xx_rcc.c ****   /* Get the flag position */
1774:stm32f4xx_rcc.c ****   tmp = RCC_FLAG & FLAG_MASK;
1775:stm32f4xx_rcc.c ****   if ((statusreg & ((uint32_t)1 << tmp)) != (uint32_t)RESET)
 1588              		.loc 1 1775 0
 1589 0014 00F01F00 		and	r0, r0, #31	@ tmp159, RCC_FLAG,
 1590              	.LVL150:
 1591 0018 23FA00F1 		lsr	r1, r3, r0	@ tmp160, statusreg, tmp159
1776:stm32f4xx_rcc.c ****   {
1777:stm32f4xx_rcc.c ****     bitstatus = SET;
1778:stm32f4xx_rcc.c ****   }
1779:stm32f4xx_rcc.c ****   else
1780:stm32f4xx_rcc.c ****   {
1781:stm32f4xx_rcc.c ****     bitstatus = RESET;
1782:stm32f4xx_rcc.c ****   }
1783:stm32f4xx_rcc.c ****   /* Return the flag status */
1784:stm32f4xx_rcc.c ****   return bitstatus;
1785:stm32f4xx_rcc.c **** }
 1592              		.loc 1 1785 0
 1593 001c 01F00100 		and	r0, r1, #1	@, tmp160,
 1594 0020 7047     		bx	lr	@
 1595              	.L188:
 1596 0022 00BF     		.align	2
 1597              	.L187:
 1598 0024 00380240 		.word	1073887232
 1599              		.cfi_endproc
 1600              	.LFE151:
 1601              		.size	RCC_GetFlagStatus, .-RCC_GetFlagStatus
 1602              		.section	.text.RCC_WaitForHSEStartUp,"ax",%progbits
 1603              		.align	1
 1604              		.global	RCC_WaitForHSEStartUp
 1605              		.thumb
ARM GAS  /tmp/cc69dDoz.s 			page 61


 1606              		.thumb_func
 1607              		.type	RCC_WaitForHSEStartUp, %function
 1608              	RCC_WaitForHSEStartUp:
 1609              	.LFB112:
 280:stm32f4xx_rcc.c **** {
 1610              		.loc 1 280 0
 1611              		.cfi_startproc
 1612              		@ args = 0, pretend = 0, frame = 8
 1613              		@ frame_needed = 0, uses_anonymous_args = 0
 1614 0000 07B5     		push	{r0, r1, r2, lr}	@
 1615              	.LCFI2:
 1616              		.cfi_def_cfa_offset 16
 1617              		.cfi_offset 0, -16
 1618              		.cfi_offset 1, -12
 1619              		.cfi_offset 2, -8
 1620              		.cfi_offset 14, -4
 281:stm32f4xx_rcc.c ****   __IO uint32_t startupcounter = 0;
 1621              		.loc 1 281 0
 1622 0002 0023     		movs	r3, #0	@ tmp142,
 1623 0004 0193     		str	r3, [sp, #4]	@ tmp142, startupcounter
 1624              	.LVL151:
 1625              	.L191:
 287:stm32f4xx_rcc.c ****     hsestatus = RCC_GetFlagStatus(RCC_FLAG_HSERDY);
 1626              		.loc 1 287 0 discriminator 1
 1627 0006 3120     		movs	r0, #49	@,
 1628 0008 FFF7FEFF 		bl	RCC_GetFlagStatus	@
 1629              	.LVL152:
 288:stm32f4xx_rcc.c ****     startupcounter++;
 1630              		.loc 1 288 0 discriminator 1
 1631 000c 0199     		ldr	r1, [sp, #4]	@ startupcounter.2, startupcounter
 1632 000e 4A1C     		adds	r2, r1, #1	@ startupcounter.3, startupcounter.2,
 1633              	.LVL153:
 1634 0010 0192     		str	r2, [sp, #4]	@ startupcounter.3, startupcounter
 1635              	.LVL154:
 289:stm32f4xx_rcc.c ****   } while((startupcounter != HSE_STARTUP_TIMEOUT) && (hsestatus == RESET));
 1636              		.loc 1 289 0 discriminator 1
 1637 0012 019B     		ldr	r3, [sp, #4]	@ startupcounter.4, startupcounter
 1638 0014 B3F5A06F 		cmp	r3, #1280	@ startupcounter.4,
 1639 0018 01D0     		beq	.L190	@,
 1640 001a 0028     		cmp	r0, #0	@ tmp143
 1641 001c F3D0     		beq	.L191	@
 1642              	.L190:
 291:stm32f4xx_rcc.c ****   if (RCC_GetFlagStatus(RCC_FLAG_HSERDY) != RESET)
 1643              		.loc 1 291 0
 1644 001e 3120     		movs	r0, #49	@,
 1645              	.LVL155:
 1646 0020 FFF7FEFF 		bl	RCC_GetFlagStatus	@
 1647              	.LVL156:
 300:stm32f4xx_rcc.c **** }
 1648              		.loc 1 300 0
 1649 0024 0030     		adds	r0, r0, #0	@,,
 1650              	.LVL157:
 1651 0026 18BF     		it	ne
 1652 0028 0120     		movne	r0, #1	@,
 1653 002a 0EBD     		pop	{r1, r2, r3, pc}
 1654              		.cfi_endproc
 1655              	.LFE112:
ARM GAS  /tmp/cc69dDoz.s 			page 62


 1656              		.size	RCC_WaitForHSEStartUp, .-RCC_WaitForHSEStartUp
 1657              		.section	.text.RCC_ClearFlag,"ax",%progbits
 1658              		.align	1
 1659              		.global	RCC_ClearFlag
 1660              		.thumb
 1661              		.thumb_func
 1662              		.type	RCC_ClearFlag, %function
 1663              	RCC_ClearFlag:
 1664              	.LFB152:
1786:stm32f4xx_rcc.c **** 
1787:stm32f4xx_rcc.c **** /**
1788:stm32f4xx_rcc.c ****   * @brief  Clears the RCC reset flags.
1789:stm32f4xx_rcc.c ****   *         The reset flags are: RCC_FLAG_PINRST, RCC_FLAG_PORRST,  RCC_FLAG_SFTRST,
1790:stm32f4xx_rcc.c ****   *         RCC_FLAG_IWDGRST, RCC_FLAG_WWDGRST, RCC_FLAG_LPWRRST
1791:stm32f4xx_rcc.c ****   * @param  None
1792:stm32f4xx_rcc.c ****   * @retval None
1793:stm32f4xx_rcc.c ****   */
1794:stm32f4xx_rcc.c **** void RCC_ClearFlag(void)
1795:stm32f4xx_rcc.c **** {
 1665              		.loc 1 1795 0
 1666              		.cfi_startproc
 1667              		@ args = 0, pretend = 0, frame = 0
 1668              		@ frame_needed = 0, uses_anonymous_args = 0
 1669              		@ link register save eliminated.
1796:stm32f4xx_rcc.c ****   /* Set RMVF bit to clear the reset flags */
1797:stm32f4xx_rcc.c ****   RCC->CSR |= RCC_CSR_RMVF;
 1670              		.loc 1 1797 0
 1671 0000 024B     		ldr	r3, .L200	@ tmp136,
 1672 0002 5A6F     		ldr	r2, [r3, #116]	@ D.6111, MEM[(struct RCC_TypeDef *)1073887232B].CSR
 1673 0004 42F08070 		orr	r0, r2, #16777216	@ D.6112, D.6111,
 1674 0008 5867     		str	r0, [r3, #116]	@ D.6112, MEM[(struct RCC_TypeDef *)1073887232B].CSR
 1675 000a 7047     		bx	lr	@
 1676              	.L201:
 1677              		.align	2
 1678              	.L200:
 1679 000c 00380240 		.word	1073887232
 1680              		.cfi_endproc
 1681              	.LFE152:
 1682              		.size	RCC_ClearFlag, .-RCC_ClearFlag
 1683              		.section	.text.RCC_GetITStatus,"ax",%progbits
 1684              		.align	1
 1685              		.global	RCC_GetITStatus
 1686              		.thumb
 1687              		.thumb_func
 1688              		.type	RCC_GetITStatus, %function
 1689              	RCC_GetITStatus:
 1690              	.LFB153:
1798:stm32f4xx_rcc.c **** }
1799:stm32f4xx_rcc.c **** 
1800:stm32f4xx_rcc.c **** /**
1801:stm32f4xx_rcc.c ****   * @brief  Checks whether the specified RCC interrupt has occurred or not.
1802:stm32f4xx_rcc.c ****   * @param  RCC_IT: specifies the RCC interrupt source to check.
1803:stm32f4xx_rcc.c ****   *          This parameter can be one of the following values:
1804:stm32f4xx_rcc.c ****   *            @arg RCC_IT_LSIRDY: LSI ready interrupt
1805:stm32f4xx_rcc.c ****   *            @arg RCC_IT_LSERDY: LSE ready interrupt
1806:stm32f4xx_rcc.c ****   *            @arg RCC_IT_HSIRDY: HSI ready interrupt
1807:stm32f4xx_rcc.c ****   *            @arg RCC_IT_HSERDY: HSE ready interrupt
ARM GAS  /tmp/cc69dDoz.s 			page 63


1808:stm32f4xx_rcc.c ****   *            @arg RCC_IT_PLLRDY: main PLL ready interrupt
1809:stm32f4xx_rcc.c ****   *            @arg RCC_IT_PLLI2SRDY: PLLI2S ready interrupt             
1810:stm32f4xx_rcc.c ****   *            @arg RCC_IT_CSS: Clock Security System interrupt
1811:stm32f4xx_rcc.c ****   * @retval The new state of RCC_IT (SET or RESET).
1812:stm32f4xx_rcc.c ****   */
1813:stm32f4xx_rcc.c **** ITStatus RCC_GetITStatus(uint8_t RCC_IT)
1814:stm32f4xx_rcc.c **** {
 1691              		.loc 1 1814 0
 1692              		.cfi_startproc
 1693              		@ args = 0, pretend = 0, frame = 0
 1694              		@ frame_needed = 0, uses_anonymous_args = 0
 1695              		@ link register save eliminated.
 1696              	.LVL158:
1815:stm32f4xx_rcc.c ****   ITStatus bitstatus = RESET;
1816:stm32f4xx_rcc.c **** 
1817:stm32f4xx_rcc.c ****   /* Check the parameters */
1818:stm32f4xx_rcc.c ****   assert_param(IS_RCC_GET_IT(RCC_IT));
1819:stm32f4xx_rcc.c **** 
1820:stm32f4xx_rcc.c ****   /* Check the status of the specified RCC interrupt */
1821:stm32f4xx_rcc.c ****   if ((RCC->CIR & RCC_IT) != (uint32_t)RESET)
 1697              		.loc 1 1821 0
 1698 0000 034B     		ldr	r3, .L203	@ tmp141,
 1699 0002 D968     		ldr	r1, [r3, #12]	@ D.6102, MEM[(struct RCC_TypeDef *)1073887232B].CIR
 1700              	.LVL159:
 1701 0004 0842     		tst	r0, r1	@ RCC_IT, D.6102
1822:stm32f4xx_rcc.c ****   {
1823:stm32f4xx_rcc.c ****     bitstatus = SET;
1824:stm32f4xx_rcc.c ****   }
1825:stm32f4xx_rcc.c ****   else
1826:stm32f4xx_rcc.c ****   {
1827:stm32f4xx_rcc.c ****     bitstatus = RESET;
1828:stm32f4xx_rcc.c ****   }
1829:stm32f4xx_rcc.c ****   /* Return the RCC_IT status */
1830:stm32f4xx_rcc.c ****   return  bitstatus;
1831:stm32f4xx_rcc.c **** }
 1702              		.loc 1 1831 0
 1703 0006 0CBF     		ite	eq	@
 1704 0008 0020     		moveq	r0, #0	@,
 1705 000a 0120     		movne	r0, #1	@,
 1706              	.LVL160:
 1707 000c 7047     		bx	lr	@
 1708              	.L204:
 1709 000e 00BF     		.align	2
 1710              	.L203:
 1711 0010 00380240 		.word	1073887232
 1712              		.cfi_endproc
 1713              	.LFE153:
 1714              		.size	RCC_GetITStatus, .-RCC_GetITStatus
 1715              		.section	.text.RCC_ClearITPendingBit,"ax",%progbits
 1716              		.align	1
 1717              		.global	RCC_ClearITPendingBit
 1718              		.thumb
 1719              		.thumb_func
 1720              		.type	RCC_ClearITPendingBit, %function
 1721              	RCC_ClearITPendingBit:
 1722              	.LFB154:
1832:stm32f4xx_rcc.c **** 
ARM GAS  /tmp/cc69dDoz.s 			page 64


1833:stm32f4xx_rcc.c **** /**
1834:stm32f4xx_rcc.c ****   * @brief  Clears the RCC's interrupt pending bits.
1835:stm32f4xx_rcc.c ****   * @param  RCC_IT: specifies the interrupt pending bit to clear.
1836:stm32f4xx_rcc.c ****   *          This parameter can be any combination of the following values:
1837:stm32f4xx_rcc.c ****   *            @arg RCC_IT_LSIRDY: LSI ready interrupt
1838:stm32f4xx_rcc.c ****   *            @arg RCC_IT_LSERDY: LSE ready interrupt
1839:stm32f4xx_rcc.c ****   *            @arg RCC_IT_HSIRDY: HSI ready interrupt
1840:stm32f4xx_rcc.c ****   *            @arg RCC_IT_HSERDY: HSE ready interrupt
1841:stm32f4xx_rcc.c ****   *            @arg RCC_IT_PLLRDY: main PLL ready interrupt
1842:stm32f4xx_rcc.c ****   *            @arg RCC_IT_PLLI2SRDY: PLLI2S ready interrupt  
1843:stm32f4xx_rcc.c ****   *            @arg RCC_IT_CSS: Clock Security System interrupt
1844:stm32f4xx_rcc.c ****   * @retval None
1845:stm32f4xx_rcc.c ****   */
1846:stm32f4xx_rcc.c **** void RCC_ClearITPendingBit(uint8_t RCC_IT)
1847:stm32f4xx_rcc.c **** {
 1723              		.loc 1 1847 0
 1724              		.cfi_startproc
 1725              		@ args = 0, pretend = 0, frame = 0
 1726              		@ frame_needed = 0, uses_anonymous_args = 0
 1727              		@ link register save eliminated.
 1728              	.LVL161:
1848:stm32f4xx_rcc.c ****   /* Check the parameters */
1849:stm32f4xx_rcc.c ****   assert_param(IS_RCC_CLEAR_IT(RCC_IT));
1850:stm32f4xx_rcc.c **** 
1851:stm32f4xx_rcc.c ****   /* Perform Byte access to RCC_CIR[23:16] bits to clear the selected interrupt
1852:stm32f4xx_rcc.c ****      pending bits */
1853:stm32f4xx_rcc.c ****   *(__IO uint8_t *) CIR_BYTE3_ADDRESS = RCC_IT;
 1729              		.loc 1 1853 0
 1730 0000 014B     		ldr	r3, .L206	@ tmp135,
 1731 0002 1870     		strb	r0, [r3, #0]	@ RCC_IT, MEM[(volatile uint8_t *)1073887246B]
 1732 0004 7047     		bx	lr	@
 1733              	.L207:
 1734 0006 00BF     		.align	2
 1735              	.L206:
 1736 0008 0E380240 		.word	1073887246
 1737              		.cfi_endproc
 1738              	.LFE154:
 1739              		.size	RCC_ClearITPendingBit, .-RCC_ClearITPendingBit
 1740              		.section	.data.APBAHBPrescTable,"aw",%progbits
 1741              		.set	.LANCHOR0,. + 0
 1742              		.type	APBAHBPrescTable, %object
 1743              		.size	APBAHBPrescTable, 16
 1744              	APBAHBPrescTable:
 1745 0000 00       		.byte	0
 1746 0001 00       		.byte	0
 1747 0002 00       		.byte	0
 1748 0003 00       		.byte	0
 1749 0004 01       		.byte	1
 1750 0005 02       		.byte	2
 1751 0006 03       		.byte	3
 1752 0007 04       		.byte	4
 1753 0008 01       		.byte	1
 1754 0009 02       		.byte	2
 1755 000a 03       		.byte	3
 1756 000b 04       		.byte	4
 1757 000c 06       		.byte	6
 1758 000d 07       		.byte	7
ARM GAS  /tmp/cc69dDoz.s 			page 65


 1759 000e 08       		.byte	8
 1760 000f 09       		.byte	9
 1761              		.text
 1762              	.Letext0:
 1763              		.file 2 "/usr/bin/../lib/gcc/arm-none-eabi/4.7.4/../../../../arm-none-eabi/include/stdint.h"
 1764              		.file 3 "stm32f4xx.h"
 1765              		.file 4 "stm32f4xx_rcc.h"
 1766              		.file 5 "cmsis/core_cm4.h"