ARM GAS  /tmp/ccXZiPD3.s 			page 1


   1              		.syntax unified
   2              		.cpu cortex-m4
   3              		.eabi_attribute 27, 3	@ Tag_ABI_HardFP_use
   4              		.eabi_attribute 28, 1	@ Tag_ABI_VFP_args
   5              		.fpu fpv4-sp-d16
   6              		.eabi_attribute 20, 1	@ Tag_ABI_FP_denormal
   7              		.eabi_attribute 21, 1	@ Tag_ABI_FP_exceptions
   8              		.eabi_attribute 23, 3	@ Tag_ABI_FP_number_model
   9              		.eabi_attribute 24, 1	@ Tag_ABI_align8_needed
  10              		.eabi_attribute 25, 1	@ Tag_ABI_align8_preserved
  11              		.eabi_attribute 26, 1	@ Tag_ABI_enum_size
  12              		.eabi_attribute 30, 4	@ Tag_ABI_optimization_goals
  13              		.eabi_attribute 34, 1	@ Tag_CPU_unaligned_access
  14              		.eabi_attribute 18, 4	@ Tag_ABI_PCS_wchar_t
  15              		.file	"stm32f4xx_dma.c"
  16              	@ GNU C (GNU Tools for ARM Embedded Processors) version 4.7.4 20130913 (release) [ARM/embedded-4_7-
  17              	@	compiled by GNU C version 4.7.3, GMP version 5.0.5, MPFR version 3.1.1-p2, MPC version 0.9
  18              	@ GGC heuristics: --param ggc-min-expand=100 --param ggc-min-heapsize=131072
  19              	@ options passed:  -I . -I ../ -I cmsis/ -imultilib armv7e-m/fpu
  20              	@ -iprefix /usr/bin/../lib/gcc/arm-none-eabi/4.7.4/
  21              	@ -isysroot /usr/bin/../arm-none-eabi -MD stm32f4xx_dma.d
  22              	@ -MF .dep/stm32f4xx_dma.o.d -MP -MQ stm32f4xx_dma.o -D__USES_INITFINI__
  23              	@ -D __FPU_USED=1 -D __arm__ -D __ASSEMBLY__ -D USE_STDPERIPH_DRIVER
  24              	@ -D STM32F4XX -D HSE_VALUE=8000000 -D __FPU_PRESENT=1 -D __FPU_USED=1
  25              	@ -D STM32F405VG -D USE_USB_OTG_FS -D RUN_FROM_FLASH=1 stm32f4xx_dma.c
  26              	@ -mthumb -mcpu=cortex-m4 -mfloat-abi=hard -mfpu=fpv4-sp-d16 -mthumb
  27              	@ -auxbase-strip stm32f4xx_dma.o -gdwarf-2 -Os -Wall -Wstrict-prototypes
  28              	@ -std=gnu99 -falign-functions=16 -fno-inline -fomit-frame-pointer
  29              	@ -fverbose-asm -ffunction-sections -fdata-sections
  30              	@ options enabled:  -fauto-inc-dec -fbranch-count-reg -fcaller-saves
  31              	@ -fcombine-stack-adjustments -fcommon -fcompare-elim -fcprop-registers
  32              	@ -fcrossjumping -fcse-follow-jumps -fdata-sections -fdebug-types-section
  33              	@ -fdefer-pop -fdelete-null-pointer-checks -fdevirtualize -fdwarf2-cfi-asm
  34              	@ -fearly-inlining -feliminate-unused-debug-types -fexpensive-optimizations
  35              	@ -fforward-propagate -ffunction-cse -ffunction-sections -fgcse -fgcse-lm
  36              	@ -fgnu-runtime -fguess-branch-probability -fident -fif-conversion
  37              	@ -fif-conversion2 -findirect-inlining -finline-atomics -finline-functions
  38              	@ -finline-functions-called-once -finline-small-functions -fipa-cp
  39              	@ -fipa-profile -fipa-pure-const -fipa-reference -fipa-sra
  40              	@ -fira-share-save-slots -fira-share-spill-slots -fivopts
  41              	@ -fkeep-static-consts -fleading-underscore -fmath-errno -fmerge-constants
  42              	@ -fmerge-debug-strings -fomit-frame-pointer -foptimize-register-move
  43              	@ -foptimize-sibling-calls -fpartial-inlining -fpeephole -fpeephole2
  44              	@ -fprefetch-loop-arrays -freg-struct-return -fregmove -frename-registers
  45              	@ -freorder-blocks -freorder-functions -frerun-cse-after-loop
  46              	@ -fsched-critical-path-heuristic -fsched-dep-count-heuristic
  47              	@ -fsched-group-heuristic -fsched-interblock -fsched-last-insn-heuristic
  48              	@ -fsched-rank-heuristic -fsched-spec -fsched-spec-insn-heuristic
  49              	@ -fsched-stalled-insns-dep -fschedule-insns2 -fsection-anchors
  50              	@ -fshow-column -fshrink-wrap -fsigned-zeros -fsplit-ivs-in-unroller
  51              	@ -fsplit-wide-types -fstrict-aliasing -fstrict-overflow
  52              	@ -fstrict-volatile-bitfields -fthread-jumps -ftoplevel-reorder
  53              	@ -ftrapping-math -ftree-bit-ccp -ftree-builtin-call-dce -ftree-ccp
  54              	@ -ftree-ch -ftree-copy-prop -ftree-copyrename -ftree-cselim -ftree-dce
  55              	@ -ftree-dominator-opts -ftree-dse -ftree-forwprop -ftree-fre
  56              	@ -ftree-loop-if-convert -ftree-loop-im -ftree-loop-ivcanon
  57              	@ -ftree-loop-optimize -ftree-parallelize-loops= -ftree-phiprop -ftree-pre
ARM GAS  /tmp/ccXZiPD3.s 			page 2


  58              	@ -ftree-pta -ftree-reassoc -ftree-scev-cprop -ftree-sink
  59              	@ -ftree-slp-vectorize -ftree-sra -ftree-switch-conversion
  60              	@ -ftree-tail-merge -ftree-ter -ftree-vect-loop-version -ftree-vrp
  61              	@ -funit-at-a-time -funroll-loops -fvar-tracking -fvar-tracking-assignments
  62              	@ -fverbose-asm -fweb -fzero-initialized-in-bss -mlittle-endian
  63              	@ -msched-prolog -mthumb -munaligned-access -mvectorize-with-neon-quad
  64              	
  65              		.text
  66              	.Ltext0:
  67              		.cfi_sections	.debug_frame
  68              		.section	.text.DMA_DeInit,"ax",%progbits
  69              		.align	1
  70              		.global	DMA_DeInit
  71              		.thumb
  72              		.thumb_func
  73              		.type	DMA_DeInit, %function
  74              	DMA_DeInit:
  75              	.LFB110:
  76              		.file 1 "stm32f4xx_dma.c"
   1:stm32f4xx_dma.c **** /**
   2:stm32f4xx_dma.c ****   ******************************************************************************
   3:stm32f4xx_dma.c ****   * @file    stm32f4xx_dma.c
   4:stm32f4xx_dma.c ****   * @author  MCD Application Team
   5:stm32f4xx_dma.c ****   * @version V1.1.0
   6:stm32f4xx_dma.c ****   * @date    11-January-2013
   7:stm32f4xx_dma.c ****   * @brief   This file provides firmware functions to manage the following 
   8:stm32f4xx_dma.c ****   *          functionalities of the Direct Memory Access controller (DMA):           
   9:stm32f4xx_dma.c ****   *           + Initialization and Configuration
  10:stm32f4xx_dma.c ****   *           + Data Counter
  11:stm32f4xx_dma.c ****   *           + Double Buffer mode configuration and command  
  12:stm32f4xx_dma.c ****   *           + Interrupts and flags management
  13:stm32f4xx_dma.c ****   *           
  14:stm32f4xx_dma.c ****   @verbatim      
  15:stm32f4xx_dma.c ****  ===============================================================================      
  16:stm32f4xx_dma.c ****                        ##### How to use this driver #####
  17:stm32f4xx_dma.c ****  ===============================================================================
  18:stm32f4xx_dma.c ****     [..] 
  19:stm32f4xx_dma.c ****       (#) Enable The DMA controller clock using RCC_AHB1PeriphResetCmd(RCC_AHB1Periph_DMA1, ENABLE)
  20:stm32f4xx_dma.c ****           function for DMA1 or using RCC_AHB1PeriphResetCmd(RCC_AHB1Periph_DMA2, ENABLE)
  21:stm32f4xx_dma.c ****           function for DMA2.
  22:stm32f4xx_dma.c ****   
  23:stm32f4xx_dma.c ****       (#) Enable and configure the peripheral to be connected to the DMA Stream
  24:stm32f4xx_dma.c ****           (except for internal SRAM / FLASH memories: no initialization is 
  25:stm32f4xx_dma.c ****           necessary). 
  26:stm32f4xx_dma.c ****           
  27:stm32f4xx_dma.c ****       (#) For a given Stream, program the required configuration through following parameters:   
  28:stm32f4xx_dma.c ****           Source and Destination addresses, Transfer Direction, Transfer size, Source and Destinati
  29:stm32f4xx_dma.c ****           data formats, Circular or Normal mode, Stream Priority level, Source and Destination 
  30:stm32f4xx_dma.c ****           Incrementation mode, FIFO mode and its Threshold (if needed), Burst 
  31:stm32f4xx_dma.c ****           mode for Source and/or Destination (if needed) using the DMA_Init() function.
  32:stm32f4xx_dma.c ****           To avoid filling unneccessary fields, you can call DMA_StructInit() function
  33:stm32f4xx_dma.c ****           to initialize a given structure with default values (reset values), the modify
  34:stm32f4xx_dma.c ****           only necessary fields 
  35:stm32f4xx_dma.c ****           (ie. Source and Destination addresses, Transfer size and Data Formats).
  36:stm32f4xx_dma.c ****   
  37:stm32f4xx_dma.c ****       (#) Enable the NVIC and the corresponding interrupt(s) using the function 
  38:stm32f4xx_dma.c ****           DMA_ITConfig() if you need to use DMA interrupts. 
ARM GAS  /tmp/ccXZiPD3.s 			page 3


  39:stm32f4xx_dma.c ****   
  40:stm32f4xx_dma.c ****       (#) Optionally, if the Circular mode is enabled, you can use the Double buffer mode by config
  41:stm32f4xx_dma.c ****           the second Memory address and the first Memory to be used through the function 
  42:stm32f4xx_dma.c ****           DMA_DoubleBufferModeConfig(). Then enable the Double buffer mode through the function
  43:stm32f4xx_dma.c ****           DMA_DoubleBufferModeCmd(). These operations must be done before step 6.
  44:stm32f4xx_dma.c ****       
  45:stm32f4xx_dma.c ****       (#) Enable the DMA stream using the DMA_Cmd() function. 
  46:stm32f4xx_dma.c ****                   
  47:stm32f4xx_dma.c ****       (#) Activate the needed Stream Request using PPP_DMACmd() function for
  48:stm32f4xx_dma.c ****           any PPP peripheral except internal SRAM and FLASH (ie. SPI, USART ...)
  49:stm32f4xx_dma.c ****           The function allowing this operation is provided in each PPP peripheral
  50:stm32f4xx_dma.c ****           driver (ie. SPI_DMACmd for SPI peripheral).
  51:stm32f4xx_dma.c ****           Once the Stream is enabled, it is not possible to modify its configuration
  52:stm32f4xx_dma.c ****           unless the stream is stopped and disabled.
  53:stm32f4xx_dma.c ****           After enabling the Stream, it is advised to monitor the EN bit status using
  54:stm32f4xx_dma.c ****           the function DMA_GetCmdStatus(). In case of configuration errors or bus errors
  55:stm32f4xx_dma.c ****           this bit will remain reset and all transfers on this Stream will remain on hold.      
  56:stm32f4xx_dma.c ****   
  57:stm32f4xx_dma.c ****       (#) Optionally, you can configure the number of data to be transferred
  58:stm32f4xx_dma.c ****           when the Stream is disabled (ie. after each Transfer Complete event
  59:stm32f4xx_dma.c ****           or when a Transfer Error occurs) using the function DMA_SetCurrDataCounter().
  60:stm32f4xx_dma.c ****           And you can get the number of remaining data to be transferred using 
  61:stm32f4xx_dma.c ****           the function DMA_GetCurrDataCounter() at run time (when the DMA Stream is
  62:stm32f4xx_dma.c ****           enabled and running).  
  63:stm32f4xx_dma.c ****                      
  64:stm32f4xx_dma.c ****       (#) To control DMA events you can use one of the following two methods:
  65:stm32f4xx_dma.c ****         (##) Check on DMA Stream flags using the function DMA_GetFlagStatus().  
  66:stm32f4xx_dma.c ****         (##) Use DMA interrupts through the function DMA_ITConfig() at initialization
  67:stm32f4xx_dma.c ****              phase and DMA_GetITStatus() function into interrupt routines in
  68:stm32f4xx_dma.c ****              communication phase.
  69:stm32f4xx_dma.c ****     [..]     
  70:stm32f4xx_dma.c ****           After checking on a flag you should clear it using DMA_ClearFlag()
  71:stm32f4xx_dma.c ****           function. And after checking on an interrupt event you should 
  72:stm32f4xx_dma.c ****           clear it using DMA_ClearITPendingBit() function.    
  73:stm32f4xx_dma.c ****                 
  74:stm32f4xx_dma.c ****       (#) Optionally, if Circular mode and Double Buffer mode are enabled, you can modify
  75:stm32f4xx_dma.c ****           the Memory Addresses using the function DMA_MemoryTargetConfig(). Make sure that
  76:stm32f4xx_dma.c ****           the Memory Address to be modified is not the one currently in use by DMA Stream.
  77:stm32f4xx_dma.c ****           This condition can be monitored using the function DMA_GetCurrentMemoryTarget().
  78:stm32f4xx_dma.c ****                 
  79:stm32f4xx_dma.c ****       (#) Optionally, Pause-Resume operations may be performed:
  80:stm32f4xx_dma.c ****           The DMA_Cmd() function may be used to perform Pause-Resume operation. 
  81:stm32f4xx_dma.c ****           When a transfer is ongoing, calling this function to disable the 
  82:stm32f4xx_dma.c ****           Stream will cause the transfer to be paused. All configuration registers 
  83:stm32f4xx_dma.c ****           and the number of remaining data will be preserved. When calling again 
  84:stm32f4xx_dma.c ****           this function to re-enable the Stream, the transfer will be resumed from 
  85:stm32f4xx_dma.c ****           the point where it was paused.          
  86:stm32f4xx_dma.c ****                    
  87:stm32f4xx_dma.c ****       -@- Memory-to-Memory transfer is possible by setting the address of the memory into
  88:stm32f4xx_dma.c ****            the Peripheral registers. In this mode, Circular mode and Double Buffer mode
  89:stm32f4xx_dma.c ****            are not allowed.
  90:stm32f4xx_dma.c ****     
  91:stm32f4xx_dma.c ****       -@- The FIFO is used mainly to reduce bus usage and to allow data 
  92:stm32f4xx_dma.c ****            packing/unpacking: it is possible to set different Data Sizes for 
  93:stm32f4xx_dma.c ****            the Peripheral and the Memory (ie. you can set Half-Word data size 
  94:stm32f4xx_dma.c ****            for the peripheral to access its data register and set Word data size
  95:stm32f4xx_dma.c ****            for the Memory to gain in access time. Each two Half-words will be 
ARM GAS  /tmp/ccXZiPD3.s 			page 4


  96:stm32f4xx_dma.c ****            packed and written in a single access to a Word in the Memory).
  97:stm32f4xx_dma.c ****       
  98:stm32f4xx_dma.c ****       -@- When FIFO is disabled, it is not allowed to configure different 
  99:stm32f4xx_dma.c ****            Data Sizes for Source and Destination. In this case the Peripheral 
 100:stm32f4xx_dma.c ****            Data Size will be applied to both Source and Destination.               
 101:stm32f4xx_dma.c ****   
 102:stm32f4xx_dma.c ****   @endverbatim                                 
 103:stm32f4xx_dma.c ****   ******************************************************************************
 104:stm32f4xx_dma.c ****   * @attention
 105:stm32f4xx_dma.c ****   *
 106:stm32f4xx_dma.c ****   * <h2><center>&copy; COPYRIGHT 2013 STMicroelectronics</center></h2>
 107:stm32f4xx_dma.c ****   *
 108:stm32f4xx_dma.c ****   * Licensed under MCD-ST Liberty SW License Agreement V2, (the "License");
 109:stm32f4xx_dma.c ****   * You may not use this file except in compliance with the License.
 110:stm32f4xx_dma.c ****   * You may obtain a copy of the License at:
 111:stm32f4xx_dma.c ****   *
 112:stm32f4xx_dma.c ****   *        http://www.st.com/software_license_agreement_liberty_v2
 113:stm32f4xx_dma.c ****   *
 114:stm32f4xx_dma.c ****   * Unless required by applicable law or agreed to in writing, software 
 115:stm32f4xx_dma.c ****   * distributed under the License is distributed on an "AS IS" BASIS, 
 116:stm32f4xx_dma.c ****   * WITHOUT WARRANTIES OR CONDITIONS OF ANY KIND, either express or implied.
 117:stm32f4xx_dma.c ****   * See the License for the specific language governing permissions and
 118:stm32f4xx_dma.c ****   * limitations under the License.
 119:stm32f4xx_dma.c ****   *
 120:stm32f4xx_dma.c ****   ******************************************************************************  
 121:stm32f4xx_dma.c ****   */ 
 122:stm32f4xx_dma.c **** 
 123:stm32f4xx_dma.c **** /* Includes ------------------------------------------------------------------*/
 124:stm32f4xx_dma.c **** #include "stm32f4xx_dma.h"
 125:stm32f4xx_dma.c **** #include "stm32f4xx_rcc.h"
 126:stm32f4xx_dma.c **** 
 127:stm32f4xx_dma.c **** /** @addtogroup STM32F4xx_StdPeriph_Driver
 128:stm32f4xx_dma.c ****   * @{
 129:stm32f4xx_dma.c ****   */
 130:stm32f4xx_dma.c **** 
 131:stm32f4xx_dma.c **** /** @defgroup DMA 
 132:stm32f4xx_dma.c ****   * @brief DMA driver modules
 133:stm32f4xx_dma.c ****   * @{
 134:stm32f4xx_dma.c ****   */ 
 135:stm32f4xx_dma.c **** 
 136:stm32f4xx_dma.c **** /* Private typedef -----------------------------------------------------------*/
 137:stm32f4xx_dma.c **** /* Private define ------------------------------------------------------------*/
 138:stm32f4xx_dma.c **** 
 139:stm32f4xx_dma.c **** /* Masks Definition */
 140:stm32f4xx_dma.c **** #define TRANSFER_IT_ENABLE_MASK (uint32_t)(DMA_SxCR_TCIE | DMA_SxCR_HTIE | \
 141:stm32f4xx_dma.c ****                                            DMA_SxCR_TEIE | DMA_SxCR_DMEIE)
 142:stm32f4xx_dma.c **** 
 143:stm32f4xx_dma.c **** #define DMA_Stream0_IT_MASK     (uint32_t)(DMA_LISR_FEIF0 | DMA_LISR_DMEIF0 | \
 144:stm32f4xx_dma.c ****                                            DMA_LISR_TEIF0 | DMA_LISR_HTIF0 | \
 145:stm32f4xx_dma.c ****                                            DMA_LISR_TCIF0)
 146:stm32f4xx_dma.c **** 
 147:stm32f4xx_dma.c **** #define DMA_Stream1_IT_MASK     (uint32_t)(DMA_Stream0_IT_MASK << 6)
 148:stm32f4xx_dma.c **** #define DMA_Stream2_IT_MASK     (uint32_t)(DMA_Stream0_IT_MASK << 16)
 149:stm32f4xx_dma.c **** #define DMA_Stream3_IT_MASK     (uint32_t)(DMA_Stream0_IT_MASK << 22)
 150:stm32f4xx_dma.c **** #define DMA_Stream4_IT_MASK     (uint32_t)(DMA_Stream0_IT_MASK | (uint32_t)0x20000000)
 151:stm32f4xx_dma.c **** #define DMA_Stream5_IT_MASK     (uint32_t)(DMA_Stream1_IT_MASK | (uint32_t)0x20000000)
 152:stm32f4xx_dma.c **** #define DMA_Stream6_IT_MASK     (uint32_t)(DMA_Stream2_IT_MASK | (uint32_t)0x20000000)
ARM GAS  /tmp/ccXZiPD3.s 			page 5


 153:stm32f4xx_dma.c **** #define DMA_Stream7_IT_MASK     (uint32_t)(DMA_Stream3_IT_MASK | (uint32_t)0x20000000)
 154:stm32f4xx_dma.c **** #define TRANSFER_IT_MASK        (uint32_t)0x0F3C0F3C
 155:stm32f4xx_dma.c **** #define HIGH_ISR_MASK           (uint32_t)0x20000000
 156:stm32f4xx_dma.c **** #define RESERVED_MASK           (uint32_t)0x0F7D0F7D  
 157:stm32f4xx_dma.c **** 
 158:stm32f4xx_dma.c **** /* Private macro -------------------------------------------------------------*/
 159:stm32f4xx_dma.c **** /* Private variables ---------------------------------------------------------*/
 160:stm32f4xx_dma.c **** /* Private function prototypes -----------------------------------------------*/
 161:stm32f4xx_dma.c **** /* Private functions ---------------------------------------------------------*/
 162:stm32f4xx_dma.c **** 
 163:stm32f4xx_dma.c **** 
 164:stm32f4xx_dma.c **** /** @defgroup DMA_Private_Functions
 165:stm32f4xx_dma.c ****   * @{
 166:stm32f4xx_dma.c ****   */
 167:stm32f4xx_dma.c **** 
 168:stm32f4xx_dma.c **** /** @defgroup DMA_Group1 Initialization and Configuration functions
 169:stm32f4xx_dma.c ****  *  @brief   Initialization and Configuration functions
 170:stm32f4xx_dma.c ****  *
 171:stm32f4xx_dma.c **** @verbatim   
 172:stm32f4xx_dma.c ****  ===============================================================================
 173:stm32f4xx_dma.c ****                 ##### Initialization and Configuration functions #####
 174:stm32f4xx_dma.c ****  ===============================================================================  
 175:stm32f4xx_dma.c ****     [..]
 176:stm32f4xx_dma.c ****     This subsection provides functions allowing to initialize the DMA Stream source
 177:stm32f4xx_dma.c ****     and destination addresses, incrementation and data sizes, transfer direction, 
 178:stm32f4xx_dma.c ****     buffer size, circular/normal mode selection, memory-to-memory mode selection 
 179:stm32f4xx_dma.c ****     and Stream priority value.
 180:stm32f4xx_dma.c ****     [..]
 181:stm32f4xx_dma.c ****     The DMA_Init() function follows the DMA configuration procedures as described in
 182:stm32f4xx_dma.c ****     reference manual (RM0090) except the first point: waiting on EN bit to be reset.
 183:stm32f4xx_dma.c ****     This condition should be checked by user application using the function DMA_GetCmdStatus()
 184:stm32f4xx_dma.c ****     before calling the DMA_Init() function.
 185:stm32f4xx_dma.c **** 
 186:stm32f4xx_dma.c **** @endverbatim
 187:stm32f4xx_dma.c ****   * @{
 188:stm32f4xx_dma.c ****   */
 189:stm32f4xx_dma.c **** 
 190:stm32f4xx_dma.c **** /**
 191:stm32f4xx_dma.c ****   * @brief  Deinitialize the DMAy Streamx registers to their default reset values.
 192:stm32f4xx_dma.c ****   * @param  DMAy_Streamx: where y can be 1 or 2 to select the DMA and x can be 0
 193:stm32f4xx_dma.c ****   *         to 7 to select the DMA Stream.
 194:stm32f4xx_dma.c ****   * @retval None
 195:stm32f4xx_dma.c ****   */
 196:stm32f4xx_dma.c **** void DMA_DeInit(DMA_Stream_TypeDef* DMAy_Streamx)
 197:stm32f4xx_dma.c **** {
  77              		.loc 1 197 0
  78              		.cfi_startproc
  79              		@ args = 0, pretend = 0, frame = 0
  80              		@ frame_needed = 0, uses_anonymous_args = 0
  81              		@ link register save eliminated.
  82              	.LVL0:
 198:stm32f4xx_dma.c ****   /* Check the parameters */
 199:stm32f4xx_dma.c ****   assert_param(IS_DMA_ALL_PERIPH(DMAy_Streamx));
 200:stm32f4xx_dma.c **** 
 201:stm32f4xx_dma.c ****   /* Disable the selected DMAy Streamx */
 202:stm32f4xx_dma.c ****   DMAy_Streamx->CR &= ~((uint32_t)DMA_SxCR_EN);
  83              		.loc 1 202 0
ARM GAS  /tmp/ccXZiPD3.s 			page 6


  84 0000 0368     		ldr	r3, [r0, #0]	@ D.6150, DMAy_Streamx_1(D)->CR
  85 0002 23F00101 		bic	r1, r3, #1	@ D.6151, D.6150,
  86 0006 0160     		str	r1, [r0, #0]	@ D.6151, DMAy_Streamx_1(D)->CR
 203:stm32f4xx_dma.c **** 
 204:stm32f4xx_dma.c ****   /* Reset DMAy Streamx control register */
 205:stm32f4xx_dma.c ****   DMAy_Streamx->CR  = 0;
 206:stm32f4xx_dma.c ****   
 207:stm32f4xx_dma.c ****   /* Reset DMAy Streamx Number of Data to Transfer register */
 208:stm32f4xx_dma.c ****   DMAy_Streamx->NDTR = 0;
 209:stm32f4xx_dma.c ****   
 210:stm32f4xx_dma.c ****   /* Reset DMAy Streamx peripheral address register */
 211:stm32f4xx_dma.c ****   DMAy_Streamx->PAR  = 0;
 212:stm32f4xx_dma.c ****   
 213:stm32f4xx_dma.c ****   /* Reset DMAy Streamx memory 0 address register */
 214:stm32f4xx_dma.c ****   DMAy_Streamx->M0AR = 0;
 215:stm32f4xx_dma.c **** 
 216:stm32f4xx_dma.c ****   /* Reset DMAy Streamx memory 1 address register */
 217:stm32f4xx_dma.c ****   DMAy_Streamx->M1AR = 0;
 218:stm32f4xx_dma.c **** 
 219:stm32f4xx_dma.c ****   /* Reset DMAy Streamx FIFO control register */
 220:stm32f4xx_dma.c ****   DMAy_Streamx->FCR = (uint32_t)0x00000021; 
 221:stm32f4xx_dma.c **** 
 222:stm32f4xx_dma.c ****   /* Reset interrupt pending bits for the selected stream */
 223:stm32f4xx_dma.c ****   if (DMAy_Streamx == DMA1_Stream0)
  87              		.loc 1 223 0
  88 0008 2D49     		ldr	r1, .L27	@ tmp143,
 205:stm32f4xx_dma.c ****   DMAy_Streamx->CR  = 0;
  89              		.loc 1 205 0
  90 000a 0022     		movs	r2, #0	@ tmp137,
 220:stm32f4xx_dma.c ****   DMAy_Streamx->FCR = (uint32_t)0x00000021; 
  91              		.loc 1 220 0
  92 000c 2123     		movs	r3, #33	@ tmp142,
  93              		.loc 1 223 0
  94 000e 8842     		cmp	r0, r1	@ DMAy_Streamx, tmp143
 205:stm32f4xx_dma.c ****   DMAy_Streamx->CR  = 0;
  95              		.loc 1 205 0
  96 0010 0260     		str	r2, [r0, #0]	@ tmp137, DMAy_Streamx_1(D)->CR
 208:stm32f4xx_dma.c ****   DMAy_Streamx->NDTR = 0;
  97              		.loc 1 208 0
  98 0012 4260     		str	r2, [r0, #4]	@ tmp137, DMAy_Streamx_1(D)->NDTR
 211:stm32f4xx_dma.c ****   DMAy_Streamx->PAR  = 0;
  99              		.loc 1 211 0
 100 0014 8260     		str	r2, [r0, #8]	@ tmp137, DMAy_Streamx_1(D)->PAR
 214:stm32f4xx_dma.c ****   DMAy_Streamx->M0AR = 0;
 101              		.loc 1 214 0
 102 0016 C260     		str	r2, [r0, #12]	@ tmp137, DMAy_Streamx_1(D)->M0AR
 217:stm32f4xx_dma.c ****   DMAy_Streamx->M1AR = 0;
 103              		.loc 1 217 0
 104 0018 0261     		str	r2, [r0, #16]	@ tmp137, DMAy_Streamx_1(D)->M1AR
 220:stm32f4xx_dma.c ****   DMAy_Streamx->FCR = (uint32_t)0x00000021; 
 105              		.loc 1 220 0
 106 001a 4361     		str	r3, [r0, #20]	@ tmp142, DMAy_Streamx_1(D)->FCR
 107              		.loc 1 223 0
 108 001c 17D0     		beq	.L18	@,
 109              	.L2:
 224:stm32f4xx_dma.c ****   {
 225:stm32f4xx_dma.c ****     /* Reset interrupt pending bits for DMA1 Stream0 */
ARM GAS  /tmp/ccXZiPD3.s 			page 7


 226:stm32f4xx_dma.c ****     DMA1->LIFCR = DMA_Stream0_IT_MASK;
 227:stm32f4xx_dma.c ****   }
 228:stm32f4xx_dma.c ****   else if (DMAy_Streamx == DMA1_Stream1)
 110              		.loc 1 228 0
 111 001e 294B     		ldr	r3, .L27+4	@ tmp146,
 112 0020 9842     		cmp	r0, r3	@ DMAy_Streamx, tmp146
 113 0022 1BD0     		beq	.L19	@,
 114              	.L4:
 229:stm32f4xx_dma.c ****   {
 230:stm32f4xx_dma.c ****     /* Reset interrupt pending bits for DMA1 Stream1 */
 231:stm32f4xx_dma.c ****     DMA1->LIFCR = DMA_Stream1_IT_MASK;
 232:stm32f4xx_dma.c ****   }
 233:stm32f4xx_dma.c ****   else if (DMAy_Streamx == DMA1_Stream2)
 115              		.loc 1 233 0
 116 0024 2849     		ldr	r1, .L27+8	@ tmp149,
 117 0026 8842     		cmp	r0, r1	@ DMAy_Streamx, tmp149
 118 0028 20D0     		beq	.L20	@,
 119              	.L5:
 234:stm32f4xx_dma.c ****   {
 235:stm32f4xx_dma.c ****     /* Reset interrupt pending bits for DMA1 Stream2 */
 236:stm32f4xx_dma.c ****     DMA1->LIFCR = DMA_Stream2_IT_MASK;
 237:stm32f4xx_dma.c ****   }
 238:stm32f4xx_dma.c ****   else if (DMAy_Streamx == DMA1_Stream3)
 120              		.loc 1 238 0
 121 002a 284B     		ldr	r3, .L27+12	@ tmp152,
 122 002c 9842     		cmp	r0, r3	@ DMAy_Streamx, tmp152
 123 002e 25D0     		beq	.L21	@,
 124              	.L6:
 239:stm32f4xx_dma.c ****   {
 240:stm32f4xx_dma.c ****     /* Reset interrupt pending bits for DMA1 Stream3 */
 241:stm32f4xx_dma.c ****     DMA1->LIFCR = DMA_Stream3_IT_MASK;
 242:stm32f4xx_dma.c ****   }
 243:stm32f4xx_dma.c ****   else if (DMAy_Streamx == DMA1_Stream4)
 125              		.loc 1 243 0
 126 0030 2749     		ldr	r1, .L27+16	@ tmp155,
 127 0032 8842     		cmp	r0, r1	@ DMAy_Streamx, tmp155
 128 0034 2AD0     		beq	.L22	@,
 129              	.L7:
 244:stm32f4xx_dma.c ****   {
 245:stm32f4xx_dma.c ****     /* Reset interrupt pending bits for DMA1 Stream4 */
 246:stm32f4xx_dma.c ****     DMA1->HIFCR = DMA_Stream4_IT_MASK;
 247:stm32f4xx_dma.c ****   }
 248:stm32f4xx_dma.c ****   else if (DMAy_Streamx == DMA1_Stream5)
 130              		.loc 1 248 0
 131 0036 274B     		ldr	r3, .L27+20	@ tmp158,
 132 0038 9842     		cmp	r0, r3	@ DMAy_Streamx, tmp158
 133 003a 2ED0     		beq	.L23	@,
 134              	.L8:
 249:stm32f4xx_dma.c ****   {
 250:stm32f4xx_dma.c ****     /* Reset interrupt pending bits for DMA1 Stream5 */
 251:stm32f4xx_dma.c ****     DMA1->HIFCR = DMA_Stream5_IT_MASK;
 252:stm32f4xx_dma.c ****   }
 253:stm32f4xx_dma.c ****   else if (DMAy_Streamx == DMA1_Stream6)
 135              		.loc 1 253 0
 136 003c 2649     		ldr	r1, .L27+24	@ tmp161,
 137 003e 8842     		cmp	r0, r1	@ DMAy_Streamx, tmp161
 138 0040 32D0     		beq	.L24	@,
ARM GAS  /tmp/ccXZiPD3.s 			page 8


 139              	.L9:
 254:stm32f4xx_dma.c ****   {
 255:stm32f4xx_dma.c ****     /* Reset interrupt pending bits for DMA1 Stream6 */
 256:stm32f4xx_dma.c ****     DMA1->HIFCR = (uint32_t)DMA_Stream6_IT_MASK;
 257:stm32f4xx_dma.c ****   }
 258:stm32f4xx_dma.c ****   else if (DMAy_Streamx == DMA1_Stream7)
 140              		.loc 1 258 0
 141 0042 264B     		ldr	r3, .L27+28	@ tmp164,
 142 0044 9842     		cmp	r0, r3	@ DMAy_Streamx, tmp164
 143 0046 36D0     		beq	.L25	@,
 144              	.L10:
 259:stm32f4xx_dma.c ****   {
 260:stm32f4xx_dma.c ****     /* Reset interrupt pending bits for DMA1 Stream7 */
 261:stm32f4xx_dma.c ****     DMA1->HIFCR = DMA_Stream7_IT_MASK;
 262:stm32f4xx_dma.c ****   }
 263:stm32f4xx_dma.c ****   else if (DMAy_Streamx == DMA2_Stream0)
 145              		.loc 1 263 0
 146 0048 2549     		ldr	r1, .L27+32	@ tmp167,
 147 004a 8842     		cmp	r0, r1	@ DMAy_Streamx, tmp167
 148 004c 03D1     		bne	.L11	@,
 149              	.L18:
 264:stm32f4xx_dma.c ****   {
 265:stm32f4xx_dma.c ****     /* Reset interrupt pending bits for DMA2 Stream0 */
 266:stm32f4xx_dma.c ****     DMA2->LIFCR = DMA_Stream0_IT_MASK;
 150              		.loc 1 266 0
 151 004e 3D23     		movs	r3, #61	@ tmp169,
 152 0050 41F8083C 		str	r3, [r1, #-8]	@ tmp169,
 153 0054 7047     		bx	lr	@
 154              	.L11:
 267:stm32f4xx_dma.c ****   }
 268:stm32f4xx_dma.c ****   else if (DMAy_Streamx == DMA2_Stream1)
 155              		.loc 1 268 0
 156 0056 234B     		ldr	r3, .L27+36	@ tmp170,
 157 0058 9842     		cmp	r0, r3	@ DMAy_Streamx, tmp170
 158 005a 04D1     		bne	.L12	@,
 159              	.L19:
 269:stm32f4xx_dma.c ****   {
 270:stm32f4xx_dma.c ****     /* Reset interrupt pending bits for DMA2 Stream1 */
 271:stm32f4xx_dma.c ****     DMA2->LIFCR = DMA_Stream1_IT_MASK;
 160              		.loc 1 271 0
 161 005c 4FF47461 		mov	r1, #3904	@ tmp172,
 162 0060 43F8201C 		str	r1, [r3, #-32]	@ tmp172,
 163 0064 7047     		bx	lr	@
 164              	.L12:
 272:stm32f4xx_dma.c ****   }
 273:stm32f4xx_dma.c ****   else if (DMAy_Streamx == DMA2_Stream2)
 165              		.loc 1 273 0
 166 0066 2049     		ldr	r1, .L27+40	@ tmp173,
 167 0068 8842     		cmp	r0, r1	@ DMAy_Streamx, tmp173
 168 006a 04D1     		bne	.L13	@,
 169              	.L20:
 274:stm32f4xx_dma.c ****   {
 275:stm32f4xx_dma.c ****     /* Reset interrupt pending bits for DMA2 Stream2 */
 276:stm32f4xx_dma.c ****     DMA2->LIFCR = DMA_Stream2_IT_MASK;
 170              		.loc 1 276 0
 171 006c 4FF47412 		mov	r2, #3997696	@ tmp175,
 172 0070 41F8382C 		str	r2, [r1, #-56]	@ tmp175,
ARM GAS  /tmp/ccXZiPD3.s 			page 9


 173 0074 7047     		bx	lr	@
 174              	.L13:
 277:stm32f4xx_dma.c ****   }
 278:stm32f4xx_dma.c ****   else if (DMAy_Streamx == DMA2_Stream3)
 175              		.loc 1 278 0
 176 0076 1D4B     		ldr	r3, .L27+44	@ tmp176,
 177 0078 9842     		cmp	r0, r3	@ DMAy_Streamx, tmp176
 178 007a 04D1     		bne	.L14	@,
 179              	.L21:
 279:stm32f4xx_dma.c ****   {
 280:stm32f4xx_dma.c ****     /* Reset interrupt pending bits for DMA2 Stream3 */
 281:stm32f4xx_dma.c ****     DMA2->LIFCR = DMA_Stream3_IT_MASK;
 180              		.loc 1 281 0
 181 007c 4FF07460 		mov	r0, #255852544	@ tmp178,
 182              	.LVL1:
 183 0080 43F8500C 		str	r0, [r3, #-80]	@ tmp178,
 184 0084 7047     		bx	lr	@
 185              	.LVL2:
 186              	.L14:
 282:stm32f4xx_dma.c ****   }
 283:stm32f4xx_dma.c ****   else if (DMAy_Streamx == DMA2_Stream4)
 187              		.loc 1 283 0
 188 0086 1A49     		ldr	r1, .L27+48	@ tmp179,
 189 0088 8842     		cmp	r0, r1	@ DMAy_Streamx, tmp179
 190 008a 03D1     		bne	.L15	@,
 191              	.L22:
 284:stm32f4xx_dma.c ****   {
 285:stm32f4xx_dma.c ****     /* Reset interrupt pending bits for DMA2 Stream4 */
 286:stm32f4xx_dma.c ****     DMA2->HIFCR = DMA_Stream4_IT_MASK;
 192              		.loc 1 286 0
 193 008c 194B     		ldr	r3, .L27+52	@ tmp181,
 194 008e 41F8643C 		str	r3, [r1, #-100]	@ tmp181,
 195 0092 7047     		bx	lr	@
 196              	.L15:
 287:stm32f4xx_dma.c ****   }
 288:stm32f4xx_dma.c ****   else if (DMAy_Streamx == DMA2_Stream5)
 197              		.loc 1 288 0
 198 0094 184B     		ldr	r3, .L27+56	@ tmp182,
 199 0096 9842     		cmp	r0, r3	@ DMAy_Streamx, tmp182
 200 0098 03D1     		bne	.L16	@,
 201              	.L23:
 289:stm32f4xx_dma.c ****   {
 290:stm32f4xx_dma.c ****     /* Reset interrupt pending bits for DMA2 Stream5 */
 291:stm32f4xx_dma.c ****     DMA2->HIFCR = DMA_Stream5_IT_MASK;
 202              		.loc 1 291 0
 203 009a 1849     		ldr	r1, .L27+60	@ tmp184,
 204 009c 43F87C1C 		str	r1, [r3, #-124]	@ tmp184,
 205 00a0 7047     		bx	lr	@
 206              	.L16:
 292:stm32f4xx_dma.c ****   }
 293:stm32f4xx_dma.c ****   else if (DMAy_Streamx == DMA2_Stream6)
 207              		.loc 1 293 0
 208 00a2 1749     		ldr	r1, .L27+64	@ tmp185,
 209 00a4 8842     		cmp	r0, r1	@ DMAy_Streamx, tmp185
 210 00a6 03D1     		bne	.L17	@,
 211              	.L24:
 294:stm32f4xx_dma.c ****   {
ARM GAS  /tmp/ccXZiPD3.s 			page 10


 295:stm32f4xx_dma.c ****     /* Reset interrupt pending bits for DMA2 Stream6 */
 296:stm32f4xx_dma.c ****     DMA2->HIFCR = DMA_Stream6_IT_MASK;
 212              		.loc 1 296 0
 213 00a8 164A     		ldr	r2, .L27+68	@ tmp187,
 214 00aa 41F8942C 		str	r2, [r1, #-148]	@ tmp187,
 215 00ae 7047     		bx	lr	@
 216              	.L17:
 297:stm32f4xx_dma.c ****   }
 298:stm32f4xx_dma.c ****   else 
 299:stm32f4xx_dma.c ****   {
 300:stm32f4xx_dma.c ****     if (DMAy_Streamx == DMA2_Stream7)
 217              		.loc 1 300 0
 218 00b0 154B     		ldr	r3, .L27+72	@ tmp188,
 219 00b2 9842     		cmp	r0, r3	@ DMAy_Streamx, tmp188
 220 00b4 03D1     		bne	.L1	@,
 221              	.L25:
 301:stm32f4xx_dma.c ****     {
 302:stm32f4xx_dma.c ****       /* Reset interrupt pending bits for DMA2 Stream7 */
 303:stm32f4xx_dma.c ****       DMA2->HIFCR = DMA_Stream7_IT_MASK;
 222              		.loc 1 303 0
 223 00b6 4FF03D50 		mov	r0, #792723456	@ tmp190,
 224              	.LVL3:
 225 00ba 43F8AC0C 		str	r0, [r3, #-172]	@ tmp190,
 226              	.L1:
 227 00be 7047     		bx	lr	@
 228              	.L28:
 229              		.align	2
 230              	.L27:
 231 00c0 10600240 		.word	1073897488
 232 00c4 28600240 		.word	1073897512
 233 00c8 40600240 		.word	1073897536
 234 00cc 58600240 		.word	1073897560
 235 00d0 70600240 		.word	1073897584
 236 00d4 88600240 		.word	1073897608
 237 00d8 A0600240 		.word	1073897632
 238 00dc B8600240 		.word	1073897656
 239 00e0 10640240 		.word	1073898512
 240 00e4 28640240 		.word	1073898536
 241 00e8 40640240 		.word	1073898560
 242 00ec 58640240 		.word	1073898584
 243 00f0 70640240 		.word	1073898608
 244 00f4 3D000020 		.word	536870973
 245 00f8 88640240 		.word	1073898632
 246 00fc 400F0020 		.word	536874816
 247 0100 A0640240 		.word	1073898656
 248 0104 00003D20 		.word	540868608
 249 0108 B8640240 		.word	1073898680
 250              		.cfi_endproc
 251              	.LFE110:
 252              		.size	DMA_DeInit, .-DMA_DeInit
 253              		.section	.text.DMA_Init,"ax",%progbits
 254              		.align	1
 255              		.global	DMA_Init
 256              		.thumb
 257              		.thumb_func
 258              		.type	DMA_Init, %function
 259              	DMA_Init:
ARM GAS  /tmp/ccXZiPD3.s 			page 11


 260              	.LFB111:
 304:stm32f4xx_dma.c ****     }
 305:stm32f4xx_dma.c ****   }
 306:stm32f4xx_dma.c **** }
 307:stm32f4xx_dma.c **** 
 308:stm32f4xx_dma.c **** /**
 309:stm32f4xx_dma.c ****   * @brief  Initializes the DMAy Streamx according to the specified parameters in 
 310:stm32f4xx_dma.c ****   *         the DMA_InitStruct structure.
 311:stm32f4xx_dma.c ****   * @note   Before calling this function, it is recommended to check that the Stream 
 312:stm32f4xx_dma.c ****   *         is actually disabled using the function DMA_GetCmdStatus().  
 313:stm32f4xx_dma.c ****   * @param  DMAy_Streamx: where y can be 1 or 2 to select the DMA and x can be 0
 314:stm32f4xx_dma.c ****   *         to 7 to select the DMA Stream.
 315:stm32f4xx_dma.c ****   * @param  DMA_InitStruct: pointer to a DMA_InitTypeDef structure that contains
 316:stm32f4xx_dma.c ****   *         the configuration information for the specified DMA Stream.  
 317:stm32f4xx_dma.c ****   * @retval None
 318:stm32f4xx_dma.c ****   */
 319:stm32f4xx_dma.c **** void DMA_Init(DMA_Stream_TypeDef* DMAy_Streamx, DMA_InitTypeDef* DMA_InitStruct)
 320:stm32f4xx_dma.c **** {
 261              		.loc 1 320 0
 262              		.cfi_startproc
 263              		@ args = 0, pretend = 0, frame = 0
 264              		@ frame_needed = 0, uses_anonymous_args = 0
 265              	.LVL4:
 321:stm32f4xx_dma.c ****   uint32_t tmpreg = 0;
 322:stm32f4xx_dma.c **** 
 323:stm32f4xx_dma.c ****   /* Check the parameters */
 324:stm32f4xx_dma.c ****   assert_param(IS_DMA_ALL_PERIPH(DMAy_Streamx));
 325:stm32f4xx_dma.c ****   assert_param(IS_DMA_CHANNEL(DMA_InitStruct->DMA_Channel));
 326:stm32f4xx_dma.c ****   assert_param(IS_DMA_DIRECTION(DMA_InitStruct->DMA_DIR));
 327:stm32f4xx_dma.c ****   assert_param(IS_DMA_BUFFER_SIZE(DMA_InitStruct->DMA_BufferSize));
 328:stm32f4xx_dma.c ****   assert_param(IS_DMA_PERIPHERAL_INC_STATE(DMA_InitStruct->DMA_PeripheralInc));
 329:stm32f4xx_dma.c ****   assert_param(IS_DMA_MEMORY_INC_STATE(DMA_InitStruct->DMA_MemoryInc));
 330:stm32f4xx_dma.c ****   assert_param(IS_DMA_PERIPHERAL_DATA_SIZE(DMA_InitStruct->DMA_PeripheralDataSize));
 331:stm32f4xx_dma.c ****   assert_param(IS_DMA_MEMORY_DATA_SIZE(DMA_InitStruct->DMA_MemoryDataSize));
 332:stm32f4xx_dma.c ****   assert_param(IS_DMA_MODE(DMA_InitStruct->DMA_Mode));
 333:stm32f4xx_dma.c ****   assert_param(IS_DMA_PRIORITY(DMA_InitStruct->DMA_Priority));
 334:stm32f4xx_dma.c ****   assert_param(IS_DMA_FIFO_MODE_STATE(DMA_InitStruct->DMA_FIFOMode));
 335:stm32f4xx_dma.c ****   assert_param(IS_DMA_FIFO_THRESHOLD(DMA_InitStruct->DMA_FIFOThreshold));
 336:stm32f4xx_dma.c ****   assert_param(IS_DMA_MEMORY_BURST(DMA_InitStruct->DMA_MemoryBurst));
 337:stm32f4xx_dma.c ****   assert_param(IS_DMA_PERIPHERAL_BURST(DMA_InitStruct->DMA_PeripheralBurst));
 338:stm32f4xx_dma.c **** 
 339:stm32f4xx_dma.c ****   /*------------------------- DMAy Streamx CR Configuration ------------------*/
 340:stm32f4xx_dma.c ****   /* Get the DMAy_Streamx CR value */
 341:stm32f4xx_dma.c ****   tmpreg = DMAy_Streamx->CR;
 266              		.loc 1 341 0
 267 0000 0268     		ldr	r2, [r0, #0]	@ tmpreg, DMAy_Streamx_2(D)->CR
 268              	.LVL5:
 342:stm32f4xx_dma.c **** 
 343:stm32f4xx_dma.c ****   /* Clear CHSEL, MBURST, PBURST, PL, MSIZE, PSIZE, MINC, PINC, CIRC and DIR bits */
 344:stm32f4xx_dma.c ****   tmpreg &= ((uint32_t)~(DMA_SxCR_CHSEL | DMA_SxCR_MBURST | DMA_SxCR_PBURST | \
 269              		.loc 1 344 0
 270 0002 134B     		ldr	r3, .L30	@ tmpreg,
 320:stm32f4xx_dma.c **** {
 271              		.loc 1 320 0
 272 0004 10B5     		push	{r4, lr}	@
 273              	.LCFI0:
 274              		.cfi_def_cfa_offset 8
ARM GAS  /tmp/ccXZiPD3.s 			page 12


 275              		.cfi_offset 4, -8
 276              		.cfi_offset 14, -4
 277              		.loc 1 344 0
 278 0006 1340     		ands	r3, r3, r2	@, tmpreg, tmpreg, tmpreg
 279              	.LVL6:
 345:stm32f4xx_dma.c ****                          DMA_SxCR_PL | DMA_SxCR_MSIZE | DMA_SxCR_PSIZE | \
 346:stm32f4xx_dma.c ****                          DMA_SxCR_MINC | DMA_SxCR_PINC | DMA_SxCR_CIRC | \
 347:stm32f4xx_dma.c ****                          DMA_SxCR_DIR));
 348:stm32f4xx_dma.c **** 
 349:stm32f4xx_dma.c ****   /* Configure DMAy Streamx: */
 350:stm32f4xx_dma.c ****   /* Set CHSEL bits according to DMA_CHSEL value */
 351:stm32f4xx_dma.c ****   /* Set DIR bits according to DMA_DIR value */
 352:stm32f4xx_dma.c ****   /* Set PINC bit according to DMA_PeripheralInc value */
 353:stm32f4xx_dma.c ****   /* Set MINC bit according to DMA_MemoryInc value */
 354:stm32f4xx_dma.c ****   /* Set PSIZE bits according to DMA_PeripheralDataSize value */
 355:stm32f4xx_dma.c ****   /* Set MSIZE bits according to DMA_MemoryDataSize value */
 356:stm32f4xx_dma.c ****   /* Set CIRC bit according to DMA_Mode value */
 357:stm32f4xx_dma.c ****   /* Set PL bits according to DMA_Priority value */
 358:stm32f4xx_dma.c ****   /* Set MBURST bits according to DMA_MemoryBurst value */
 359:stm32f4xx_dma.c ****   /* Set PBURST bits according to DMA_PeripheralBurst value */
 360:stm32f4xx_dma.c ****   tmpreg |= DMA_InitStruct->DMA_Channel | DMA_InitStruct->DMA_DIR |
 280              		.loc 1 360 0
 281 0008 CC68     		ldr	r4, [r1, #12]	@ DMA_InitStruct_5(D)->DMA_DIR, DMA_InitStruct_5(D)->DMA_DIR
 282 000a 0A68     		ldr	r2, [r1, #0]	@ DMA_InitStruct_5(D)->DMA_Channel, DMA_InitStruct_5(D)->DMA_Channel
 283 000c 1443     		orrs	r4, r4, r2	@, tmp168, DMA_InitStruct_5(D)->DMA_DIR, DMA_InitStruct_5(D)->DMA_Channel
 284 000e 4A69     		ldr	r2, [r1, #20]	@ DMA_InitStruct_5(D)->DMA_PeripheralInc, DMA_InitStruct_5(D)->DMA_PeripheralInc
 285 0010 1443     		orrs	r4, r4, r2	@, tmp171, tmp168, DMA_InitStruct_5(D)->DMA_PeripheralInc
 361:stm32f4xx_dma.c ****             DMA_InitStruct->DMA_PeripheralInc | DMA_InitStruct->DMA_MemoryInc |
 286              		.loc 1 361 0
 287 0012 8A69     		ldr	r2, [r1, #24]	@ DMA_InitStruct_5(D)->DMA_MemoryInc, DMA_InitStruct_5(D)->DMA_MemoryInc
 288 0014 1443     		orrs	r4, r4, r2	@, tmp173, tmp171, DMA_InitStruct_5(D)->DMA_MemoryInc
 289 0016 CA69     		ldr	r2, [r1, #28]	@ DMA_InitStruct_5(D)->DMA_PeripheralDataSize, DMA_InitStruct_5(D)->DMA_Peripher
 290 0018 1443     		orrs	r4, r4, r2	@, tmp175, tmp173, DMA_InitStruct_5(D)->DMA_PeripheralDataSize
 362:stm32f4xx_dma.c ****             DMA_InitStruct->DMA_PeripheralDataSize | DMA_InitStruct->DMA_MemoryDataSize |
 291              		.loc 1 362 0
 292 001a 0A6A     		ldr	r2, [r1, #32]	@ DMA_InitStruct_5(D)->DMA_MemoryDataSize, DMA_InitStruct_5(D)->DMA_MemoryDataSi
 293 001c 1443     		orrs	r4, r4, r2	@, tmp177, tmp175, DMA_InitStruct_5(D)->DMA_MemoryDataSize
 294 001e 4A6A     		ldr	r2, [r1, #36]	@ DMA_InitStruct_5(D)->DMA_Mode, DMA_InitStruct_5(D)->DMA_Mode
 295 0020 1443     		orrs	r4, r4, r2	@, tmp179, tmp177, DMA_InitStruct_5(D)->DMA_Mode
 363:stm32f4xx_dma.c ****             DMA_InitStruct->DMA_Mode | DMA_InitStruct->DMA_Priority |
 296              		.loc 1 363 0
 297 0022 8A6A     		ldr	r2, [r1, #40]	@ DMA_InitStruct_5(D)->DMA_Priority, DMA_InitStruct_5(D)->DMA_Priority
 298 0024 1443     		orrs	r4, r4, r2	@, tmp181, tmp179, DMA_InitStruct_5(D)->DMA_Priority
 299 0026 4A6B     		ldr	r2, [r1, #52]	@ DMA_InitStruct_5(D)->DMA_MemoryBurst, DMA_InitStruct_5(D)->DMA_MemoryBurst
 300 0028 1443     		orrs	r4, r4, r2	@, tmp183, tmp181, DMA_InitStruct_5(D)->DMA_MemoryBurst
 364:stm32f4xx_dma.c ****             DMA_InitStruct->DMA_MemoryBurst | DMA_InitStruct->DMA_PeripheralBurst;
 301              		.loc 1 364 0
 302 002a 8A6B     		ldr	r2, [r1, #56]	@ DMA_InitStruct_5(D)->DMA_PeripheralBurst, DMA_InitStruct_5(D)->DMA_PeripheralB
 303 002c 1443     		orrs	r4, r4, r2	@, tmp185, tmp183, DMA_InitStruct_5(D)->DMA_PeripheralBurst
 360:stm32f4xx_dma.c ****   tmpreg |= DMA_InitStruct->DMA_Channel | DMA_InitStruct->DMA_DIR |
 304              		.loc 1 360 0
 305 002e 2343     		orrs	r3, r3, r4	@, tmpreg, tmpreg, tmp185
 306              	.LVL7:
 365:stm32f4xx_dma.c **** 
 366:stm32f4xx_dma.c ****   /* Write to DMAy Streamx CR register */
 367:stm32f4xx_dma.c ****   DMAy_Streamx->CR = tmpreg;
 307              		.loc 1 367 0
ARM GAS  /tmp/ccXZiPD3.s 			page 13


 308 0030 0360     		str	r3, [r0, #0]	@ tmpreg, DMAy_Streamx_2(D)->CR
 368:stm32f4xx_dma.c **** 
 369:stm32f4xx_dma.c ****   /*------------------------- DMAy Streamx FCR Configuration -----------------*/
 370:stm32f4xx_dma.c ****   /* Get the DMAy_Streamx FCR value */
 371:stm32f4xx_dma.c ****   tmpreg = DMAy_Streamx->FCR;
 309              		.loc 1 371 0
 310 0032 4269     		ldr	r2, [r0, #20]	@ tmpreg, DMAy_Streamx_2(D)->FCR
 311              	.LVL8:
 372:stm32f4xx_dma.c **** 
 373:stm32f4xx_dma.c ****   /* Clear DMDIS and FTH bits */
 374:stm32f4xx_dma.c ****   tmpreg &= (uint32_t)~(DMA_SxFCR_DMDIS | DMA_SxFCR_FTH);
 375:stm32f4xx_dma.c **** 
 376:stm32f4xx_dma.c ****   /* Configure DMAy Streamx FIFO: 
 377:stm32f4xx_dma.c ****     Set DMDIS bits according to DMA_FIFOMode value 
 378:stm32f4xx_dma.c ****     Set FTH bits according to DMA_FIFOThreshold value */
 379:stm32f4xx_dma.c ****   tmpreg |= DMA_InitStruct->DMA_FIFOMode | DMA_InitStruct->DMA_FIFOThreshold;
 312              		.loc 1 379 0
 313 0034 CB6A     		ldr	r3, [r1, #44]	@ DMA_InitStruct_5(D)->DMA_FIFOMode, DMA_InitStruct_5(D)->DMA_FIFOMode
 374:stm32f4xx_dma.c ****   tmpreg &= (uint32_t)~(DMA_SxFCR_DMDIS | DMA_SxFCR_FTH);
 314              		.loc 1 374 0
 315 0036 22F00704 		bic	r4, r2, #7	@ tmpreg, tmpreg,
 316              	.LVL9:
 317              		.loc 1 379 0
 318 003a 0A6B     		ldr	r2, [r1, #48]	@ DMA_InitStruct_5(D)->DMA_FIFOThreshold, DMA_InitStruct_5(D)->DMA_FIFOThreshold
 319 003c 1A43     		orrs	r2, r2, r3	@, tmp187, DMA_InitStruct_5(D)->DMA_FIFOThreshold, DMA_InitStruct_5(D)->DMA_FIFOMo
 320 003e 2243     		orrs	r2, r2, r4	@, tmpreg, tmp187, tmpreg
 321              	.LVL10:
 380:stm32f4xx_dma.c **** 
 381:stm32f4xx_dma.c ****   /* Write to DMAy Streamx CR */
 382:stm32f4xx_dma.c ****   DMAy_Streamx->FCR = tmpreg;
 322              		.loc 1 382 0
 323 0040 4261     		str	r2, [r0, #20]	@ tmpreg, DMAy_Streamx_2(D)->FCR
 383:stm32f4xx_dma.c **** 
 384:stm32f4xx_dma.c ****   /*------------------------- DMAy Streamx NDTR Configuration ----------------*/
 385:stm32f4xx_dma.c ****   /* Write to DMAy Streamx NDTR register */
 386:stm32f4xx_dma.c ****   DMAy_Streamx->NDTR = DMA_InitStruct->DMA_BufferSize;
 324              		.loc 1 386 0
 325 0042 0B69     		ldr	r3, [r1, #16]	@ D.6147, DMA_InitStruct_5(D)->DMA_BufferSize
 387:stm32f4xx_dma.c **** 
 388:stm32f4xx_dma.c ****   /*------------------------- DMAy Streamx PAR Configuration -----------------*/
 389:stm32f4xx_dma.c ****   /* Write to DMAy Streamx PAR */
 390:stm32f4xx_dma.c ****   DMAy_Streamx->PAR = DMA_InitStruct->DMA_PeripheralBaseAddr;
 326              		.loc 1 390 0
 327 0044 4A68     		ldr	r2, [r1, #4]	@ D.6148, DMA_InitStruct_5(D)->DMA_PeripheralBaseAddr
 328              	.LVL11:
 391:stm32f4xx_dma.c **** 
 392:stm32f4xx_dma.c ****   /*------------------------- DMAy Streamx M0AR Configuration ----------------*/
 393:stm32f4xx_dma.c ****   /* Write to DMAy Streamx M0AR */
 394:stm32f4xx_dma.c ****   DMAy_Streamx->M0AR = DMA_InitStruct->DMA_Memory0BaseAddr;
 329              		.loc 1 394 0
 330 0046 8968     		ldr	r1, [r1, #8]	@ D.6149, DMA_InitStruct_5(D)->DMA_Memory0BaseAddr
 331              	.LVL12:
 386:stm32f4xx_dma.c ****   DMAy_Streamx->NDTR = DMA_InitStruct->DMA_BufferSize;
 332              		.loc 1 386 0
 333 0048 4360     		str	r3, [r0, #4]	@ D.6147, DMAy_Streamx_2(D)->NDTR
 390:stm32f4xx_dma.c ****   DMAy_Streamx->PAR = DMA_InitStruct->DMA_PeripheralBaseAddr;
 334              		.loc 1 390 0
ARM GAS  /tmp/ccXZiPD3.s 			page 14


 335 004a 8260     		str	r2, [r0, #8]	@ D.6148, DMAy_Streamx_2(D)->PAR
 336              		.loc 1 394 0
 337 004c C160     		str	r1, [r0, #12]	@ D.6149, DMAy_Streamx_2(D)->M0AR
 338 004e 10BD     		pop	{r4, pc}	@
 339              	.L31:
 340              		.align	2
 341              	.L30:
 342 0050 3F801CF0 		.word	-266567617
 343              		.cfi_endproc
 344              	.LFE111:
 345              		.size	DMA_Init, .-DMA_Init
 346              		.section	.text.DMA_StructInit,"ax",%progbits
 347              		.align	1
 348              		.global	DMA_StructInit
 349              		.thumb
 350              		.thumb_func
 351              		.type	DMA_StructInit, %function
 352              	DMA_StructInit:
 353              	.LFB112:
 395:stm32f4xx_dma.c **** }
 396:stm32f4xx_dma.c **** 
 397:stm32f4xx_dma.c **** /**
 398:stm32f4xx_dma.c ****   * @brief  Fills each DMA_InitStruct member with its default value.
 399:stm32f4xx_dma.c ****   * @param  DMA_InitStruct : pointer to a DMA_InitTypeDef structure which will 
 400:stm32f4xx_dma.c ****   *         be initialized.
 401:stm32f4xx_dma.c ****   * @retval None
 402:stm32f4xx_dma.c ****   */
 403:stm32f4xx_dma.c **** void DMA_StructInit(DMA_InitTypeDef* DMA_InitStruct)
 404:stm32f4xx_dma.c **** {
 354              		.loc 1 404 0
 355              		.cfi_startproc
 356              		@ args = 0, pretend = 0, frame = 0
 357              		@ frame_needed = 0, uses_anonymous_args = 0
 358              		@ link register save eliminated.
 359              	.LVL13:
 405:stm32f4xx_dma.c ****   /*-------------- Reset DMA init structure parameters values ----------------*/
 406:stm32f4xx_dma.c ****   /* Initialize the DMA_Channel member */
 407:stm32f4xx_dma.c ****   DMA_InitStruct->DMA_Channel = 0;
 360              		.loc 1 407 0
 361 0000 0023     		movs	r3, #0	@ tmp135,
 362 0002 0360     		str	r3, [r0, #0]	@ tmp135, DMA_InitStruct_1(D)->DMA_Channel
 408:stm32f4xx_dma.c **** 
 409:stm32f4xx_dma.c ****   /* Initialize the DMA_PeripheralBaseAddr member */
 410:stm32f4xx_dma.c ****   DMA_InitStruct->DMA_PeripheralBaseAddr = 0;
 363              		.loc 1 410 0
 364 0004 4360     		str	r3, [r0, #4]	@ tmp135, DMA_InitStruct_1(D)->DMA_PeripheralBaseAddr
 411:stm32f4xx_dma.c **** 
 412:stm32f4xx_dma.c ****   /* Initialize the DMA_Memory0BaseAddr member */
 413:stm32f4xx_dma.c ****   DMA_InitStruct->DMA_Memory0BaseAddr = 0;
 365              		.loc 1 413 0
 366 0006 8360     		str	r3, [r0, #8]	@ tmp135, DMA_InitStruct_1(D)->DMA_Memory0BaseAddr
 414:stm32f4xx_dma.c **** 
 415:stm32f4xx_dma.c ****   /* Initialize the DMA_DIR member */
 416:stm32f4xx_dma.c ****   DMA_InitStruct->DMA_DIR = DMA_DIR_PeripheralToMemory;
 367              		.loc 1 416 0
 368 0008 C360     		str	r3, [r0, #12]	@ tmp135, DMA_InitStruct_1(D)->DMA_DIR
 417:stm32f4xx_dma.c **** 
ARM GAS  /tmp/ccXZiPD3.s 			page 15


 418:stm32f4xx_dma.c ****   /* Initialize the DMA_BufferSize member */
 419:stm32f4xx_dma.c ****   DMA_InitStruct->DMA_BufferSize = 0;
 369              		.loc 1 419 0
 370 000a 0361     		str	r3, [r0, #16]	@ tmp135, DMA_InitStruct_1(D)->DMA_BufferSize
 420:stm32f4xx_dma.c **** 
 421:stm32f4xx_dma.c ****   /* Initialize the DMA_PeripheralInc member */
 422:stm32f4xx_dma.c ****   DMA_InitStruct->DMA_PeripheralInc = DMA_PeripheralInc_Disable;
 371              		.loc 1 422 0
 372 000c 4361     		str	r3, [r0, #20]	@ tmp135, DMA_InitStruct_1(D)->DMA_PeripheralInc
 423:stm32f4xx_dma.c **** 
 424:stm32f4xx_dma.c ****   /* Initialize the DMA_MemoryInc member */
 425:stm32f4xx_dma.c ****   DMA_InitStruct->DMA_MemoryInc = DMA_MemoryInc_Disable;
 373              		.loc 1 425 0
 374 000e 8361     		str	r3, [r0, #24]	@ tmp135, DMA_InitStruct_1(D)->DMA_MemoryInc
 426:stm32f4xx_dma.c **** 
 427:stm32f4xx_dma.c ****   /* Initialize the DMA_PeripheralDataSize member */
 428:stm32f4xx_dma.c ****   DMA_InitStruct->DMA_PeripheralDataSize = DMA_PeripheralDataSize_Byte;
 375              		.loc 1 428 0
 376 0010 C361     		str	r3, [r0, #28]	@ tmp135, DMA_InitStruct_1(D)->DMA_PeripheralDataSize
 429:stm32f4xx_dma.c **** 
 430:stm32f4xx_dma.c ****   /* Initialize the DMA_MemoryDataSize member */
 431:stm32f4xx_dma.c ****   DMA_InitStruct->DMA_MemoryDataSize = DMA_MemoryDataSize_Byte;
 377              		.loc 1 431 0
 378 0012 0362     		str	r3, [r0, #32]	@ tmp135, DMA_InitStruct_1(D)->DMA_MemoryDataSize
 432:stm32f4xx_dma.c **** 
 433:stm32f4xx_dma.c ****   /* Initialize the DMA_Mode member */
 434:stm32f4xx_dma.c ****   DMA_InitStruct->DMA_Mode = DMA_Mode_Normal;
 379              		.loc 1 434 0
 380 0014 4362     		str	r3, [r0, #36]	@ tmp135, DMA_InitStruct_1(D)->DMA_Mode
 435:stm32f4xx_dma.c **** 
 436:stm32f4xx_dma.c ****   /* Initialize the DMA_Priority member */
 437:stm32f4xx_dma.c ****   DMA_InitStruct->DMA_Priority = DMA_Priority_Low;
 381              		.loc 1 437 0
 382 0016 8362     		str	r3, [r0, #40]	@ tmp135, DMA_InitStruct_1(D)->DMA_Priority
 438:stm32f4xx_dma.c **** 
 439:stm32f4xx_dma.c ****   /* Initialize the DMA_FIFOMode member */
 440:stm32f4xx_dma.c ****   DMA_InitStruct->DMA_FIFOMode = DMA_FIFOMode_Disable;
 383              		.loc 1 440 0
 384 0018 C362     		str	r3, [r0, #44]	@ tmp135, DMA_InitStruct_1(D)->DMA_FIFOMode
 441:stm32f4xx_dma.c **** 
 442:stm32f4xx_dma.c ****   /* Initialize the DMA_FIFOThreshold member */
 443:stm32f4xx_dma.c ****   DMA_InitStruct->DMA_FIFOThreshold = DMA_FIFOThreshold_1QuarterFull;
 385              		.loc 1 443 0
 386 001a 0363     		str	r3, [r0, #48]	@ tmp135, DMA_InitStruct_1(D)->DMA_FIFOThreshold
 444:stm32f4xx_dma.c **** 
 445:stm32f4xx_dma.c ****   /* Initialize the DMA_MemoryBurst member */
 446:stm32f4xx_dma.c ****   DMA_InitStruct->DMA_MemoryBurst = DMA_MemoryBurst_Single;
 387              		.loc 1 446 0
 388 001c 4363     		str	r3, [r0, #52]	@ tmp135, DMA_InitStruct_1(D)->DMA_MemoryBurst
 447:stm32f4xx_dma.c **** 
 448:stm32f4xx_dma.c ****   /* Initialize the DMA_PeripheralBurst member */
 449:stm32f4xx_dma.c ****   DMA_InitStruct->DMA_PeripheralBurst = DMA_PeripheralBurst_Single;
 389              		.loc 1 449 0
 390 001e 8363     		str	r3, [r0, #56]	@ tmp135, DMA_InitStruct_1(D)->DMA_PeripheralBurst
 391 0020 7047     		bx	lr	@
 392              		.cfi_endproc
 393              	.LFE112:
ARM GAS  /tmp/ccXZiPD3.s 			page 16


 394              		.size	DMA_StructInit, .-DMA_StructInit
 395              		.section	.text.DMA_Cmd,"ax",%progbits
 396              		.align	1
 397              		.global	DMA_Cmd
 398              		.thumb
 399              		.thumb_func
 400              		.type	DMA_Cmd, %function
 401              	DMA_Cmd:
 402              	.LFB113:
 450:stm32f4xx_dma.c **** }
 451:stm32f4xx_dma.c **** 
 452:stm32f4xx_dma.c **** /**
 453:stm32f4xx_dma.c ****   * @brief  Enables or disables the specified DMAy Streamx.
 454:stm32f4xx_dma.c ****   * @param  DMAy_Streamx: where y can be 1 or 2 to select the DMA and x can be 0
 455:stm32f4xx_dma.c ****   *         to 7 to select the DMA Stream.
 456:stm32f4xx_dma.c ****   * @param  NewState: new state of the DMAy Streamx. 
 457:stm32f4xx_dma.c ****   *          This parameter can be: ENABLE or DISABLE.
 458:stm32f4xx_dma.c ****   *
 459:stm32f4xx_dma.c ****   * @note  This function may be used to perform Pause-Resume operation. When a
 460:stm32f4xx_dma.c ****   *        transfer is ongoing, calling this function to disable the Stream will
 461:stm32f4xx_dma.c ****   *        cause the transfer to be paused. All configuration registers and the
 462:stm32f4xx_dma.c ****   *        number of remaining data will be preserved. When calling again this
 463:stm32f4xx_dma.c ****   *        function to re-enable the Stream, the transfer will be resumed from
 464:stm32f4xx_dma.c ****   *        the point where it was paused.          
 465:stm32f4xx_dma.c ****   *    
 466:stm32f4xx_dma.c ****   * @note  After configuring the DMA Stream (DMA_Init() function) and enabling the
 467:stm32f4xx_dma.c ****   *        stream, it is recommended to check (or wait until) the DMA Stream is
 468:stm32f4xx_dma.c ****   *        effectively enabled. A Stream may remain disabled if a configuration 
 469:stm32f4xx_dma.c ****   *        parameter is wrong.
 470:stm32f4xx_dma.c ****   *        After disabling a DMA Stream, it is also recommended to check (or wait
 471:stm32f4xx_dma.c ****   *        until) the DMA Stream is effectively disabled. If a Stream is disabled 
 472:stm32f4xx_dma.c ****   *        while a data transfer is ongoing, the current data will be transferred
 473:stm32f4xx_dma.c ****   *        and the Stream will be effectively disabled only after the transfer of
 474:stm32f4xx_dma.c ****   *        this single data is finished.            
 475:stm32f4xx_dma.c ****   *    
 476:stm32f4xx_dma.c ****   * @retval None
 477:stm32f4xx_dma.c ****   */
 478:stm32f4xx_dma.c **** void DMA_Cmd(DMA_Stream_TypeDef* DMAy_Streamx, FunctionalState NewState)
 479:stm32f4xx_dma.c **** {
 403              		.loc 1 479 0
 404              		.cfi_startproc
 405              		@ args = 0, pretend = 0, frame = 0
 406              		@ frame_needed = 0, uses_anonymous_args = 0
 407              		@ link register save eliminated.
 408              	.LVL14:
 480:stm32f4xx_dma.c ****   /* Check the parameters */
 481:stm32f4xx_dma.c ****   assert_param(IS_DMA_ALL_PERIPH(DMAy_Streamx));
 482:stm32f4xx_dma.c ****   assert_param(IS_FUNCTIONAL_STATE(NewState));
 483:stm32f4xx_dma.c **** 
 484:stm32f4xx_dma.c ****   if (NewState != DISABLE)
 485:stm32f4xx_dma.c ****   {
 486:stm32f4xx_dma.c ****     /* Enable the selected DMAy Streamx by setting EN bit */
 487:stm32f4xx_dma.c ****     DMAy_Streamx->CR |= (uint32_t)DMA_SxCR_EN;
 409              		.loc 1 487 0
 410 0000 0368     		ldr	r3, [r0, #0]	@ D.6120,* DMAy_Streamx
 484:stm32f4xx_dma.c ****   if (NewState != DISABLE)
 411              		.loc 1 484 0
ARM GAS  /tmp/ccXZiPD3.s 			page 17


 412 0002 11B1     		cbz	r1, .L34	@ NewState,
 413              		.loc 1 487 0
 414 0004 43F00101 		orr	r1, r3, #1	@ D.6121, D.6120,
 415              	.LVL15:
 416 0008 01E0     		b	.L36	@
 417              	.LVL16:
 418              	.L34:
 488:stm32f4xx_dma.c ****   }
 489:stm32f4xx_dma.c ****   else
 490:stm32f4xx_dma.c ****   {
 491:stm32f4xx_dma.c ****     /* Disable the selected DMAy Streamx by clearing EN bit */
 492:stm32f4xx_dma.c ****     DMAy_Streamx->CR &= ~(uint32_t)DMA_SxCR_EN;
 419              		.loc 1 492 0
 420 000a 23F00101 		bic	r1, r3, #1	@ D.6124, D.6123,
 421              	.LVL17:
 422              	.L36:
 423 000e 0160     		str	r1, [r0, #0]	@ D.6124,* DMAy_Streamx
 424 0010 7047     		bx	lr	@
 425              		.cfi_endproc
 426              	.LFE113:
 427              		.size	DMA_Cmd, .-DMA_Cmd
 428              		.section	.text.DMA_PeriphIncOffsetSizeConfig,"ax",%progbits
 429              		.align	1
 430              		.global	DMA_PeriphIncOffsetSizeConfig
 431              		.thumb
 432              		.thumb_func
 433              		.type	DMA_PeriphIncOffsetSizeConfig, %function
 434              	DMA_PeriphIncOffsetSizeConfig:
 435              	.LFB114:
 493:stm32f4xx_dma.c ****   }
 494:stm32f4xx_dma.c **** }
 495:stm32f4xx_dma.c **** 
 496:stm32f4xx_dma.c **** /**
 497:stm32f4xx_dma.c ****   * @brief  Configures, when the PINC (Peripheral Increment address mode) bit is
 498:stm32f4xx_dma.c ****   *         set, if the peripheral address should be incremented with the data 
 499:stm32f4xx_dma.c ****   *         size (configured with PSIZE bits) or by a fixed offset equal to 4
 500:stm32f4xx_dma.c ****   *         (32-bit aligned addresses).
 501:stm32f4xx_dma.c ****   *   
 502:stm32f4xx_dma.c ****   * @note   This function has no effect if the Peripheral Increment mode is disabled.
 503:stm32f4xx_dma.c ****   *     
 504:stm32f4xx_dma.c ****   * @param  DMAy_Streamx: where y can be 1 or 2 to select the DMA and x can be 0
 505:stm32f4xx_dma.c ****   *          to 7 to select the DMA Stream.
 506:stm32f4xx_dma.c ****   * @param  DMA_Pincos: specifies the Peripheral increment offset size.
 507:stm32f4xx_dma.c ****   *          This parameter can be one of the following values:
 508:stm32f4xx_dma.c ****   *            @arg DMA_PINCOS_Psize: Peripheral address increment is done  
 509:stm32f4xx_dma.c ****   *                                   accordingly to PSIZE parameter.
 510:stm32f4xx_dma.c ****   *            @arg DMA_PINCOS_WordAligned: Peripheral address increment offset is 
 511:stm32f4xx_dma.c ****   *                                         fixed to 4 (32-bit aligned addresses). 
 512:stm32f4xx_dma.c ****   * @retval None
 513:stm32f4xx_dma.c ****   */
 514:stm32f4xx_dma.c **** void DMA_PeriphIncOffsetSizeConfig(DMA_Stream_TypeDef* DMAy_Streamx, uint32_t DMA_Pincos)
 515:stm32f4xx_dma.c **** {
 436              		.loc 1 515 0
 437              		.cfi_startproc
 438              		@ args = 0, pretend = 0, frame = 0
 439              		@ frame_needed = 0, uses_anonymous_args = 0
 440              		@ link register save eliminated.
ARM GAS  /tmp/ccXZiPD3.s 			page 18


 441              	.LVL18:
 516:stm32f4xx_dma.c ****   /* Check the parameters */
 517:stm32f4xx_dma.c ****   assert_param(IS_DMA_ALL_PERIPH(DMAy_Streamx));
 518:stm32f4xx_dma.c ****   assert_param(IS_DMA_PINCOS_SIZE(DMA_Pincos));
 519:stm32f4xx_dma.c **** 
 520:stm32f4xx_dma.c ****   /* Check the needed Peripheral increment offset */
 521:stm32f4xx_dma.c ****   if(DMA_Pincos != DMA_PINCOS_Psize)
 522:stm32f4xx_dma.c ****   {
 523:stm32f4xx_dma.c ****     /* Configure DMA_SxCR_PINCOS bit with the input parameter */
 524:stm32f4xx_dma.c ****     DMAy_Streamx->CR |= (uint32_t)DMA_SxCR_PINCOS;     
 442              		.loc 1 524 0
 443 0000 0368     		ldr	r3, [r0, #0]	@ D.6113,* DMAy_Streamx
 521:stm32f4xx_dma.c ****   if(DMA_Pincos != DMA_PINCOS_Psize)
 444              		.loc 1 521 0
 445 0002 11B1     		cbz	r1, .L38	@ DMA_Pincos,
 446              		.loc 1 524 0
 447 0004 43F40041 		orr	r1, r3, #32768	@ D.6114, D.6113,
 448              	.LVL19:
 449 0008 01E0     		b	.L40	@
 450              	.LVL20:
 451              	.L38:
 525:stm32f4xx_dma.c ****   }
 526:stm32f4xx_dma.c ****   else
 527:stm32f4xx_dma.c ****   {
 528:stm32f4xx_dma.c ****     /* Clear the PINCOS bit: Peripheral address incremented according to PSIZE */
 529:stm32f4xx_dma.c ****     DMAy_Streamx->CR &= ~(uint32_t)DMA_SxCR_PINCOS;    
 452              		.loc 1 529 0
 453 000a 23F40041 		bic	r1, r3, #32768	@ D.6117, D.6116,
 454              	.LVL21:
 455              	.L40:
 456 000e 0160     		str	r1, [r0, #0]	@ D.6117,* DMAy_Streamx
 457 0010 7047     		bx	lr	@
 458              		.cfi_endproc
 459              	.LFE114:
 460              		.size	DMA_PeriphIncOffsetSizeConfig, .-DMA_PeriphIncOffsetSizeConfig
 461              		.section	.text.DMA_FlowControllerConfig,"ax",%progbits
 462              		.align	1
 463              		.global	DMA_FlowControllerConfig
 464              		.thumb
 465              		.thumb_func
 466              		.type	DMA_FlowControllerConfig, %function
 467              	DMA_FlowControllerConfig:
 468              	.LFB115:
 530:stm32f4xx_dma.c ****   }
 531:stm32f4xx_dma.c **** }
 532:stm32f4xx_dma.c **** 
 533:stm32f4xx_dma.c **** /**
 534:stm32f4xx_dma.c ****   * @brief  Configures, when the DMAy Streamx is disabled, the flow controller for
 535:stm32f4xx_dma.c ****   *         the next transactions (Peripheral or Memory).
 536:stm32f4xx_dma.c ****   *       
 537:stm32f4xx_dma.c ****   * @note   Before enabling this feature, check if the used peripheral supports 
 538:stm32f4xx_dma.c ****   *         the Flow Controller mode or not.    
 539:stm32f4xx_dma.c ****   *  
 540:stm32f4xx_dma.c ****   * @param  DMAy_Streamx: where y can be 1 or 2 to select the DMA and x can be 0
 541:stm32f4xx_dma.c ****   *          to 7 to select the DMA Stream.
 542:stm32f4xx_dma.c ****   * @param  DMA_FlowCtrl: specifies the DMA flow controller.
 543:stm32f4xx_dma.c ****   *          This parameter can be one of the following values:
ARM GAS  /tmp/ccXZiPD3.s 			page 19


 544:stm32f4xx_dma.c ****   *            @arg DMA_FlowCtrl_Memory: DMAy_Streamx transactions flow controller is 
 545:stm32f4xx_dma.c ****   *                                      the DMA controller.
 546:stm32f4xx_dma.c ****   *            @arg DMA_FlowCtrl_Peripheral: DMAy_Streamx transactions flow controller 
 547:stm32f4xx_dma.c ****   *                                          is the peripheral.    
 548:stm32f4xx_dma.c ****   * @retval None
 549:stm32f4xx_dma.c ****   */
 550:stm32f4xx_dma.c **** void DMA_FlowControllerConfig(DMA_Stream_TypeDef* DMAy_Streamx, uint32_t DMA_FlowCtrl)
 551:stm32f4xx_dma.c **** {
 469              		.loc 1 551 0
 470              		.cfi_startproc
 471              		@ args = 0, pretend = 0, frame = 0
 472              		@ frame_needed = 0, uses_anonymous_args = 0
 473              		@ link register save eliminated.
 474              	.LVL22:
 552:stm32f4xx_dma.c ****   /* Check the parameters */
 553:stm32f4xx_dma.c ****   assert_param(IS_DMA_ALL_PERIPH(DMAy_Streamx));
 554:stm32f4xx_dma.c ****   assert_param(IS_DMA_FLOW_CTRL(DMA_FlowCtrl));
 555:stm32f4xx_dma.c **** 
 556:stm32f4xx_dma.c ****   /* Check the needed flow controller  */
 557:stm32f4xx_dma.c ****   if(DMA_FlowCtrl != DMA_FlowCtrl_Memory)
 558:stm32f4xx_dma.c ****   {
 559:stm32f4xx_dma.c ****     /* Configure DMA_SxCR_PFCTRL bit with the input parameter */
 560:stm32f4xx_dma.c ****     DMAy_Streamx->CR |= (uint32_t)DMA_SxCR_PFCTRL;   
 475              		.loc 1 560 0
 476 0000 0368     		ldr	r3, [r0, #0]	@ D.6106,* DMAy_Streamx
 557:stm32f4xx_dma.c ****   if(DMA_FlowCtrl != DMA_FlowCtrl_Memory)
 477              		.loc 1 557 0
 478 0002 11B1     		cbz	r1, .L42	@ DMA_FlowCtrl,
 479              		.loc 1 560 0
 480 0004 43F02001 		orr	r1, r3, #32	@ D.6107, D.6106,
 481              	.LVL23:
 482 0008 01E0     		b	.L44	@
 483              	.LVL24:
 484              	.L42:
 561:stm32f4xx_dma.c ****   }
 562:stm32f4xx_dma.c ****   else
 563:stm32f4xx_dma.c ****   {
 564:stm32f4xx_dma.c ****     /* Clear the PFCTRL bit: Memory is the flow controller */
 565:stm32f4xx_dma.c ****     DMAy_Streamx->CR &= ~(uint32_t)DMA_SxCR_PFCTRL;    
 485              		.loc 1 565 0
 486 000a 23F02001 		bic	r1, r3, #32	@ D.6110, D.6109,
 487              	.LVL25:
 488              	.L44:
 489 000e 0160     		str	r1, [r0, #0]	@ D.6110,* DMAy_Streamx
 490 0010 7047     		bx	lr	@
 491              		.cfi_endproc
 492              	.LFE115:
 493              		.size	DMA_FlowControllerConfig, .-DMA_FlowControllerConfig
 494              		.section	.text.DMA_SetCurrDataCounter,"ax",%progbits
 495              		.align	1
 496              		.global	DMA_SetCurrDataCounter
 497              		.thumb
 498              		.thumb_func
 499              		.type	DMA_SetCurrDataCounter, %function
 500              	DMA_SetCurrDataCounter:
 501              	.LFB116:
 566:stm32f4xx_dma.c ****   }
ARM GAS  /tmp/ccXZiPD3.s 			page 20


 567:stm32f4xx_dma.c **** }
 568:stm32f4xx_dma.c **** /**
 569:stm32f4xx_dma.c ****   * @}
 570:stm32f4xx_dma.c ****   */
 571:stm32f4xx_dma.c **** 
 572:stm32f4xx_dma.c **** /** @defgroup DMA_Group2 Data Counter functions
 573:stm32f4xx_dma.c ****  *  @brief   Data Counter functions 
 574:stm32f4xx_dma.c ****  *
 575:stm32f4xx_dma.c **** @verbatim   
 576:stm32f4xx_dma.c ****  ===============================================================================
 577:stm32f4xx_dma.c ****                       ##### Data Counter functions #####
 578:stm32f4xx_dma.c ****  ===============================================================================  
 579:stm32f4xx_dma.c ****     [..]
 580:stm32f4xx_dma.c ****     This subsection provides function allowing to configure and read the buffer size
 581:stm32f4xx_dma.c ****     (number of data to be transferred). 
 582:stm32f4xx_dma.c ****     [..]
 583:stm32f4xx_dma.c ****     The DMA data counter can be written only when the DMA Stream is disabled 
 584:stm32f4xx_dma.c ****     (ie. after transfer complete event).
 585:stm32f4xx_dma.c ****     [..]
 586:stm32f4xx_dma.c ****     The following function can be used to write the Stream data counter value:
 587:stm32f4xx_dma.c ****       (+) void DMA_SetCurrDataCounter(DMA_Stream_TypeDef* DMAy_Streamx, uint16_t Counter);
 588:stm32f4xx_dma.c ****       -@- It is advised to use this function rather than DMA_Init() in situations 
 589:stm32f4xx_dma.c ****           where only the Data buffer needs to be reloaded.
 590:stm32f4xx_dma.c ****       -@- If the Source and Destination Data Sizes are different, then the value 
 591:stm32f4xx_dma.c ****           written in data counter, expressing the number of transfers, is relative 
 592:stm32f4xx_dma.c ****           to the number of transfers from the Peripheral point of view.
 593:stm32f4xx_dma.c ****           ie. If Memory data size is Word, Peripheral data size is Half-Words, 
 594:stm32f4xx_dma.c ****           then the value to be configured in the data counter is the number 
 595:stm32f4xx_dma.c ****           of Half-Words to be transferred from/to the peripheral.
 596:stm32f4xx_dma.c ****     [..]
 597:stm32f4xx_dma.c ****     The DMA data counter can be read to indicate the number of remaining transfers for
 598:stm32f4xx_dma.c ****     the relative DMA Stream. This counter is decremented at the end of each data 
 599:stm32f4xx_dma.c ****     transfer and when the transfer is complete: 
 600:stm32f4xx_dma.c ****       (+) If Normal mode is selected: the counter is set to 0.
 601:stm32f4xx_dma.c ****       (+) If Circular mode is selected: the counter is reloaded with the initial value
 602:stm32f4xx_dma.c ****           (configured before enabling the DMA Stream)
 603:stm32f4xx_dma.c ****      [..]
 604:stm32f4xx_dma.c ****      The following function can be used to read the Stream data counter value:
 605:stm32f4xx_dma.c ****        (+) uint16_t DMA_GetCurrDataCounter(DMA_Stream_TypeDef* DMAy_Streamx);
 606:stm32f4xx_dma.c **** 
 607:stm32f4xx_dma.c **** @endverbatim
 608:stm32f4xx_dma.c ****   * @{
 609:stm32f4xx_dma.c ****   */
 610:stm32f4xx_dma.c **** 
 611:stm32f4xx_dma.c **** /**
 612:stm32f4xx_dma.c ****   * @brief  Writes the number of data units to be transferred on the DMAy Streamx.
 613:stm32f4xx_dma.c ****   * @param  DMAy_Streamx: where y can be 1 or 2 to select the DMA and x can be 0
 614:stm32f4xx_dma.c ****   *          to 7 to select the DMA Stream.
 615:stm32f4xx_dma.c ****   * @param  Counter: Number of data units to be transferred (from 0 to 65535) 
 616:stm32f4xx_dma.c ****   *          Number of data items depends only on the Peripheral data format.
 617:stm32f4xx_dma.c ****   *            
 618:stm32f4xx_dma.c ****   * @note   If Peripheral data format is Bytes: number of data units is equal 
 619:stm32f4xx_dma.c ****   *         to total number of bytes to be transferred.
 620:stm32f4xx_dma.c ****   *           
 621:stm32f4xx_dma.c ****   * @note   If Peripheral data format is Half-Word: number of data units is  
 622:stm32f4xx_dma.c ****   *         equal to total number of bytes to be transferred / 2.
 623:stm32f4xx_dma.c ****   *           
ARM GAS  /tmp/ccXZiPD3.s 			page 21


 624:stm32f4xx_dma.c ****   * @note   If Peripheral data format is Word: number of data units is equal 
 625:stm32f4xx_dma.c ****   *         to total  number of bytes to be transferred / 4.
 626:stm32f4xx_dma.c ****   *      
 627:stm32f4xx_dma.c ****   * @note   In Memory-to-Memory transfer mode, the memory buffer pointed by 
 628:stm32f4xx_dma.c ****   *         DMAy_SxPAR register is considered as Peripheral.
 629:stm32f4xx_dma.c ****   *      
 630:stm32f4xx_dma.c ****   * @retval The number of remaining data units in the current DMAy Streamx transfer.
 631:stm32f4xx_dma.c ****   */
 632:stm32f4xx_dma.c **** void DMA_SetCurrDataCounter(DMA_Stream_TypeDef* DMAy_Streamx, uint16_t Counter)
 633:stm32f4xx_dma.c **** {
 502              		.loc 1 633 0
 503              		.cfi_startproc
 504              		@ args = 0, pretend = 0, frame = 0
 505              		@ frame_needed = 0, uses_anonymous_args = 0
 506              		@ link register save eliminated.
 507              	.LVL26:
 634:stm32f4xx_dma.c ****   /* Check the parameters */
 635:stm32f4xx_dma.c ****   assert_param(IS_DMA_ALL_PERIPH(DMAy_Streamx));
 636:stm32f4xx_dma.c **** 
 637:stm32f4xx_dma.c ****   /* Write the number of data units to be transferred */
 638:stm32f4xx_dma.c ****   DMAy_Streamx->NDTR = (uint16_t)Counter;
 508              		.loc 1 638 0
 509 0000 4160     		str	r1, [r0, #4]	@ Counter, DMAy_Streamx_3(D)->NDTR
 510 0002 7047     		bx	lr	@
 511              		.cfi_endproc
 512              	.LFE116:
 513              		.size	DMA_SetCurrDataCounter, .-DMA_SetCurrDataCounter
 514              		.section	.text.DMA_GetCurrDataCounter,"ax",%progbits
 515              		.align	1
 516              		.global	DMA_GetCurrDataCounter
 517              		.thumb
 518              		.thumb_func
 519              		.type	DMA_GetCurrDataCounter, %function
 520              	DMA_GetCurrDataCounter:
 521              	.LFB117:
 639:stm32f4xx_dma.c **** }
 640:stm32f4xx_dma.c **** 
 641:stm32f4xx_dma.c **** /**
 642:stm32f4xx_dma.c ****   * @brief  Returns the number of remaining data units in the current DMAy Streamx transfer.
 643:stm32f4xx_dma.c ****   * @param  DMAy_Streamx: where y can be 1 or 2 to select the DMA and x can be 0
 644:stm32f4xx_dma.c ****   *          to 7 to select the DMA Stream.
 645:stm32f4xx_dma.c ****   * @retval The number of remaining data units in the current DMAy Streamx transfer.
 646:stm32f4xx_dma.c ****   */
 647:stm32f4xx_dma.c **** uint16_t DMA_GetCurrDataCounter(DMA_Stream_TypeDef* DMAy_Streamx)
 648:stm32f4xx_dma.c **** {
 522              		.loc 1 648 0
 523              		.cfi_startproc
 524              		@ args = 0, pretend = 0, frame = 0
 525              		@ frame_needed = 0, uses_anonymous_args = 0
 526              		@ link register save eliminated.
 527              	.LVL27:
 649:stm32f4xx_dma.c ****   /* Check the parameters */
 650:stm32f4xx_dma.c ****   assert_param(IS_DMA_ALL_PERIPH(DMAy_Streamx));
 651:stm32f4xx_dma.c **** 
 652:stm32f4xx_dma.c ****   /* Return the number of remaining data units for DMAy Streamx */
 653:stm32f4xx_dma.c ****   return ((uint16_t)(DMAy_Streamx->NDTR));
 528              		.loc 1 653 0
ARM GAS  /tmp/ccXZiPD3.s 			page 22


 529 0000 4068     		ldr	r0, [r0, #4]	@ D.6101, DMAy_Streamx_1(D)->NDTR
 530              	.LVL28:
 654:stm32f4xx_dma.c **** }
 531              		.loc 1 654 0
 532 0002 80B2     		uxth	r0, r0	@, D.6101
 533 0004 7047     		bx	lr	@
 534              		.cfi_endproc
 535              	.LFE117:
 536              		.size	DMA_GetCurrDataCounter, .-DMA_GetCurrDataCounter
 537              		.section	.text.DMA_DoubleBufferModeConfig,"ax",%progbits
 538              		.align	1
 539              		.global	DMA_DoubleBufferModeConfig
 540              		.thumb
 541              		.thumb_func
 542              		.type	DMA_DoubleBufferModeConfig, %function
 543              	DMA_DoubleBufferModeConfig:
 544              	.LFB118:
 655:stm32f4xx_dma.c **** /**
 656:stm32f4xx_dma.c ****   * @}
 657:stm32f4xx_dma.c ****   */
 658:stm32f4xx_dma.c **** 
 659:stm32f4xx_dma.c **** /** @defgroup DMA_Group3 Double Buffer mode functions
 660:stm32f4xx_dma.c ****  *  @brief   Double Buffer mode functions 
 661:stm32f4xx_dma.c ****  *
 662:stm32f4xx_dma.c **** @verbatim   
 663:stm32f4xx_dma.c ****  ===============================================================================
 664:stm32f4xx_dma.c ****                     ##### Double Buffer mode functions #####
 665:stm32f4xx_dma.c ****  ===============================================================================  
 666:stm32f4xx_dma.c ****     [..]
 667:stm32f4xx_dma.c ****     This subsection provides function allowing to configure and control the double 
 668:stm32f4xx_dma.c ****     buffer mode parameters.
 669:stm32f4xx_dma.c ****     
 670:stm32f4xx_dma.c ****     [..]
 671:stm32f4xx_dma.c ****     The Double Buffer mode can be used only when Circular mode is enabled.
 672:stm32f4xx_dma.c ****     The Double Buffer mode cannot be used when transferring data from Memory to Memory.
 673:stm32f4xx_dma.c ****     
 674:stm32f4xx_dma.c ****     [..]
 675:stm32f4xx_dma.c ****     The Double Buffer mode allows to set two different Memory addresses from/to which
 676:stm32f4xx_dma.c ****     the DMA controller will access alternatively (after completing transfer to/from 
 677:stm32f4xx_dma.c ****     target memory 0, it will start transfer to/from target memory 1).
 678:stm32f4xx_dma.c ****     This allows to reduce software overhead for double buffering and reduce the CPU
 679:stm32f4xx_dma.c ****     access time.
 680:stm32f4xx_dma.c ****     
 681:stm32f4xx_dma.c ****     [..]
 682:stm32f4xx_dma.c ****     Two functions must be called before calling the DMA_Init() function:
 683:stm32f4xx_dma.c ****       (+) void DMA_DoubleBufferModeConfig(DMA_Stream_TypeDef* DMAy_Streamx, 
 684:stm32f4xx_dma.c ****           uint32_t Memory1BaseAddr, uint32_t DMA_CurrentMemory);
 685:stm32f4xx_dma.c ****       (+) void DMA_DoubleBufferModeCmd(DMA_Stream_TypeDef* DMAy_Streamx, FunctionalState NewState);
 686:stm32f4xx_dma.c ****       
 687:stm32f4xx_dma.c ****     [..]
 688:stm32f4xx_dma.c ****     DMA_DoubleBufferModeConfig() is called to configure the Memory 1 base address 
 689:stm32f4xx_dma.c ****     and the first Memory target from/to which the transfer will start after 
 690:stm32f4xx_dma.c ****     enabling the DMA Stream. Then DMA_DoubleBufferModeCmd() must be called 
 691:stm32f4xx_dma.c ****     to enable the Double Buffer mode (or disable it when it should not be used).
 692:stm32f4xx_dma.c ****   
 693:stm32f4xx_dma.c ****     [..]
 694:stm32f4xx_dma.c ****     Two functions can be called dynamically when the transfer is ongoing (or when the DMA Stream is
ARM GAS  /tmp/ccXZiPD3.s 			page 23


 695:stm32f4xx_dma.c ****     stopped) to modify on of the target Memories addresses or to check wich Memory target is curren
 696:stm32f4xx_dma.c ****     used:
 697:stm32f4xx_dma.c ****       (+) void DMA_MemoryTargetConfig(DMA_Stream_TypeDef* DMAy_Streamx, 
 698:stm32f4xx_dma.c ****                 uint32_t MemoryBaseAddr, uint32_t DMA_MemoryTarget);
 699:stm32f4xx_dma.c ****       (+) uint32_t DMA_GetCurrentMemoryTarget(DMA_Stream_TypeDef* DMAy_Streamx);
 700:stm32f4xx_dma.c ****       
 701:stm32f4xx_dma.c ****     [..]
 702:stm32f4xx_dma.c ****     DMA_MemoryTargetConfig() can be called to modify the base address of one of 
 703:stm32f4xx_dma.c ****     the two target Memories.
 704:stm32f4xx_dma.c ****     The Memory of which the base address will be modified must not be currently 
 705:stm32f4xx_dma.c ****     be used by the DMA Stream (ie. if the DMA Stream is currently transferring 
 706:stm32f4xx_dma.c ****     from Memory 1 then you can only modify base address of target Memory 0 and vice versa).
 707:stm32f4xx_dma.c ****     To check this condition, it is recommended to use the function DMA_GetCurrentMemoryTarget() whi
 708:stm32f4xx_dma.c ****     returns the index of the Memory target currently in use by the DMA Stream.
 709:stm32f4xx_dma.c **** 
 710:stm32f4xx_dma.c **** @endverbatim
 711:stm32f4xx_dma.c ****   * @{
 712:stm32f4xx_dma.c ****   */
 713:stm32f4xx_dma.c ****   
 714:stm32f4xx_dma.c **** /**
 715:stm32f4xx_dma.c ****   * @brief  Configures, when the DMAy Streamx is disabled, the double buffer mode 
 716:stm32f4xx_dma.c ****   *         and the current memory target.
 717:stm32f4xx_dma.c ****   * @param  DMAy_Streamx: where y can be 1 or 2 to select the DMA and x can be 0
 718:stm32f4xx_dma.c ****   *          to 7 to select the DMA Stream.
 719:stm32f4xx_dma.c ****   * @param  Memory1BaseAddr: the base address of the second buffer (Memory 1)  
 720:stm32f4xx_dma.c ****   * @param  DMA_CurrentMemory: specifies which memory will be first buffer for
 721:stm32f4xx_dma.c ****   *         the transactions when the Stream will be enabled. 
 722:stm32f4xx_dma.c ****   *          This parameter can be one of the following values:
 723:stm32f4xx_dma.c ****   *            @arg DMA_Memory_0: Memory 0 is the current buffer.
 724:stm32f4xx_dma.c ****   *            @arg DMA_Memory_1: Memory 1 is the current buffer.  
 725:stm32f4xx_dma.c ****   *       
 726:stm32f4xx_dma.c ****   * @note   Memory0BaseAddr is set by the DMA structure configuration in DMA_Init().
 727:stm32f4xx_dma.c ****   *   
 728:stm32f4xx_dma.c ****   * @retval None
 729:stm32f4xx_dma.c ****   */
 730:stm32f4xx_dma.c **** void DMA_DoubleBufferModeConfig(DMA_Stream_TypeDef* DMAy_Streamx, uint32_t Memory1BaseAddr,
 731:stm32f4xx_dma.c ****                                 uint32_t DMA_CurrentMemory)
 732:stm32f4xx_dma.c **** {  
 545              		.loc 1 732 0
 546              		.cfi_startproc
 547              		@ args = 0, pretend = 0, frame = 0
 548              		@ frame_needed = 0, uses_anonymous_args = 0
 549              		@ link register save eliminated.
 550              	.LVL29:
 733:stm32f4xx_dma.c ****   /* Check the parameters */
 734:stm32f4xx_dma.c ****   assert_param(IS_DMA_ALL_PERIPH(DMAy_Streamx));
 735:stm32f4xx_dma.c ****   assert_param(IS_DMA_CURRENT_MEM(DMA_CurrentMemory));
 736:stm32f4xx_dma.c **** 
 737:stm32f4xx_dma.c ****   if (DMA_CurrentMemory != DMA_Memory_0)
 738:stm32f4xx_dma.c ****   {
 739:stm32f4xx_dma.c ****     /* Set Memory 1 as current memory address */
 740:stm32f4xx_dma.c ****     DMAy_Streamx->CR |= (uint32_t)(DMA_SxCR_CT);    
 551              		.loc 1 740 0
 552 0000 0368     		ldr	r3, [r0, #0]	@ D.6095,* DMAy_Streamx
 737:stm32f4xx_dma.c ****   if (DMA_CurrentMemory != DMA_Memory_0)
 553              		.loc 1 737 0
 554 0002 12B1     		cbz	r2, .L48	@ DMA_CurrentMemory,
ARM GAS  /tmp/ccXZiPD3.s 			page 24


 555              		.loc 1 740 0
 556 0004 43F40022 		orr	r2, r3, #524288	@ D.6096, D.6095,
 557              	.LVL30:
 558 0008 01E0     		b	.L50	@
 559              	.LVL31:
 560              	.L48:
 741:stm32f4xx_dma.c ****   }
 742:stm32f4xx_dma.c ****   else
 743:stm32f4xx_dma.c ****   {
 744:stm32f4xx_dma.c ****     /* Set Memory 0 as current memory address */
 745:stm32f4xx_dma.c ****     DMAy_Streamx->CR &= ~(uint32_t)(DMA_SxCR_CT);    
 561              		.loc 1 745 0
 562 000a 23F40022 		bic	r2, r3, #524288	@ D.6099, D.6098,
 563              	.LVL32:
 564              	.L50:
 565 000e 0260     		str	r2, [r0, #0]	@ D.6099,* DMAy_Streamx
 746:stm32f4xx_dma.c ****   }
 747:stm32f4xx_dma.c **** 
 748:stm32f4xx_dma.c ****   /* Write to DMAy Streamx M1AR */
 749:stm32f4xx_dma.c ****   DMAy_Streamx->M1AR = Memory1BaseAddr;
 566              		.loc 1 749 0
 567 0010 0161     		str	r1, [r0, #16]	@ Memory1BaseAddr, DMAy_Streamx_2(D)->M1AR
 568 0012 7047     		bx	lr	@
 569              		.cfi_endproc
 570              	.LFE118:
 571              		.size	DMA_DoubleBufferModeConfig, .-DMA_DoubleBufferModeConfig
 572              		.section	.text.DMA_DoubleBufferModeCmd,"ax",%progbits
 573              		.align	1
 574              		.global	DMA_DoubleBufferModeCmd
 575              		.thumb
 576              		.thumb_func
 577              		.type	DMA_DoubleBufferModeCmd, %function
 578              	DMA_DoubleBufferModeCmd:
 579              	.LFB119:
 750:stm32f4xx_dma.c **** }
 751:stm32f4xx_dma.c **** 
 752:stm32f4xx_dma.c **** /**
 753:stm32f4xx_dma.c ****   * @brief  Enables or disables the double buffer mode for the selected DMA stream.
 754:stm32f4xx_dma.c ****   * @note   This function can be called only when the DMA Stream is disabled.  
 755:stm32f4xx_dma.c ****   * @param  DMAy_Streamx: where y can be 1 or 2 to select the DMA and x can be 0
 756:stm32f4xx_dma.c ****   *          to 7 to select the DMA Stream.
 757:stm32f4xx_dma.c ****   * @param  NewState: new state of the DMAy Streamx double buffer mode. 
 758:stm32f4xx_dma.c ****   *          This parameter can be: ENABLE or DISABLE.
 759:stm32f4xx_dma.c ****   * @retval None
 760:stm32f4xx_dma.c ****   */
 761:stm32f4xx_dma.c **** void DMA_DoubleBufferModeCmd(DMA_Stream_TypeDef* DMAy_Streamx, FunctionalState NewState)
 762:stm32f4xx_dma.c **** {  
 580              		.loc 1 762 0
 581              		.cfi_startproc
 582              		@ args = 0, pretend = 0, frame = 0
 583              		@ frame_needed = 0, uses_anonymous_args = 0
 584              		@ link register save eliminated.
 585              	.LVL33:
 763:stm32f4xx_dma.c ****   /* Check the parameters */
 764:stm32f4xx_dma.c ****   assert_param(IS_DMA_ALL_PERIPH(DMAy_Streamx));
 765:stm32f4xx_dma.c ****   assert_param(IS_FUNCTIONAL_STATE(NewState));
 766:stm32f4xx_dma.c **** 
ARM GAS  /tmp/ccXZiPD3.s 			page 25


 767:stm32f4xx_dma.c ****   /* Configure the Double Buffer mode */
 768:stm32f4xx_dma.c ****   if (NewState != DISABLE)
 769:stm32f4xx_dma.c ****   {
 770:stm32f4xx_dma.c ****     /* Enable the Double buffer mode */
 771:stm32f4xx_dma.c ****     DMAy_Streamx->CR |= (uint32_t)DMA_SxCR_DBM;
 586              		.loc 1 771 0
 587 0000 0368     		ldr	r3, [r0, #0]	@ D.6088,* DMAy_Streamx
 768:stm32f4xx_dma.c ****   if (NewState != DISABLE)
 588              		.loc 1 768 0
 589 0002 11B1     		cbz	r1, .L52	@ NewState,
 590              		.loc 1 771 0
 591 0004 43F48021 		orr	r1, r3, #262144	@ D.6089, D.6088,
 592              	.LVL34:
 593 0008 01E0     		b	.L54	@
 594              	.LVL35:
 595              	.L52:
 772:stm32f4xx_dma.c ****   }
 773:stm32f4xx_dma.c ****   else
 774:stm32f4xx_dma.c ****   {
 775:stm32f4xx_dma.c ****     /* Disable the Double buffer mode */
 776:stm32f4xx_dma.c ****     DMAy_Streamx->CR &= ~(uint32_t)DMA_SxCR_DBM;
 596              		.loc 1 776 0
 597 000a 23F48021 		bic	r1, r3, #262144	@ D.6092, D.6091,
 598              	.LVL36:
 599              	.L54:
 600 000e 0160     		str	r1, [r0, #0]	@ D.6092,* DMAy_Streamx
 601 0010 7047     		bx	lr	@
 602              		.cfi_endproc
 603              	.LFE119:
 604              		.size	DMA_DoubleBufferModeCmd, .-DMA_DoubleBufferModeCmd
 605              		.section	.text.DMA_MemoryTargetConfig,"ax",%progbits
 606              		.align	1
 607              		.global	DMA_MemoryTargetConfig
 608              		.thumb
 609              		.thumb_func
 610              		.type	DMA_MemoryTargetConfig, %function
 611              	DMA_MemoryTargetConfig:
 612              	.LFB120:
 777:stm32f4xx_dma.c ****   }
 778:stm32f4xx_dma.c **** }
 779:stm32f4xx_dma.c **** 
 780:stm32f4xx_dma.c **** /**
 781:stm32f4xx_dma.c ****   * @brief  Configures the Memory address for the next buffer transfer in double
 782:stm32f4xx_dma.c ****   *         buffer mode (for dynamic use). This function can be called when the
 783:stm32f4xx_dma.c ****   *         DMA Stream is enabled and when the transfer is ongoing.  
 784:stm32f4xx_dma.c ****   * @param  DMAy_Streamx: where y can be 1 or 2 to select the DMA and x can be 0
 785:stm32f4xx_dma.c ****   *          to 7 to select the DMA Stream.
 786:stm32f4xx_dma.c ****   * @param  MemoryBaseAddr: The base address of the target memory buffer
 787:stm32f4xx_dma.c ****   * @param  DMA_MemoryTarget: Next memory target to be used. 
 788:stm32f4xx_dma.c ****   *         This parameter can be one of the following values:
 789:stm32f4xx_dma.c ****   *            @arg DMA_Memory_0: To use the memory address 0
 790:stm32f4xx_dma.c ****   *            @arg DMA_Memory_1: To use the memory address 1
 791:stm32f4xx_dma.c ****   * 
 792:stm32f4xx_dma.c ****   * @note    It is not allowed to modify the Base Address of a target Memory when
 793:stm32f4xx_dma.c ****   *          this target is involved in the current transfer. ie. If the DMA Stream
 794:stm32f4xx_dma.c ****   *          is currently transferring to/from Memory 1, then it not possible to
 795:stm32f4xx_dma.c ****   *          modify Base address of Memory 1, but it is possible to modify Base
ARM GAS  /tmp/ccXZiPD3.s 			page 26


 796:stm32f4xx_dma.c ****   *          address of Memory 0.
 797:stm32f4xx_dma.c ****   *          To know which Memory is currently used, you can use the function
 798:stm32f4xx_dma.c ****   *          DMA_GetCurrentMemoryTarget().             
 799:stm32f4xx_dma.c ****   *  
 800:stm32f4xx_dma.c ****   * @retval None
 801:stm32f4xx_dma.c ****   */
 802:stm32f4xx_dma.c **** void DMA_MemoryTargetConfig(DMA_Stream_TypeDef* DMAy_Streamx, uint32_t MemoryBaseAddr,
 803:stm32f4xx_dma.c ****                            uint32_t DMA_MemoryTarget)
 804:stm32f4xx_dma.c **** {
 613              		.loc 1 804 0
 614              		.cfi_startproc
 615              		@ args = 0, pretend = 0, frame = 0
 616              		@ frame_needed = 0, uses_anonymous_args = 0
 617              		@ link register save eliminated.
 618              	.LVL37:
 805:stm32f4xx_dma.c ****   /* Check the parameters */
 806:stm32f4xx_dma.c ****   assert_param(IS_DMA_ALL_PERIPH(DMAy_Streamx));
 807:stm32f4xx_dma.c ****   assert_param(IS_DMA_CURRENT_MEM(DMA_MemoryTarget));
 808:stm32f4xx_dma.c ****     
 809:stm32f4xx_dma.c ****   /* Check the Memory target to be configured */
 810:stm32f4xx_dma.c ****   if (DMA_MemoryTarget != DMA_Memory_0)
 619              		.loc 1 810 0
 620 0000 0AB1     		cbz	r2, .L56	@ DMA_MemoryTarget,
 811:stm32f4xx_dma.c ****   {
 812:stm32f4xx_dma.c ****     /* Write to DMAy Streamx M1AR */
 813:stm32f4xx_dma.c ****     DMAy_Streamx->M1AR = MemoryBaseAddr;    
 621              		.loc 1 813 0
 622 0002 0161     		str	r1, [r0, #16]	@ MemoryBaseAddr, DMAy_Streamx_2(D)->M1AR
 623 0004 7047     		bx	lr	@
 624              	.L56:
 814:stm32f4xx_dma.c ****   }  
 815:stm32f4xx_dma.c ****   else
 816:stm32f4xx_dma.c ****   {
 817:stm32f4xx_dma.c ****     /* Write to DMAy Streamx M0AR */
 818:stm32f4xx_dma.c ****     DMAy_Streamx->M0AR = MemoryBaseAddr;  
 625              		.loc 1 818 0
 626 0006 C160     		str	r1, [r0, #12]	@ MemoryBaseAddr, DMAy_Streamx_2(D)->M0AR
 627 0008 7047     		bx	lr	@
 628              		.cfi_endproc
 629              	.LFE120:
 630              		.size	DMA_MemoryTargetConfig, .-DMA_MemoryTargetConfig
 631              		.section	.text.DMA_GetCurrentMemoryTarget,"ax",%progbits
 632              		.align	1
 633              		.global	DMA_GetCurrentMemoryTarget
 634              		.thumb
 635              		.thumb_func
 636              		.type	DMA_GetCurrentMemoryTarget, %function
 637              	DMA_GetCurrentMemoryTarget:
 638              	.LFB121:
 819:stm32f4xx_dma.c ****   }
 820:stm32f4xx_dma.c **** }
 821:stm32f4xx_dma.c **** 
 822:stm32f4xx_dma.c **** /**
 823:stm32f4xx_dma.c ****   * @brief  Returns the current memory target used by double buffer transfer.
 824:stm32f4xx_dma.c ****   * @param  DMAy_Streamx: where y can be 1 or 2 to select the DMA and x can be 0
 825:stm32f4xx_dma.c ****   *          to 7 to select the DMA Stream.
 826:stm32f4xx_dma.c ****   * @retval The memory target number: 0 for Memory0 or 1 for Memory1. 
ARM GAS  /tmp/ccXZiPD3.s 			page 27


 827:stm32f4xx_dma.c ****   */
 828:stm32f4xx_dma.c **** uint32_t DMA_GetCurrentMemoryTarget(DMA_Stream_TypeDef* DMAy_Streamx)
 829:stm32f4xx_dma.c **** {
 639              		.loc 1 829 0
 640              		.cfi_startproc
 641              		@ args = 0, pretend = 0, frame = 0
 642              		@ frame_needed = 0, uses_anonymous_args = 0
 643              		@ link register save eliminated.
 644              	.LVL38:
 830:stm32f4xx_dma.c ****   uint32_t tmp = 0;
 831:stm32f4xx_dma.c ****   
 832:stm32f4xx_dma.c ****   /* Check the parameters */
 833:stm32f4xx_dma.c ****   assert_param(IS_DMA_ALL_PERIPH(DMAy_Streamx));
 834:stm32f4xx_dma.c **** 
 835:stm32f4xx_dma.c ****   /* Get the current memory target */
 836:stm32f4xx_dma.c ****   if ((DMAy_Streamx->CR & DMA_SxCR_CT) != 0)
 645              		.loc 1 836 0
 646 0000 0068     		ldr	r0, [r0, #0]	@ D.6076, DMAy_Streamx_3(D)->CR
 647              	.LVL39:
 837:stm32f4xx_dma.c ****   {
 838:stm32f4xx_dma.c ****     /* Current memory buffer used is Memory 1 */
 839:stm32f4xx_dma.c ****     tmp = 1;
 840:stm32f4xx_dma.c ****   }  
 841:stm32f4xx_dma.c ****   else
 842:stm32f4xx_dma.c ****   {
 843:stm32f4xx_dma.c ****     /* Current memory buffer used is Memory 0 */
 844:stm32f4xx_dma.c ****     tmp = 0;    
 845:stm32f4xx_dma.c ****   }
 846:stm32f4xx_dma.c ****   return tmp;
 847:stm32f4xx_dma.c **** }
 648              		.loc 1 847 0
 649 0002 C0F3C040 		ubfx	r0, r0, #19, #1	@, D.6076,,
 650              	.LVL40:
 651 0006 7047     		bx	lr	@
 652              		.cfi_endproc
 653              	.LFE121:
 654              		.size	DMA_GetCurrentMemoryTarget, .-DMA_GetCurrentMemoryTarget
 655              		.section	.text.DMA_GetCmdStatus,"ax",%progbits
 656              		.align	1
 657              		.global	DMA_GetCmdStatus
 658              		.thumb
 659              		.thumb_func
 660              		.type	DMA_GetCmdStatus, %function
 661              	DMA_GetCmdStatus:
 662              	.LFB122:
 848:stm32f4xx_dma.c **** /**
 849:stm32f4xx_dma.c ****   * @}
 850:stm32f4xx_dma.c ****   */
 851:stm32f4xx_dma.c **** 
 852:stm32f4xx_dma.c **** /** @defgroup DMA_Group4 Interrupts and flags management functions
 853:stm32f4xx_dma.c ****  *  @brief   Interrupts and flags management functions 
 854:stm32f4xx_dma.c ****  *
 855:stm32f4xx_dma.c **** @verbatim   
 856:stm32f4xx_dma.c ****  ===============================================================================
 857:stm32f4xx_dma.c ****               ##### Interrupts and flags management functions #####
 858:stm32f4xx_dma.c ****  ===============================================================================  
 859:stm32f4xx_dma.c ****     [..]
ARM GAS  /tmp/ccXZiPD3.s 			page 28


 860:stm32f4xx_dma.c ****     This subsection provides functions allowing to
 861:stm32f4xx_dma.c ****       (+) Check the DMA enable status
 862:stm32f4xx_dma.c ****       (+) Check the FIFO status 
 863:stm32f4xx_dma.c ****       (+) Configure the DMA Interrupts sources and check or clear the flags or 
 864:stm32f4xx_dma.c ****           pending bits status.  
 865:stm32f4xx_dma.c ****            
 866:stm32f4xx_dma.c ****     [..]
 867:stm32f4xx_dma.c ****       (#) DMA Enable status:
 868:stm32f4xx_dma.c ****           After configuring the DMA Stream (DMA_Init() function) and enabling 
 869:stm32f4xx_dma.c ****           the stream, it is recommended to check (or wait until) the DMA Stream 
 870:stm32f4xx_dma.c ****           is effectively enabled. A Stream may remain disabled if a configuration 
 871:stm32f4xx_dma.c ****           parameter is wrong. After disabling a DMA Stream, it is also recommended 
 872:stm32f4xx_dma.c ****           to check (or wait until) the DMA Stream is effectively disabled. 
 873:stm32f4xx_dma.c ****           If a Stream is disabled while a data transfer is ongoing, the current 
 874:stm32f4xx_dma.c ****           data will be transferred and the Stream will be effectively disabled 
 875:stm32f4xx_dma.c ****           only after this data transfer completion.
 876:stm32f4xx_dma.c ****           To monitor this state it is possible to use the following function:
 877:stm32f4xx_dma.c ****         (++) FunctionalState DMA_GetCmdStatus(DMA_Stream_TypeDef* DMAy_Streamx); 
 878:stm32f4xx_dma.c ****  
 879:stm32f4xx_dma.c ****       (#) FIFO Status:
 880:stm32f4xx_dma.c ****           It is possible to monitor the FIFO status when a transfer is ongoing 
 881:stm32f4xx_dma.c ****           using the following function:
 882:stm32f4xx_dma.c ****         (++) uint32_t DMA_GetFIFOStatus(DMA_Stream_TypeDef* DMAy_Streamx); 
 883:stm32f4xx_dma.c ****  
 884:stm32f4xx_dma.c ****       (#) DMA Interrupts and Flags:
 885:stm32f4xx_dma.c ****           The user should identify which mode will be used in his application 
 886:stm32f4xx_dma.c ****           to manage the DMA controller events: Polling mode or Interrupt mode. 
 887:stm32f4xx_dma.c ****     
 888:stm32f4xx_dma.c ****     *** Polling Mode ***
 889:stm32f4xx_dma.c ****     ====================
 890:stm32f4xx_dma.c ****     [..]
 891:stm32f4xx_dma.c ****     Each DMA stream can be managed through 4 event Flags:
 892:stm32f4xx_dma.c ****     (x : DMA Stream number )
 893:stm32f4xx_dma.c ****       (#) DMA_FLAG_FEIFx  : to indicate that a FIFO Mode Transfer Error event occurred.
 894:stm32f4xx_dma.c ****       (#) DMA_FLAG_DMEIFx : to indicate that a Direct Mode Transfer Error event occurred.
 895:stm32f4xx_dma.c ****       (#) DMA_FLAG_TEIFx  : to indicate that a Transfer Error event occurred.
 896:stm32f4xx_dma.c ****       (#) DMA_FLAG_HTIFx  : to indicate that a Half-Transfer Complete event occurred.
 897:stm32f4xx_dma.c ****       (#) DMA_FLAG_TCIFx  : to indicate that a Transfer Complete event occurred .       
 898:stm32f4xx_dma.c ****     [..]
 899:stm32f4xx_dma.c ****     In this Mode it is advised to use the following functions:
 900:stm32f4xx_dma.c ****       (+) FlagStatus DMA_GetFlagStatus(DMA_Stream_TypeDef* DMAy_Streamx, uint32_t DMA_FLAG);
 901:stm32f4xx_dma.c ****       (+) void DMA_ClearFlag(DMA_Stream_TypeDef* DMAy_Streamx, uint32_t DMA_FLAG);
 902:stm32f4xx_dma.c **** 
 903:stm32f4xx_dma.c ****     *** Interrupt Mode ***
 904:stm32f4xx_dma.c ****     ======================
 905:stm32f4xx_dma.c ****     [..]
 906:stm32f4xx_dma.c ****     Each DMA Stream can be managed through 4 Interrupts:
 907:stm32f4xx_dma.c **** 
 908:stm32f4xx_dma.c ****     *** Interrupt Source ***
 909:stm32f4xx_dma.c ****     ========================
 910:stm32f4xx_dma.c ****     [..]
 911:stm32f4xx_dma.c ****       (#) DMA_IT_FEIFx  : specifies the interrupt source for the  FIFO Mode Transfer Error event.
 912:stm32f4xx_dma.c ****       (#) DMA_IT_DMEIFx : specifies the interrupt source for the Direct Mode Transfer Error event.
 913:stm32f4xx_dma.c ****       (#) DMA_IT_TEIFx  : specifies the interrupt source for the Transfer Error event.
 914:stm32f4xx_dma.c ****       (#) DMA_IT_HTIFx  : specifies the interrupt source for the Half-Transfer Complete event.
 915:stm32f4xx_dma.c ****       (#) DMA_IT_TCIFx  : specifies the interrupt source for the a Transfer Complete event. 
 916:stm32f4xx_dma.c ****     [..]
ARM GAS  /tmp/ccXZiPD3.s 			page 29


 917:stm32f4xx_dma.c ****     In this Mode it is advised to use the following functions:
 918:stm32f4xx_dma.c ****       (+) void DMA_ITConfig(DMA_Stream_TypeDef* DMAy_Streamx, uint32_t DMA_IT, FunctionalState NewS
 919:stm32f4xx_dma.c ****       (+) ITStatus DMA_GetITStatus(DMA_Stream_TypeDef* DMAy_Streamx, uint32_t DMA_IT);
 920:stm32f4xx_dma.c ****       (+) void DMA_ClearITPendingBit(DMA_Stream_TypeDef* DMAy_Streamx, uint32_t DMA_IT);
 921:stm32f4xx_dma.c **** 
 922:stm32f4xx_dma.c **** @endverbatim
 923:stm32f4xx_dma.c ****   * @{
 924:stm32f4xx_dma.c ****   */
 925:stm32f4xx_dma.c **** 
 926:stm32f4xx_dma.c **** /**
 927:stm32f4xx_dma.c ****   * @brief  Returns the status of EN bit for the specified DMAy Streamx.
 928:stm32f4xx_dma.c ****   * @param  DMAy_Streamx: where y can be 1 or 2 to select the DMA and x can be 0
 929:stm32f4xx_dma.c ****   *          to 7 to select the DMA Stream.
 930:stm32f4xx_dma.c ****   *   
 931:stm32f4xx_dma.c ****   * @note    After configuring the DMA Stream (DMA_Init() function) and enabling
 932:stm32f4xx_dma.c ****   *          the stream, it is recommended to check (or wait until) the DMA Stream
 933:stm32f4xx_dma.c ****   *          is effectively enabled. A Stream may remain disabled if a configuration
 934:stm32f4xx_dma.c ****   *          parameter is wrong.
 935:stm32f4xx_dma.c ****   *          After disabling a DMA Stream, it is also recommended to check (or wait 
 936:stm32f4xx_dma.c ****   *          until) the DMA Stream is effectively disabled. If a Stream is disabled
 937:stm32f4xx_dma.c ****   *          while a data transfer is ongoing, the current data will be transferred
 938:stm32f4xx_dma.c ****   *          and the Stream will be effectively disabled only after the transfer
 939:stm32f4xx_dma.c ****   *          of this single data is finished.  
 940:stm32f4xx_dma.c ****   *      
 941:stm32f4xx_dma.c ****   * @retval Current state of the DMAy Streamx (ENABLE or DISABLE).
 942:stm32f4xx_dma.c ****   */
 943:stm32f4xx_dma.c **** FunctionalState DMA_GetCmdStatus(DMA_Stream_TypeDef* DMAy_Streamx)
 944:stm32f4xx_dma.c **** {
 663              		.loc 1 944 0
 664              		.cfi_startproc
 665              		@ args = 0, pretend = 0, frame = 0
 666              		@ frame_needed = 0, uses_anonymous_args = 0
 667              		@ link register save eliminated.
 668              	.LVL41:
 945:stm32f4xx_dma.c ****   FunctionalState state = DISABLE;
 946:stm32f4xx_dma.c **** 
 947:stm32f4xx_dma.c ****   /* Check the parameters */
 948:stm32f4xx_dma.c ****   assert_param(IS_DMA_ALL_PERIPH(DMAy_Streamx));
 949:stm32f4xx_dma.c **** 
 950:stm32f4xx_dma.c ****   if ((DMAy_Streamx->CR & (uint32_t)DMA_SxCR_EN) != 0)
 669              		.loc 1 950 0
 670 0000 0068     		ldr	r0, [r0, #0]	@ D.6069, DMAy_Streamx_3(D)->CR
 671              	.LVL42:
 951:stm32f4xx_dma.c ****   {
 952:stm32f4xx_dma.c ****     /* The selected DMAy Streamx EN bit is set (DMA is still transferring) */
 953:stm32f4xx_dma.c ****     state = ENABLE;
 954:stm32f4xx_dma.c ****   }
 955:stm32f4xx_dma.c ****   else
 956:stm32f4xx_dma.c ****   {
 957:stm32f4xx_dma.c ****     /* The selected DMAy Streamx EN bit is cleared (DMA is disabled and 
 958:stm32f4xx_dma.c ****         all transfers are complete) */
 959:stm32f4xx_dma.c ****     state = DISABLE;
 960:stm32f4xx_dma.c ****   }
 961:stm32f4xx_dma.c ****   return state;
 962:stm32f4xx_dma.c **** }
 672              		.loc 1 962 0
 673 0002 00F00100 		and	r0, r0, #1	@, D.6069,
ARM GAS  /tmp/ccXZiPD3.s 			page 30


 674              	.LVL43:
 675 0006 7047     		bx	lr	@
 676              		.cfi_endproc
 677              	.LFE122:
 678              		.size	DMA_GetCmdStatus, .-DMA_GetCmdStatus
 679              		.section	.text.DMA_GetFIFOStatus,"ax",%progbits
 680              		.align	1
 681              		.global	DMA_GetFIFOStatus
 682              		.thumb
 683              		.thumb_func
 684              		.type	DMA_GetFIFOStatus, %function
 685              	DMA_GetFIFOStatus:
 686              	.LFB123:
 963:stm32f4xx_dma.c **** 
 964:stm32f4xx_dma.c **** /**
 965:stm32f4xx_dma.c ****   * @brief  Returns the current DMAy Streamx FIFO filled level.
 966:stm32f4xx_dma.c ****   * @param  DMAy_Streamx: where y can be 1 or 2 to select the DMA and x can be 0 
 967:stm32f4xx_dma.c ****   *         to 7 to select the DMA Stream.
 968:stm32f4xx_dma.c ****   * @retval The FIFO filling state.
 969:stm32f4xx_dma.c ****   *           - DMA_FIFOStatus_Less1QuarterFull: when FIFO is less than 1 quarter-full 
 970:stm32f4xx_dma.c ****   *                                               and not empty.
 971:stm32f4xx_dma.c ****   *           - DMA_FIFOStatus_1QuarterFull: if more than 1 quarter-full.
 972:stm32f4xx_dma.c ****   *           - DMA_FIFOStatus_HalfFull: if more than 1 half-full.
 973:stm32f4xx_dma.c ****   *           - DMA_FIFOStatus_3QuartersFull: if more than 3 quarters-full.
 974:stm32f4xx_dma.c ****   *           - DMA_FIFOStatus_Empty: when FIFO is empty
 975:stm32f4xx_dma.c ****   *           - DMA_FIFOStatus_Full: when FIFO is full
 976:stm32f4xx_dma.c ****   */
 977:stm32f4xx_dma.c **** uint32_t DMA_GetFIFOStatus(DMA_Stream_TypeDef* DMAy_Streamx)
 978:stm32f4xx_dma.c **** {
 687              		.loc 1 978 0
 688              		.cfi_startproc
 689              		@ args = 0, pretend = 0, frame = 0
 690              		@ frame_needed = 0, uses_anonymous_args = 0
 691              		@ link register save eliminated.
 692              	.LVL44:
 979:stm32f4xx_dma.c ****   uint32_t tmpreg = 0;
 980:stm32f4xx_dma.c ****  
 981:stm32f4xx_dma.c ****   /* Check the parameters */
 982:stm32f4xx_dma.c ****   assert_param(IS_DMA_ALL_PERIPH(DMAy_Streamx));
 983:stm32f4xx_dma.c ****   
 984:stm32f4xx_dma.c ****   /* Get the FIFO level bits */
 985:stm32f4xx_dma.c ****   tmpreg = (uint32_t)((DMAy_Streamx->FCR & DMA_SxFCR_FS));
 693              		.loc 1 985 0
 694 0000 4069     		ldr	r0, [r0, #20]	@ D.6066, DMAy_Streamx_2(D)->FCR
 695              	.LVL45:
 986:stm32f4xx_dma.c ****   
 987:stm32f4xx_dma.c ****   return tmpreg;
 988:stm32f4xx_dma.c **** }
 696              		.loc 1 988 0
 697 0002 00F03800 		and	r0, r0, #56	@, D.6066,
 698              	.LVL46:
 699 0006 7047     		bx	lr	@
 700              		.cfi_endproc
 701              	.LFE123:
 702              		.size	DMA_GetFIFOStatus, .-DMA_GetFIFOStatus
 703              		.section	.text.DMA_GetFlagStatus,"ax",%progbits
 704              		.align	1
ARM GAS  /tmp/ccXZiPD3.s 			page 31


 705              		.global	DMA_GetFlagStatus
 706              		.thumb
 707              		.thumb_func
 708              		.type	DMA_GetFlagStatus, %function
 709              	DMA_GetFlagStatus:
 710              	.LFB124:
 989:stm32f4xx_dma.c **** 
 990:stm32f4xx_dma.c **** /**
 991:stm32f4xx_dma.c ****   * @brief  Checks whether the specified DMAy Streamx flag is set or not.
 992:stm32f4xx_dma.c ****   * @param  DMAy_Streamx: where y can be 1 or 2 to select the DMA and x can be 0
 993:stm32f4xx_dma.c ****   *          to 7 to select the DMA Stream.
 994:stm32f4xx_dma.c ****   * @param  DMA_FLAG: specifies the flag to check.
 995:stm32f4xx_dma.c ****   *          This parameter can be one of the following values:
 996:stm32f4xx_dma.c ****   *            @arg DMA_FLAG_TCIFx:  Streamx transfer complete flag
 997:stm32f4xx_dma.c ****   *            @arg DMA_FLAG_HTIFx:  Streamx half transfer complete flag
 998:stm32f4xx_dma.c ****   *            @arg DMA_FLAG_TEIFx:  Streamx transfer error flag
 999:stm32f4xx_dma.c ****   *            @arg DMA_FLAG_DMEIFx: Streamx direct mode error flag
1000:stm32f4xx_dma.c ****   *            @arg DMA_FLAG_FEIFx:  Streamx FIFO error flag
1001:stm32f4xx_dma.c ****   *         Where x can be 0 to 7 to select the DMA Stream.
1002:stm32f4xx_dma.c ****   * @retval The new state of DMA_FLAG (SET or RESET).
1003:stm32f4xx_dma.c ****   */
1004:stm32f4xx_dma.c **** FlagStatus DMA_GetFlagStatus(DMA_Stream_TypeDef* DMAy_Streamx, uint32_t DMA_FLAG)
1005:stm32f4xx_dma.c **** {
 711              		.loc 1 1005 0
 712              		.cfi_startproc
 713              		@ args = 0, pretend = 0, frame = 0
 714              		@ frame_needed = 0, uses_anonymous_args = 0
 715              	.LVL47:
1006:stm32f4xx_dma.c ****   FlagStatus bitstatus = RESET;
1007:stm32f4xx_dma.c ****   DMA_TypeDef* DMAy;
1008:stm32f4xx_dma.c ****   uint32_t tmpreg = 0;
1009:stm32f4xx_dma.c **** 
1010:stm32f4xx_dma.c ****   /* Check the parameters */
1011:stm32f4xx_dma.c ****   assert_param(IS_DMA_ALL_PERIPH(DMAy_Streamx));
1012:stm32f4xx_dma.c ****   assert_param(IS_DMA_GET_FLAG(DMA_FLAG));
1013:stm32f4xx_dma.c **** 
1014:stm32f4xx_dma.c ****   /* Determine the DMA to which belongs the stream */
1015:stm32f4xx_dma.c ****   if (DMAy_Streamx < DMA2_Stream0)
1016:stm32f4xx_dma.c ****   {
1017:stm32f4xx_dma.c ****     /* DMAy_Streamx belongs to DMA1 */
1018:stm32f4xx_dma.c ****     DMAy = DMA1; 
 716              		.loc 1 1018 0
 717 0000 0A4B     		ldr	r3, .L66	@ tmp157,
 718 0002 0B4A     		ldr	r2, .L66+4	@ tmp156,
1005:stm32f4xx_dma.c **** {
 719              		.loc 1 1005 0
 720 0004 10B5     		push	{r4, lr}	@
 721              	.LCFI1:
 722              		.cfi_def_cfa_offset 8
 723              		.cfi_offset 4, -8
 724              		.cfi_offset 14, -4
 725              		.loc 1 1018 0
 726 0006 0B4C     		ldr	r4, .L66+8	@ tmp148,
 727 0008 A042     		cmp	r0, r4	@ DMAy_Streamx, tmp148
 728 000a 8CBF     		ite	hi	@
 729 000c 1046     		movhi	r0, r2	@, DMAy, tmp156
 730 000e 1846     		movls	r0, r3	@, DMAy, tmp157
ARM GAS  /tmp/ccXZiPD3.s 			page 32


 731              	.LVL48:
1019:stm32f4xx_dma.c ****   } 
1020:stm32f4xx_dma.c ****   else 
1021:stm32f4xx_dma.c ****   {
1022:stm32f4xx_dma.c ****     /* DMAy_Streamx belongs to DMA2 */
1023:stm32f4xx_dma.c ****     DMAy = DMA2; 
1024:stm32f4xx_dma.c ****   }
1025:stm32f4xx_dma.c **** 
1026:stm32f4xx_dma.c ****   /* Check if the flag is in HISR or LISR */
1027:stm32f4xx_dma.c ****   if ((DMA_FLAG & HIGH_ISR_MASK) != (uint32_t)RESET)
 732              		.loc 1 1027 0
 733 0010 8B00     		lsls	r3, r1, #2	@, DMA_FLAG,
1028:stm32f4xx_dma.c ****   {
1029:stm32f4xx_dma.c ****     /* Get DMAy HISR register value */
1030:stm32f4xx_dma.c ****     tmpreg = DMAy->HISR;
 734              		.loc 1 1030 0
 735 0012 4CBF     		ite	mi
 736 0014 4368     		ldrmi	r3, [r0, #4]	@ tmpreg, DMAy_2->HISR
 737              	.LVL49:
1031:stm32f4xx_dma.c ****   }
1032:stm32f4xx_dma.c ****   else
1033:stm32f4xx_dma.c ****   {
1034:stm32f4xx_dma.c ****     /* Get DMAy LISR register value */
1035:stm32f4xx_dma.c ****     tmpreg = DMAy->LISR;
 738              		.loc 1 1035 0
 739 0016 0368     		ldrpl	r3, [r0, #0]	@ tmpreg, DMAy_2->LISR
 740              	.LVL50:
1036:stm32f4xx_dma.c ****   }   
1037:stm32f4xx_dma.c ****  
1038:stm32f4xx_dma.c ****   /* Mask the reserved bits */
1039:stm32f4xx_dma.c ****   tmpreg &= (uint32_t)RESERVED_MASK;
 741              		.loc 1 1039 0
 742 0018 21F0F021 		bic	r1, r1, #-268374016	@ tmp152, DMA_FLAG,
 743              	.LVL51:
 744 001c 21F08212 		bic	r2, r1, #8519810	@ tmp151, tmp152,
1040:stm32f4xx_dma.c **** 
1041:stm32f4xx_dma.c ****   /* Check the status of the specified DMA flag */
1042:stm32f4xx_dma.c ****   if ((tmpreg & DMA_FLAG) != (uint32_t)RESET)
 745              		.loc 1 1042 0
 746 0020 1A42     		tst	r2, r3	@ tmp151, tmpreg
1043:stm32f4xx_dma.c ****   {
1044:stm32f4xx_dma.c ****     /* DMA_FLAG is set */
1045:stm32f4xx_dma.c ****     bitstatus = SET;
1046:stm32f4xx_dma.c ****   }
1047:stm32f4xx_dma.c ****   else
1048:stm32f4xx_dma.c ****   {
1049:stm32f4xx_dma.c ****     /* DMA_FLAG is reset */
1050:stm32f4xx_dma.c ****     bitstatus = RESET;
1051:stm32f4xx_dma.c ****   }
1052:stm32f4xx_dma.c **** 
1053:stm32f4xx_dma.c ****   /* Return the DMA_FLAG status */
1054:stm32f4xx_dma.c ****   return  bitstatus;
1055:stm32f4xx_dma.c **** }
 747              		.loc 1 1055 0
 748 0022 0CBF     		ite	eq	@
 749 0024 0020     		moveq	r0, #0	@,
 750 0026 0120     		movne	r0, #1	@,
ARM GAS  /tmp/ccXZiPD3.s 			page 33


 751              	.LVL52:
 752 0028 10BD     		pop	{r4, pc}	@
 753              	.L67:
 754 002a 00BF     		.align	2
 755              	.L66:
 756 002c 00600240 		.word	1073897472
 757 0030 00640240 		.word	1073898496
 758 0034 0F640240 		.word	1073898511
 759              		.cfi_endproc
 760              	.LFE124:
 761              		.size	DMA_GetFlagStatus, .-DMA_GetFlagStatus
 762              		.section	.text.DMA_ClearFlag,"ax",%progbits
 763              		.align	1
 764              		.global	DMA_ClearFlag
 765              		.thumb
 766              		.thumb_func
 767              		.type	DMA_ClearFlag, %function
 768              	DMA_ClearFlag:
 769              	.LFB125:
1056:stm32f4xx_dma.c **** 
1057:stm32f4xx_dma.c **** /**
1058:stm32f4xx_dma.c ****   * @brief  Clears the DMAy Streamx's pending flags.
1059:stm32f4xx_dma.c ****   * @param  DMAy_Streamx: where y can be 1 or 2 to select the DMA and x can be 0
1060:stm32f4xx_dma.c ****   *          to 7 to select the DMA Stream.
1061:stm32f4xx_dma.c ****   * @param  DMA_FLAG: specifies the flag to clear.
1062:stm32f4xx_dma.c ****   *          This parameter can be any combination of the following values:
1063:stm32f4xx_dma.c ****   *            @arg DMA_FLAG_TCIFx:  Streamx transfer complete flag
1064:stm32f4xx_dma.c ****   *            @arg DMA_FLAG_HTIFx:  Streamx half transfer complete flag
1065:stm32f4xx_dma.c ****   *            @arg DMA_FLAG_TEIFx:  Streamx transfer error flag
1066:stm32f4xx_dma.c ****   *            @arg DMA_FLAG_DMEIFx: Streamx direct mode error flag
1067:stm32f4xx_dma.c ****   *            @arg DMA_FLAG_FEIFx:  Streamx FIFO error flag
1068:stm32f4xx_dma.c ****   *         Where x can be 0 to 7 to select the DMA Stream.   
1069:stm32f4xx_dma.c ****   * @retval None
1070:stm32f4xx_dma.c ****   */
1071:stm32f4xx_dma.c **** void DMA_ClearFlag(DMA_Stream_TypeDef* DMAy_Streamx, uint32_t DMA_FLAG)
1072:stm32f4xx_dma.c **** {
 770              		.loc 1 1072 0
 771              		.cfi_startproc
 772              		@ args = 0, pretend = 0, frame = 0
 773              		@ frame_needed = 0, uses_anonymous_args = 0
 774              	.LVL53:
 775 0000 10B5     		push	{r4, lr}	@
 776              	.LCFI2:
 777              		.cfi_def_cfa_offset 8
 778              		.cfi_offset 4, -8
 779              		.cfi_offset 14, -4
1073:stm32f4xx_dma.c ****   DMA_TypeDef* DMAy;
1074:stm32f4xx_dma.c **** 
1075:stm32f4xx_dma.c ****   /* Check the parameters */
1076:stm32f4xx_dma.c ****   assert_param(IS_DMA_ALL_PERIPH(DMAy_Streamx));
1077:stm32f4xx_dma.c ****   assert_param(IS_DMA_CLEAR_FLAG(DMA_FLAG));
1078:stm32f4xx_dma.c **** 
1079:stm32f4xx_dma.c ****   /* Determine the DMA to which belongs the stream */
1080:stm32f4xx_dma.c ****   if (DMAy_Streamx < DMA2_Stream0)
1081:stm32f4xx_dma.c ****   {
1082:stm32f4xx_dma.c ****     /* DMAy_Streamx belongs to DMA1 */
1083:stm32f4xx_dma.c ****     DMAy = DMA1; 
ARM GAS  /tmp/ccXZiPD3.s 			page 34


 780              		.loc 1 1083 0
 781 0002 084B     		ldr	r3, .L73	@ tmp146,
 782 0004 084A     		ldr	r2, .L73+4	@ tmp145,
 783 0006 094C     		ldr	r4, .L73+8	@ tmp140,
 784 0008 A042     		cmp	r0, r4	@ DMAy_Streamx, tmp140
 785 000a 8CBF     		ite	hi	@
 786 000c 1046     		movhi	r0, r2	@, DMAy, tmp145
 787 000e 1846     		movls	r0, r3	@, DMAy, tmp146
 788              	.LVL54:
1084:stm32f4xx_dma.c ****   } 
1085:stm32f4xx_dma.c ****   else 
1086:stm32f4xx_dma.c ****   {
1087:stm32f4xx_dma.c ****     /* DMAy_Streamx belongs to DMA2 */
1088:stm32f4xx_dma.c ****     DMAy = DMA2; 
1089:stm32f4xx_dma.c ****   }
1090:stm32f4xx_dma.c **** 
1091:stm32f4xx_dma.c ****   /* Check if LIFCR or HIFCR register is targeted */
1092:stm32f4xx_dma.c ****   if ((DMA_FLAG & HIGH_ISR_MASK) != (uint32_t)RESET)
 789              		.loc 1 1092 0
 790 0010 11F0005F 		tst	r1, #536870912	@ DMA_FLAG,
 791 0014 21F0F021 		bic	r1, r1, #-268374016	@ tmp144, DMA_FLAG,
 792              	.LVL55:
1093:stm32f4xx_dma.c ****   {
1094:stm32f4xx_dma.c ****     /* Set DMAy HIFCR register clear flag bits */
1095:stm32f4xx_dma.c ****     DMAy->HIFCR = (uint32_t)(DMA_FLAG & RESERVED_MASK);
 793              		.loc 1 1095 0
 794 0018 21F08213 		bic	r3, r1, #8519810	@ D.6051, tmp144,
 795 001c 14BF     		ite	ne
 796 001e C360     		strne	r3, [r0, #12]	@ D.6051, DMAy_1->HIFCR
1096:stm32f4xx_dma.c ****   }
1097:stm32f4xx_dma.c ****   else 
1098:stm32f4xx_dma.c ****   {
1099:stm32f4xx_dma.c ****     /* Set DMAy LIFCR register clear flag bits */
1100:stm32f4xx_dma.c ****     DMAy->LIFCR = (uint32_t)(DMA_FLAG & RESERVED_MASK);
 797              		.loc 1 1100 0
 798 0020 8360     		streq	r3, [r0, #8]	@ D.6051, DMAy_1->LIFCR
 799 0022 10BD     		pop	{r4, pc}	@
 800              	.L74:
 801              		.align	2
 802              	.L73:
 803 0024 00600240 		.word	1073897472
 804 0028 00640240 		.word	1073898496
 805 002c 0F640240 		.word	1073898511
 806              		.cfi_endproc
 807              	.LFE125:
 808              		.size	DMA_ClearFlag, .-DMA_ClearFlag
 809              		.section	.text.DMA_ITConfig,"ax",%progbits
 810              		.align	1
 811              		.global	DMA_ITConfig
 812              		.thumb
 813              		.thumb_func
 814              		.type	DMA_ITConfig, %function
 815              	DMA_ITConfig:
 816              	.LFB126:
1101:stm32f4xx_dma.c ****   }    
1102:stm32f4xx_dma.c **** }
1103:stm32f4xx_dma.c **** 
ARM GAS  /tmp/ccXZiPD3.s 			page 35


1104:stm32f4xx_dma.c **** /**
1105:stm32f4xx_dma.c ****   * @brief  Enables or disables the specified DMAy Streamx interrupts.
1106:stm32f4xx_dma.c ****   * @param  DMAy_Streamx: where y can be 1 or 2 to select the DMA and x can be 0
1107:stm32f4xx_dma.c ****   *          to 7 to select the DMA Stream.
1108:stm32f4xx_dma.c ****   * @param DMA_IT: specifies the DMA interrupt sources to be enabled or disabled. 
1109:stm32f4xx_dma.c ****   *          This parameter can be any combination of the following values:
1110:stm32f4xx_dma.c ****   *            @arg DMA_IT_TC:  Transfer complete interrupt mask
1111:stm32f4xx_dma.c ****   *            @arg DMA_IT_HT:  Half transfer complete interrupt mask
1112:stm32f4xx_dma.c ****   *            @arg DMA_IT_TE:  Transfer error interrupt mask
1113:stm32f4xx_dma.c ****   *            @arg DMA_IT_FE:  FIFO error interrupt mask
1114:stm32f4xx_dma.c ****   * @param  NewState: new state of the specified DMA interrupts.
1115:stm32f4xx_dma.c ****   *          This parameter can be: ENABLE or DISABLE.
1116:stm32f4xx_dma.c ****   * @retval None
1117:stm32f4xx_dma.c ****   */
1118:stm32f4xx_dma.c **** void DMA_ITConfig(DMA_Stream_TypeDef* DMAy_Streamx, uint32_t DMA_IT, FunctionalState NewState)
1119:stm32f4xx_dma.c **** {
 817              		.loc 1 1119 0
 818              		.cfi_startproc
 819              		@ args = 0, pretend = 0, frame = 0
 820              		@ frame_needed = 0, uses_anonymous_args = 0
 821              		@ link register save eliminated.
 822              	.LVL56:
1120:stm32f4xx_dma.c ****   /* Check the parameters */
1121:stm32f4xx_dma.c ****   assert_param(IS_DMA_ALL_PERIPH(DMAy_Streamx));
1122:stm32f4xx_dma.c ****   assert_param(IS_DMA_CONFIG_IT(DMA_IT));
1123:stm32f4xx_dma.c ****   assert_param(IS_FUNCTIONAL_STATE(NewState));
1124:stm32f4xx_dma.c **** 
1125:stm32f4xx_dma.c ****   /* Check if the DMA_IT parameter contains a FIFO interrupt */
1126:stm32f4xx_dma.c ****   if ((DMA_IT & DMA_IT_FE) != 0)
 823              		.loc 1 1126 0
 824 0000 0B06     		lsls	r3, r1, #24	@, DMA_IT,
 825 0002 11D5     		bpl	.L76	@,
1127:stm32f4xx_dma.c ****   {
1128:stm32f4xx_dma.c ****     if (NewState != DISABLE)
1129:stm32f4xx_dma.c ****     {
1130:stm32f4xx_dma.c ****       /* Enable the selected DMA FIFO interrupts */
1131:stm32f4xx_dma.c ****       DMAy_Streamx->FCR |= (uint32_t)DMA_IT_FE;
 826              		.loc 1 1131 0
 827 0004 4369     		ldr	r3, [r0, #20]	@ D.6029,
1128:stm32f4xx_dma.c ****     if (NewState != DISABLE)
 828              		.loc 1 1128 0
 829 0006 4AB1     		cbz	r2, .L77	@ NewState,
 830              		.loc 1 1131 0
 831 0008 43F08003 		orr	r3, r3, #128	@ D.6030, D.6029,
1132:stm32f4xx_dma.c ****     }    
1133:stm32f4xx_dma.c ****     else 
1134:stm32f4xx_dma.c ****     {
1135:stm32f4xx_dma.c ****       /* Disable the selected DMA FIFO interrupts */
1136:stm32f4xx_dma.c ****       DMAy_Streamx->FCR &= ~(uint32_t)DMA_IT_FE;  
1137:stm32f4xx_dma.c ****     }
1138:stm32f4xx_dma.c ****   }
1139:stm32f4xx_dma.c **** 
1140:stm32f4xx_dma.c ****   /* Check if the DMA_IT parameter contains a Transfer interrupt */
1141:stm32f4xx_dma.c ****   if (DMA_IT != DMA_IT_FE)
 832              		.loc 1 1141 0
 833 000c 8029     		cmp	r1, #128	@ DMA_IT,
1131:stm32f4xx_dma.c ****       DMAy_Streamx->FCR |= (uint32_t)DMA_IT_FE;
ARM GAS  /tmp/ccXZiPD3.s 			page 36


 834              		.loc 1 1131 0
 835 000e 4361     		str	r3, [r0, #20]	@ D.6030, DMAy_Streamx_4(D)->FCR
 836              		.loc 1 1141 0
 837 0010 14D0     		beq	.L75	@,
 838              	.L78:
1142:stm32f4xx_dma.c ****   {
1143:stm32f4xx_dma.c ****     if (NewState != DISABLE)
1144:stm32f4xx_dma.c ****     {
1145:stm32f4xx_dma.c ****       /* Enable the selected DMA transfer interrupts */
1146:stm32f4xx_dma.c ****       DMAy_Streamx->CR |= (uint32_t)(DMA_IT  & TRANSFER_IT_ENABLE_MASK);
 839              		.loc 1 1146 0
 840 0012 0368     		ldr	r3, [r0, #0]	@ D.6038, DMAy_Streamx_4(D)->CR
 841 0014 01F01E02 		and	r2, r1, #30	@ tmp150, DMA_IT,
 842              	.LVL57:
 843 0018 1A43     		orrs	r2, r2, r3	@, D.6040, tmp150, D.6038
 844 001a 0EE0     		b	.L85	@
 845              	.LVL58:
 846              	.L77:
1136:stm32f4xx_dma.c ****       DMAy_Streamx->FCR &= ~(uint32_t)DMA_IT_FE;  
 847              		.loc 1 1136 0
 848 001c 23F08002 		bic	r2, r3, #128	@ D.6033, D.6032,
 849              	.LVL59:
1141:stm32f4xx_dma.c ****   if (DMA_IT != DMA_IT_FE)
 850              		.loc 1 1141 0
 851 0020 8029     		cmp	r1, #128	@ DMA_IT,
1136:stm32f4xx_dma.c ****       DMAy_Streamx->FCR &= ~(uint32_t)DMA_IT_FE;  
 852              		.loc 1 1136 0
 853 0022 4261     		str	r2, [r0, #20]	@ D.6033, DMAy_Streamx_4(D)->FCR
1141:stm32f4xx_dma.c ****   if (DMA_IT != DMA_IT_FE)
 854              		.loc 1 1141 0
 855 0024 04D1     		bne	.L80	@,
 856 0026 7047     		bx	lr	@
 857              	.LVL60:
 858              	.L76:
 859 0028 8029     		cmp	r1, #128	@ DMA_IT,
 860 002a 07D0     		beq	.L75	@,
1143:stm32f4xx_dma.c ****     if (NewState != DISABLE)
 861              		.loc 1 1143 0
 862 002c 002A     		cmp	r2, #0	@ NewState
 863 002e F0D1     		bne	.L78	@
 864              	.LVL61:
 865              	.L80:
1147:stm32f4xx_dma.c ****     }
1148:stm32f4xx_dma.c ****     else
1149:stm32f4xx_dma.c ****     {
1150:stm32f4xx_dma.c ****       /* Disable the selected DMA transfer interrupts */
1151:stm32f4xx_dma.c ****       DMAy_Streamx->CR &= ~(uint32_t)(DMA_IT & TRANSFER_IT_ENABLE_MASK);
 866              		.loc 1 1151 0
 867 0030 0368     		ldr	r3, [r0, #0]	@ D.6042, DMAy_Streamx_4(D)->CR
 868 0032 01F01E01 		and	r1, r1, #30	@ tmp151, DMA_IT,
 869              	.LVL62:
 870 0036 23EA0102 		bic	r2, r3, r1	@ D.6044, D.6042, tmp151
 871              	.L85:
 872 003a 0260     		str	r2, [r0, #0]	@ D.6044,* DMAy_Streamx
 873              	.L75:
 874 003c 7047     		bx	lr	@
 875              		.cfi_endproc
ARM GAS  /tmp/ccXZiPD3.s 			page 37


 876              	.LFE126:
 877              		.size	DMA_ITConfig, .-DMA_ITConfig
 878              		.section	.text.DMA_GetITStatus,"ax",%progbits
 879              		.align	1
 880              		.global	DMA_GetITStatus
 881              		.thumb
 882              		.thumb_func
 883              		.type	DMA_GetITStatus, %function
 884              	DMA_GetITStatus:
 885              	.LFB127:
1152:stm32f4xx_dma.c ****     }    
1153:stm32f4xx_dma.c ****   }
1154:stm32f4xx_dma.c **** }
1155:stm32f4xx_dma.c **** 
1156:stm32f4xx_dma.c **** /**
1157:stm32f4xx_dma.c ****   * @brief  Checks whether the specified DMAy Streamx interrupt has occurred or not.
1158:stm32f4xx_dma.c ****   * @param  DMAy_Streamx: where y can be 1 or 2 to select the DMA and x can be 0
1159:stm32f4xx_dma.c ****   *          to 7 to select the DMA Stream.
1160:stm32f4xx_dma.c ****   * @param  DMA_IT: specifies the DMA interrupt source to check.
1161:stm32f4xx_dma.c ****   *          This parameter can be one of the following values:
1162:stm32f4xx_dma.c ****   *            @arg DMA_IT_TCIFx:  Streamx transfer complete interrupt
1163:stm32f4xx_dma.c ****   *            @arg DMA_IT_HTIFx:  Streamx half transfer complete interrupt
1164:stm32f4xx_dma.c ****   *            @arg DMA_IT_TEIFx:  Streamx transfer error interrupt
1165:stm32f4xx_dma.c ****   *            @arg DMA_IT_DMEIFx: Streamx direct mode error interrupt
1166:stm32f4xx_dma.c ****   *            @arg DMA_IT_FEIFx:  Streamx FIFO error interrupt
1167:stm32f4xx_dma.c ****   *         Where x can be 0 to 7 to select the DMA Stream.
1168:stm32f4xx_dma.c ****   * @retval The new state of DMA_IT (SET or RESET).
1169:stm32f4xx_dma.c ****   */
1170:stm32f4xx_dma.c **** ITStatus DMA_GetITStatus(DMA_Stream_TypeDef* DMAy_Streamx, uint32_t DMA_IT)
1171:stm32f4xx_dma.c **** {
 886              		.loc 1 1171 0
 887              		.cfi_startproc
 888              		@ args = 0, pretend = 0, frame = 0
 889              		@ frame_needed = 0, uses_anonymous_args = 0
 890              	.LVL63:
1172:stm32f4xx_dma.c ****   ITStatus bitstatus = RESET;
1173:stm32f4xx_dma.c ****   DMA_TypeDef* DMAy;
1174:stm32f4xx_dma.c ****   uint32_t tmpreg = 0, enablestatus = 0;
1175:stm32f4xx_dma.c **** 
1176:stm32f4xx_dma.c ****   /* Check the parameters */
1177:stm32f4xx_dma.c ****   assert_param(IS_DMA_ALL_PERIPH(DMAy_Streamx));
1178:stm32f4xx_dma.c ****   assert_param(IS_DMA_GET_IT(DMA_IT));
1179:stm32f4xx_dma.c ****  
1180:stm32f4xx_dma.c ****   /* Determine the DMA to which belongs the stream */
1181:stm32f4xx_dma.c ****   if (DMAy_Streamx < DMA2_Stream0)
1182:stm32f4xx_dma.c ****   {
1183:stm32f4xx_dma.c ****     /* DMAy_Streamx belongs to DMA1 */
1184:stm32f4xx_dma.c ****     DMAy = DMA1; 
 891              		.loc 1 1184 0
 892 0000 114B     		ldr	r3, .L95	@ tmp163,
 893 0002 124A     		ldr	r2, .L95+4	@ tmp162,
1171:stm32f4xx_dma.c **** {
 894              		.loc 1 1171 0
 895 0004 10B5     		push	{r4, lr}	@
 896              	.LCFI3:
 897              		.cfi_def_cfa_offset 8
 898              		.cfi_offset 4, -8
ARM GAS  /tmp/ccXZiPD3.s 			page 38


 899              		.cfi_offset 14, -4
 900              		.loc 1 1184 0
 901 0006 124C     		ldr	r4, .L95+8	@ tmp150,
 902 0008 A042     		cmp	r0, r4	@ DMAy_Streamx, tmp150
 903 000a 8CBF     		ite	hi	@
 904 000c 1446     		movhi	r4, r2	@, DMAy, tmp162
 905 000e 1C46     		movls	r4, r3	@, DMAy, tmp163
 906              	.LVL64:
1185:stm32f4xx_dma.c ****   } 
1186:stm32f4xx_dma.c ****   else 
1187:stm32f4xx_dma.c ****   {
1188:stm32f4xx_dma.c ****     /* DMAy_Streamx belongs to DMA2 */
1189:stm32f4xx_dma.c ****     DMAy = DMA2; 
1190:stm32f4xx_dma.c ****   }
1191:stm32f4xx_dma.c **** 
1192:stm32f4xx_dma.c ****   /* Check if the interrupt enable bit is in the CR or FCR register */
1193:stm32f4xx_dma.c ****   if ((DMA_IT & TRANSFER_IT_MASK) != (uint32_t)RESET)
 907              		.loc 1 1193 0
 908 0010 21F0F023 		bic	r3, r1, #-268374016	@ tmp152, DMA_IT,
 909 0014 23F0C313 		bic	r3, r3, #12779715	@ tmp151, tmp152,
 910 0018 2BB1     		cbz	r3, .L88	@ tmp151,
 911              	.LVL65:
1194:stm32f4xx_dma.c ****   {
1195:stm32f4xx_dma.c ****     /* Get the interrupt enable position mask in CR register */
1196:stm32f4xx_dma.c ****     tmpreg = (uint32_t)((DMA_IT >> 11) & TRANSFER_IT_ENABLE_MASK);   
1197:stm32f4xx_dma.c ****     
1198:stm32f4xx_dma.c ****     /* Check the enable bit in CR register */
1199:stm32f4xx_dma.c ****     enablestatus = (uint32_t)(DMAy_Streamx->CR & tmpreg);
 912              		.loc 1 1199 0
 913 001a 0068     		ldr	r0, [r0, #0]	@ D.6010, DMAy_Streamx_8(D)->CR
 914              	.LVL66:
1196:stm32f4xx_dma.c ****     tmpreg = (uint32_t)((DMA_IT >> 11) & TRANSFER_IT_ENABLE_MASK);   
 915              		.loc 1 1196 0
 916 001c 00F01E02 		and	r2, r0, #30	@ tmp153, D.6010,
 917              		.loc 1 1199 0
 918 0020 02EAD122 		and	r2, r2, r1, lsr #11	@, enablestatus, tmp153, DMA_IT,
 919              	.LVL67:
 920 0024 02E0     		b	.L89	@
 921              	.LVL68:
 922              	.L88:
1200:stm32f4xx_dma.c ****   }
1201:stm32f4xx_dma.c ****   else 
1202:stm32f4xx_dma.c ****   {
1203:stm32f4xx_dma.c ****     /* Check the enable bit in FCR register */
1204:stm32f4xx_dma.c ****     enablestatus = (uint32_t)(DMAy_Streamx->FCR & DMA_IT_FE); 
 923              		.loc 1 1204 0
 924 0026 4069     		ldr	r0, [r0, #20]	@ D.6012, DMAy_Streamx_8(D)->FCR
 925              	.LVL69:
 926 0028 00F08002 		and	r2, r0, #128	@ enablestatus, D.6012,
 927              	.LVL70:
 928              	.L89:
1205:stm32f4xx_dma.c ****   }
1206:stm32f4xx_dma.c ****  
1207:stm32f4xx_dma.c ****   /* Check if the interrupt pending flag is in LISR or HISR */
1208:stm32f4xx_dma.c ****   if ((DMA_IT & HIGH_ISR_MASK) != (uint32_t)RESET)
 929              		.loc 1 1208 0
 930 002c 8800     		lsls	r0, r1, #2	@, DMA_IT,
ARM GAS  /tmp/ccXZiPD3.s 			page 39


1209:stm32f4xx_dma.c ****   {
1210:stm32f4xx_dma.c ****     /* Get DMAy HISR register value */
1211:stm32f4xx_dma.c ****     tmpreg = DMAy->HISR ;
 931              		.loc 1 1211 0
 932 002e 4CBF     		ite	mi
 933 0030 6368     		ldrmi	r3, [r4, #4]	@ tmpreg, DMAy_2->HISR
 934              	.LVL71:
1212:stm32f4xx_dma.c ****   }
1213:stm32f4xx_dma.c ****   else
1214:stm32f4xx_dma.c ****   {
1215:stm32f4xx_dma.c ****     /* Get DMAy LISR register value */
1216:stm32f4xx_dma.c ****     tmpreg = DMAy->LISR ;
 935              		.loc 1 1216 0
 936 0032 2368     		ldrpl	r3, [r4, #0]	@ tmpreg, DMAy_2->LISR
 937              	.LVL72:
1217:stm32f4xx_dma.c ****   } 
1218:stm32f4xx_dma.c **** 
1219:stm32f4xx_dma.c ****   /* mask all reserved bits */
1220:stm32f4xx_dma.c ****   tmpreg &= (uint32_t)RESERVED_MASK;
 938              		.loc 1 1220 0
 939 0034 21F0F021 		bic	r1, r1, #-268374016	@ tmp157, DMA_IT,
 940              	.LVL73:
 941 0038 21F08210 		bic	r0, r1, #8519810	@ tmp156, tmp157,
1221:stm32f4xx_dma.c **** 
1222:stm32f4xx_dma.c ****   /* Check the status of the specified DMA interrupt */
1223:stm32f4xx_dma.c ****   if (((tmpreg & DMA_IT) != (uint32_t)RESET) && (enablestatus != (uint32_t)RESET))
 942              		.loc 1 1223 0
 943 003c 1840     		ands	r0, r0, r3	@ tmp158, tmp156, tmpreg
 944 003e 02D0     		beq	.L92	@,
1224:stm32f4xx_dma.c ****   {
1225:stm32f4xx_dma.c ****     /* DMA_IT is set */
1226:stm32f4xx_dma.c ****     bitstatus = SET;
 945              		.loc 1 1226 0 discriminator 1
 946 0040 101C     		adds	r0, r2, #0	@ bitstatus, enablestatus,
 947 0042 18BF     		it	ne
 948 0044 0120     		movne	r0, #1	@ bitstatus,
 949              	.L92:
 950              	.LVL74:
1227:stm32f4xx_dma.c ****   }
1228:stm32f4xx_dma.c ****   else
1229:stm32f4xx_dma.c ****   {
1230:stm32f4xx_dma.c ****     /* DMA_IT is reset */
1231:stm32f4xx_dma.c ****     bitstatus = RESET;
1232:stm32f4xx_dma.c ****   }
1233:stm32f4xx_dma.c **** 
1234:stm32f4xx_dma.c ****   /* Return the DMA_IT status */
1235:stm32f4xx_dma.c ****   return  bitstatus;
1236:stm32f4xx_dma.c **** }
 951              		.loc 1 1236 0
 952 0046 10BD     		pop	{r4, pc}	@
 953              	.L96:
 954              		.align	2
 955              	.L95:
 956 0048 00600240 		.word	1073897472
 957 004c 00640240 		.word	1073898496
 958 0050 0F640240 		.word	1073898511
 959              		.cfi_endproc
ARM GAS  /tmp/ccXZiPD3.s 			page 40


 960              	.LFE127:
 961              		.size	DMA_GetITStatus, .-DMA_GetITStatus
 962              		.section	.text.DMA_ClearITPendingBit,"ax",%progbits
 963              		.align	1
 964              		.global	DMA_ClearITPendingBit
 965              		.thumb
 966              		.thumb_func
 967              		.type	DMA_ClearITPendingBit, %function
 968              	DMA_ClearITPendingBit:
 969              	.LFB128:
1237:stm32f4xx_dma.c **** 
1238:stm32f4xx_dma.c **** /**
1239:stm32f4xx_dma.c ****   * @brief  Clears the DMAy Streamx's interrupt pending bits.
1240:stm32f4xx_dma.c ****   * @param  DMAy_Streamx: where y can be 1 or 2 to select the DMA and x can be 0
1241:stm32f4xx_dma.c ****   *          to 7 to select the DMA Stream.
1242:stm32f4xx_dma.c ****   * @param  DMA_IT: specifies the DMA interrupt pending bit to clear.
1243:stm32f4xx_dma.c ****   *          This parameter can be any combination of the following values:
1244:stm32f4xx_dma.c ****   *            @arg DMA_IT_TCIFx:  Streamx transfer complete interrupt
1245:stm32f4xx_dma.c ****   *            @arg DMA_IT_HTIFx:  Streamx half transfer complete interrupt
1246:stm32f4xx_dma.c ****   *            @arg DMA_IT_TEIFx:  Streamx transfer error interrupt
1247:stm32f4xx_dma.c ****   *            @arg DMA_IT_DMEIFx: Streamx direct mode error interrupt
1248:stm32f4xx_dma.c ****   *            @arg DMA_IT_FEIFx:  Streamx FIFO error interrupt
1249:stm32f4xx_dma.c ****   *         Where x can be 0 to 7 to select the DMA Stream.
1250:stm32f4xx_dma.c ****   * @retval None
1251:stm32f4xx_dma.c ****   */
1252:stm32f4xx_dma.c **** void DMA_ClearITPendingBit(DMA_Stream_TypeDef* DMAy_Streamx, uint32_t DMA_IT)
1253:stm32f4xx_dma.c **** {
 970              		.loc 1 1253 0
 971              		.cfi_startproc
 972              		@ args = 0, pretend = 0, frame = 0
 973              		@ frame_needed = 0, uses_anonymous_args = 0
 974              	.LVL75:
 975 0000 10B5     		push	{r4, lr}	@
 976              	.LCFI4:
 977              		.cfi_def_cfa_offset 8
 978              		.cfi_offset 4, -8
 979              		.cfi_offset 14, -4
1254:stm32f4xx_dma.c ****   DMA_TypeDef* DMAy;
1255:stm32f4xx_dma.c **** 
1256:stm32f4xx_dma.c ****   /* Check the parameters */
1257:stm32f4xx_dma.c ****   assert_param(IS_DMA_ALL_PERIPH(DMAy_Streamx));
1258:stm32f4xx_dma.c ****   assert_param(IS_DMA_CLEAR_IT(DMA_IT));
1259:stm32f4xx_dma.c **** 
1260:stm32f4xx_dma.c ****   /* Determine the DMA to which belongs the stream */
1261:stm32f4xx_dma.c ****   if (DMAy_Streamx < DMA2_Stream0)
1262:stm32f4xx_dma.c ****   {
1263:stm32f4xx_dma.c ****     /* DMAy_Streamx belongs to DMA1 */
1264:stm32f4xx_dma.c ****     DMAy = DMA1; 
 980              		.loc 1 1264 0
 981 0002 084B     		ldr	r3, .L102	@ tmp146,
 982 0004 084A     		ldr	r2, .L102+4	@ tmp145,
 983 0006 094C     		ldr	r4, .L102+8	@ tmp140,
 984 0008 A042     		cmp	r0, r4	@ DMAy_Streamx, tmp140
 985 000a 8CBF     		ite	hi	@
 986 000c 1046     		movhi	r0, r2	@, DMAy, tmp145
 987 000e 1846     		movls	r0, r3	@, DMAy, tmp146
 988              	.LVL76:
ARM GAS  /tmp/ccXZiPD3.s 			page 41


1265:stm32f4xx_dma.c ****   } 
1266:stm32f4xx_dma.c ****   else 
1267:stm32f4xx_dma.c ****   {
1268:stm32f4xx_dma.c ****     /* DMAy_Streamx belongs to DMA2 */
1269:stm32f4xx_dma.c ****     DMAy = DMA2; 
1270:stm32f4xx_dma.c ****   }
1271:stm32f4xx_dma.c **** 
1272:stm32f4xx_dma.c ****   /* Check if LIFCR or HIFCR register is targeted */
1273:stm32f4xx_dma.c ****   if ((DMA_IT & HIGH_ISR_MASK) != (uint32_t)RESET)
 989              		.loc 1 1273 0
 990 0010 11F0005F 		tst	r1, #536870912	@ DMA_IT,
 991 0014 21F0F021 		bic	r1, r1, #-268374016	@ tmp144, DMA_IT,
 992              	.LVL77:
1274:stm32f4xx_dma.c ****   {
1275:stm32f4xx_dma.c ****     /* Set DMAy HIFCR register clear interrupt bits */
1276:stm32f4xx_dma.c ****     DMAy->HIFCR = (uint32_t)(DMA_IT & RESERVED_MASK);
 993              		.loc 1 1276 0
 994 0018 21F08213 		bic	r3, r1, #8519810	@ D.6001, tmp144,
 995 001c 14BF     		ite	ne
 996 001e C360     		strne	r3, [r0, #12]	@ D.6001, DMAy_1->HIFCR
1277:stm32f4xx_dma.c ****   }
1278:stm32f4xx_dma.c ****   else 
1279:stm32f4xx_dma.c ****   {
1280:stm32f4xx_dma.c ****     /* Set DMAy LIFCR register clear interrupt bits */
1281:stm32f4xx_dma.c ****     DMAy->LIFCR = (uint32_t)(DMA_IT & RESERVED_MASK);
 997              		.loc 1 1281 0
 998 0020 8360     		streq	r3, [r0, #8]	@ D.6001, DMAy_1->LIFCR
 999 0022 10BD     		pop	{r4, pc}	@
 1000              	.L103:
 1001              		.align	2
 1002              	.L102:
 1003 0024 00600240 		.word	1073897472
 1004 0028 00640240 		.word	1073898496
 1005 002c 0F640240 		.word	1073898511
 1006              		.cfi_endproc
 1007              	.LFE128:
 1008              		.size	DMA_ClearITPendingBit, .-DMA_ClearITPendingBit
 1009              		.text
 1010              	.Letext0:
 1011              		.file 2 "/usr/bin/../lib/gcc/arm-none-eabi/4.7.4/../../../../arm-none-eabi/include/stdint.h"
 1012              		.file 3 "stm32f4xx.h"
 1013              		.file 4 "stm32f4xx_dma.h"
 1014              		.file 5 "cmsis/core_cm4.h"