ARM GAS  /tmp/ccfo4Hkn.s 			page 1


   1              		.syntax unified
   2              		.cpu cortex-m4
   3              		.eabi_attribute 27, 3	@ Tag_ABI_HardFP_use
   4              		.eabi_attribute 28, 1	@ Tag_ABI_VFP_args
   5              		.fpu fpv4-sp-d16
   6              		.eabi_attribute 20, 1	@ Tag_ABI_FP_denormal
   7              		.eabi_attribute 21, 1	@ Tag_ABI_FP_exceptions
   8              		.eabi_attribute 23, 3	@ Tag_ABI_FP_number_model
   9              		.eabi_attribute 24, 1	@ Tag_ABI_align8_needed
  10              		.eabi_attribute 25, 1	@ Tag_ABI_align8_preserved
  11              		.eabi_attribute 26, 1	@ Tag_ABI_enum_size
  12              		.eabi_attribute 30, 4	@ Tag_ABI_optimization_goals
  13              		.eabi_attribute 34, 1	@ Tag_CPU_unaligned_access
  14              		.eabi_attribute 18, 4	@ Tag_ABI_PCS_wchar_t
  15              		.file	"stm32f4xx_gpio.c"
  16              	@ GNU C (GNU Tools for ARM Embedded Processors) version 4.7.4 20130913 (release) [ARM/embedded-4_7-
  17              	@	compiled by GNU C version 4.7.3, GMP version 5.0.5, MPFR version 3.1.1-p2, MPC version 0.9
  18              	@ GGC heuristics: --param ggc-min-expand=100 --param ggc-min-heapsize=131072
  19              	@ options passed:  -I . -I ../ -I cmsis/ -imultilib armv7e-m/fpu
  20              	@ -iprefix /usr/bin/../lib/gcc/arm-none-eabi/4.7.4/
  21              	@ -isysroot /usr/bin/../arm-none-eabi -MD stm32f4xx_gpio.d
  22              	@ -MF .dep/stm32f4xx_gpio.o.d -MP -MQ stm32f4xx_gpio.o -D__USES_INITFINI__
  23              	@ -D __FPU_USED=1 -D __arm__ -D __ASSEMBLY__ -D USE_STDPERIPH_DRIVER
  24              	@ -D STM32F4XX -D HSE_VALUE=8000000 -D __FPU_PRESENT=1 -D __FPU_USED=1
  25              	@ -D STM32F405VG -D USE_USB_OTG_FS -D RUN_FROM_FLASH=1 stm32f4xx_gpio.c
  26              	@ -mthumb -mcpu=cortex-m4 -mfloat-abi=hard -mfpu=fpv4-sp-d16 -mthumb
  27              	@ -auxbase-strip stm32f4xx_gpio.o -gdwarf-2 -Os -Wall -Wstrict-prototypes
  28              	@ -std=gnu99 -falign-functions=16 -fno-inline -fomit-frame-pointer
  29              	@ -fverbose-asm -ffunction-sections -fdata-sections
  30              	@ options enabled:  -fauto-inc-dec -fbranch-count-reg -fcaller-saves
  31              	@ -fcombine-stack-adjustments -fcommon -fcompare-elim -fcprop-registers
  32              	@ -fcrossjumping -fcse-follow-jumps -fdata-sections -fdebug-types-section
  33              	@ -fdefer-pop -fdelete-null-pointer-checks -fdevirtualize -fdwarf2-cfi-asm
  34              	@ -fearly-inlining -feliminate-unused-debug-types -fexpensive-optimizations
  35              	@ -fforward-propagate -ffunction-cse -ffunction-sections -fgcse -fgcse-lm
  36              	@ -fgnu-runtime -fguess-branch-probability -fident -fif-conversion
  37              	@ -fif-conversion2 -findirect-inlining -finline-atomics -finline-functions
  38              	@ -finline-functions-called-once -finline-small-functions -fipa-cp
  39              	@ -fipa-profile -fipa-pure-const -fipa-reference -fipa-sra
  40              	@ -fira-share-save-slots -fira-share-spill-slots -fivopts
  41              	@ -fkeep-static-consts -fleading-underscore -fmath-errno -fmerge-constants
  42              	@ -fmerge-debug-strings -fomit-frame-pointer -foptimize-register-move
  43              	@ -foptimize-sibling-calls -fpartial-inlining -fpeephole -fpeephole2
  44              	@ -fprefetch-loop-arrays -freg-struct-return -fregmove -frename-registers
  45              	@ -freorder-blocks -freorder-functions -frerun-cse-after-loop
  46              	@ -fsched-critical-path-heuristic -fsched-dep-count-heuristic
  47              	@ -fsched-group-heuristic -fsched-interblock -fsched-last-insn-heuristic
  48              	@ -fsched-rank-heuristic -fsched-spec -fsched-spec-insn-heuristic
  49              	@ -fsched-stalled-insns-dep -fschedule-insns2 -fsection-anchors
  50              	@ -fshow-column -fshrink-wrap -fsigned-zeros -fsplit-ivs-in-unroller
  51              	@ -fsplit-wide-types -fstrict-aliasing -fstrict-overflow
  52              	@ -fstrict-volatile-bitfields -fthread-jumps -ftoplevel-reorder
  53              	@ -ftrapping-math -ftree-bit-ccp -ftree-builtin-call-dce -ftree-ccp
  54              	@ -ftree-ch -ftree-copy-prop -ftree-copyrename -ftree-cselim -ftree-dce
  55              	@ -ftree-dominator-opts -ftree-dse -ftree-forwprop -ftree-fre
  56              	@ -ftree-loop-if-convert -ftree-loop-im -ftree-loop-ivcanon
  57              	@ -ftree-loop-optimize -ftree-parallelize-loops= -ftree-phiprop -ftree-pre
ARM GAS  /tmp/ccfo4Hkn.s 			page 2


  58              	@ -ftree-pta -ftree-reassoc -ftree-scev-cprop -ftree-sink
  59              	@ -ftree-slp-vectorize -ftree-sra -ftree-switch-conversion
  60              	@ -ftree-tail-merge -ftree-ter -ftree-vect-loop-version -ftree-vrp
  61              	@ -funit-at-a-time -funroll-loops -fvar-tracking -fvar-tracking-assignments
  62              	@ -fverbose-asm -fweb -fzero-initialized-in-bss -mlittle-endian
  63              	@ -msched-prolog -mthumb -munaligned-access -mvectorize-with-neon-quad
  64              	
  65              		.text
  66              	.Ltext0:
  67              		.cfi_sections	.debug_frame
  68              		.section	.text.GPIO_DeInit,"ax",%progbits
  69              		.align	1
  70              		.global	GPIO_DeInit
  71              		.thumb
  72              		.thumb_func
  73              		.type	GPIO_DeInit, %function
  74              	GPIO_DeInit:
  75              	.LFB110:
  76              		.file 1 "stm32f4xx_gpio.c"
   1:stm32f4xx_gpio.c **** /**
   2:stm32f4xx_gpio.c ****   ******************************************************************************
   3:stm32f4xx_gpio.c ****   * @file    stm32f4xx_gpio.c
   4:stm32f4xx_gpio.c ****   * @author  MCD Application Team
   5:stm32f4xx_gpio.c ****   * @version V1.1.0
   6:stm32f4xx_gpio.c ****   * @date    11-January-2013
   7:stm32f4xx_gpio.c ****   * @brief   This file provides firmware functions to manage the following 
   8:stm32f4xx_gpio.c ****   *          functionalities of the GPIO peripheral:           
   9:stm32f4xx_gpio.c ****   *           + Initialization and Configuration
  10:stm32f4xx_gpio.c ****   *           + GPIO Read and Write
  11:stm32f4xx_gpio.c ****   *           + GPIO Alternate functions configuration
  12:stm32f4xx_gpio.c ****   * 
  13:stm32f4xx_gpio.c **** @verbatim  
  14:stm32f4xx_gpio.c ****  ===============================================================================
  15:stm32f4xx_gpio.c ****                       ##### How to use this driver #####
  16:stm32f4xx_gpio.c ****  ===============================================================================       
  17:stm32f4xx_gpio.c ****  [..]             
  18:stm32f4xx_gpio.c ****    (#) Enable the GPIO AHB clock using the following function
  19:stm32f4xx_gpio.c ****        RCC_AHB1PeriphClockCmd(RCC_AHB1Periph_GPIOx, ENABLE);
  20:stm32f4xx_gpio.c ****                
  21:stm32f4xx_gpio.c ****    (#) Configure the GPIO pin(s) using GPIO_Init()
  22:stm32f4xx_gpio.c ****        Four possible configuration are available for each pin:
  23:stm32f4xx_gpio.c ****        (++) Input: Floating, Pull-up, Pull-down.
  24:stm32f4xx_gpio.c ****        (++) Output: Push-Pull (Pull-up, Pull-down or no Pull)
  25:stm32f4xx_gpio.c ****             Open Drain (Pull-up, Pull-down or no Pull). In output mode, the speed 
  26:stm32f4xx_gpio.c ****             is configurable: 2 MHz, 25 MHz, 50 MHz or 100 MHz.
  27:stm32f4xx_gpio.c ****        (++) Alternate Function: Push-Pull (Pull-up, Pull-down or no Pull) Open 
  28:stm32f4xx_gpio.c ****             Drain (Pull-up, Pull-down or no Pull).
  29:stm32f4xx_gpio.c ****        (++) Analog: required mode when a pin is to be used as ADC channel or DAC 
  30:stm32f4xx_gpio.c ****             output.
  31:stm32f4xx_gpio.c ****    
  32:stm32f4xx_gpio.c ****    (#) Peripherals alternate function:
  33:stm32f4xx_gpio.c ****        (++) For ADC and DAC, configure the desired pin in analog mode using 
  34:stm32f4xx_gpio.c ****             GPIO_InitStruct->GPIO_Mode = GPIO_Mode_AN;
  35:stm32f4xx_gpio.c ****             (+++) For other peripherals (TIM, USART...):
  36:stm32f4xx_gpio.c ****             (+++) Connect the pin to the desired peripherals' Alternate 
  37:stm32f4xx_gpio.c ****                      Function (AF) using GPIO_PinAFConfig() function
  38:stm32f4xx_gpio.c ****             (+++) Configure the desired pin in alternate function mode using
ARM GAS  /tmp/ccfo4Hkn.s 			page 3


  39:stm32f4xx_gpio.c ****                      GPIO_InitStruct->GPIO_Mode = GPIO_Mode_AF
  40:stm32f4xx_gpio.c ****             (+++) Select the type, pull-up/pull-down and output speed via 
  41:stm32f4xx_gpio.c ****                      GPIO_PuPd, GPIO_OType and GPIO_Speed members
  42:stm32f4xx_gpio.c ****             (+++) Call GPIO_Init() function
  43:stm32f4xx_gpio.c ****           
  44:stm32f4xx_gpio.c ****    (#) To get the level of a pin configured in input mode use GPIO_ReadInputDataBit()
  45:stm32f4xx_gpio.c ****             
  46:stm32f4xx_gpio.c ****    (#) To set/reset the level of a pin configured in output mode use 
  47:stm32f4xx_gpio.c ****        GPIO_SetBits()/GPIO_ResetBits()
  48:stm32f4xx_gpio.c ****                  
  49:stm32f4xx_gpio.c ****    (#) During and just after reset, the alternate functions are not 
  50:stm32f4xx_gpio.c ****        active and the GPIO pins are configured in input floating mode (except JTAG
  51:stm32f4xx_gpio.c ****        pins).
  52:stm32f4xx_gpio.c ****   
  53:stm32f4xx_gpio.c ****    (#) The LSE oscillator pins OSC32_IN and OSC32_OUT can be used as general purpose 
  54:stm32f4xx_gpio.c ****        (PC14 and PC15, respectively) when the LSE oscillator is off. The LSE has 
  55:stm32f4xx_gpio.c ****        priority over the GPIO function.
  56:stm32f4xx_gpio.c ****   
  57:stm32f4xx_gpio.c ****    (#) The HSE oscillator pins OSC_IN/OSC_OUT can be used as 
  58:stm32f4xx_gpio.c ****        general purpose PH0 and PH1, respectively, when the HSE oscillator is off. 
  59:stm32f4xx_gpio.c ****        The HSE has priority over the GPIO function.
  60:stm32f4xx_gpio.c ****                
  61:stm32f4xx_gpio.c **** @endverbatim        
  62:stm32f4xx_gpio.c ****   *
  63:stm32f4xx_gpio.c ****   ******************************************************************************
  64:stm32f4xx_gpio.c ****   * @attention
  65:stm32f4xx_gpio.c ****   *
  66:stm32f4xx_gpio.c ****   * <h2><center>&copy; COPYRIGHT 2013 STMicroelectronics</center></h2>
  67:stm32f4xx_gpio.c ****   *
  68:stm32f4xx_gpio.c ****   * Licensed under MCD-ST Liberty SW License Agreement V2, (the "License");
  69:stm32f4xx_gpio.c ****   * You may not use this file except in compliance with the License.
  70:stm32f4xx_gpio.c ****   * You may obtain a copy of the License at:
  71:stm32f4xx_gpio.c ****   *
  72:stm32f4xx_gpio.c ****   *        http://www.st.com/software_license_agreement_liberty_v2
  73:stm32f4xx_gpio.c ****   *
  74:stm32f4xx_gpio.c ****   * Unless required by applicable law or agreed to in writing, software 
  75:stm32f4xx_gpio.c ****   * distributed under the License is distributed on an "AS IS" BASIS, 
  76:stm32f4xx_gpio.c ****   * WITHOUT WARRANTIES OR CONDITIONS OF ANY KIND, either express or implied.
  77:stm32f4xx_gpio.c ****   * See the License for the specific language governing permissions and
  78:stm32f4xx_gpio.c ****   * limitations under the License.
  79:stm32f4xx_gpio.c ****   *
  80:stm32f4xx_gpio.c ****   ******************************************************************************
  81:stm32f4xx_gpio.c ****   */
  82:stm32f4xx_gpio.c **** 
  83:stm32f4xx_gpio.c **** /* Includes ------------------------------------------------------------------*/
  84:stm32f4xx_gpio.c **** #include "stm32f4xx_gpio.h"
  85:stm32f4xx_gpio.c **** #include "stm32f4xx_rcc.h"
  86:stm32f4xx_gpio.c **** 
  87:stm32f4xx_gpio.c **** /** @addtogroup STM32F4xx_StdPeriph_Driver
  88:stm32f4xx_gpio.c ****   * @{
  89:stm32f4xx_gpio.c ****   */
  90:stm32f4xx_gpio.c **** 
  91:stm32f4xx_gpio.c **** /** @defgroup GPIO 
  92:stm32f4xx_gpio.c ****   * @brief GPIO driver modules
  93:stm32f4xx_gpio.c ****   * @{
  94:stm32f4xx_gpio.c ****   */ 
  95:stm32f4xx_gpio.c **** 
ARM GAS  /tmp/ccfo4Hkn.s 			page 4


  96:stm32f4xx_gpio.c **** /* Private typedef -----------------------------------------------------------*/
  97:stm32f4xx_gpio.c **** /* Private define ------------------------------------------------------------*/
  98:stm32f4xx_gpio.c **** /* Private macro -------------------------------------------------------------*/
  99:stm32f4xx_gpio.c **** /* Private variables ---------------------------------------------------------*/
 100:stm32f4xx_gpio.c **** /* Private function prototypes -----------------------------------------------*/
 101:stm32f4xx_gpio.c **** /* Private functions ---------------------------------------------------------*/
 102:stm32f4xx_gpio.c **** 
 103:stm32f4xx_gpio.c **** /** @defgroup GPIO_Private_Functions
 104:stm32f4xx_gpio.c ****   * @{
 105:stm32f4xx_gpio.c ****   */ 
 106:stm32f4xx_gpio.c **** 
 107:stm32f4xx_gpio.c **** /** @defgroup GPIO_Group1 Initialization and Configuration
 108:stm32f4xx_gpio.c ****  *  @brief   Initialization and Configuration
 109:stm32f4xx_gpio.c ****  *
 110:stm32f4xx_gpio.c **** @verbatim   
 111:stm32f4xx_gpio.c ****  ===============================================================================
 112:stm32f4xx_gpio.c ****                  ##### Initialization and Configuration #####
 113:stm32f4xx_gpio.c ****  ===============================================================================  
 114:stm32f4xx_gpio.c **** 
 115:stm32f4xx_gpio.c **** @endverbatim
 116:stm32f4xx_gpio.c ****   * @{
 117:stm32f4xx_gpio.c ****   */
 118:stm32f4xx_gpio.c **** 
 119:stm32f4xx_gpio.c **** /**
 120:stm32f4xx_gpio.c ****   * @brief  De-initializes the GPIOx peripheral registers to their default reset values.
 121:stm32f4xx_gpio.c ****   * @note   By default, The GPIO pins are configured in input floating mode (except JTAG pins).
 122:stm32f4xx_gpio.c ****   * @param  GPIOx: where x can be (A..I) to select the GPIO peripheral for 
 123:stm32f4xx_gpio.c ****   *                STM32F40xx/41xx and STM32F427x/437x devices. 
 124:stm32f4xx_gpio.c ****   * @retval None
 125:stm32f4xx_gpio.c ****   */
 126:stm32f4xx_gpio.c **** void GPIO_DeInit(GPIO_TypeDef* GPIOx)
 127:stm32f4xx_gpio.c **** {
  77              		.loc 1 127 0
  78              		.cfi_startproc
  79              		@ args = 0, pretend = 0, frame = 0
  80              		@ frame_needed = 0, uses_anonymous_args = 0
  81              	.LVL0:
  82 0000 08B5     		push	{r3, lr}	@
  83              	.LCFI0:
  84              		.cfi_def_cfa_offset 8
  85              		.cfi_offset 3, -8
  86              		.cfi_offset 14, -4
 128:stm32f4xx_gpio.c ****   /* Check the parameters */
 129:stm32f4xx_gpio.c ****   assert_param(IS_GPIO_ALL_PERIPH(GPIOx));
 130:stm32f4xx_gpio.c **** 
 131:stm32f4xx_gpio.c ****   if (GPIOx == GPIOA)
  87              		.loc 1 131 0
  88 0002 2C4B     		ldr	r3, .L13	@ tmp135,
  89 0004 9842     		cmp	r0, r3	@ GPIOx, tmp135
  90 0006 05D1     		bne	.L2	@,
 132:stm32f4xx_gpio.c ****   {
 133:stm32f4xx_gpio.c ****     RCC_AHB1PeriphResetCmd(RCC_AHB1Periph_GPIOA, ENABLE);
  91              		.loc 1 133 0
  92 0008 0120     		movs	r0, #1	@,
  93              	.LVL1:
  94 000a 0146     		mov	r1, r0	@,
  95 000c FFF7FEFF 		bl	RCC_AHB1PeriphResetCmd	@
ARM GAS  /tmp/ccfo4Hkn.s 			page 5


  96              	.LVL2:
 134:stm32f4xx_gpio.c ****     RCC_AHB1PeriphResetCmd(RCC_AHB1Periph_GPIOA, DISABLE);
  97              		.loc 1 134 0
  98 0010 0120     		movs	r0, #1	@,
  99 0012 48E0     		b	.L11	@
 100              	.LVL3:
 101              	.L2:
 135:stm32f4xx_gpio.c ****   }
 136:stm32f4xx_gpio.c ****   else if (GPIOx == GPIOB)
 102              		.loc 1 136 0
 103 0014 2849     		ldr	r1, .L13+4	@ tmp136,
 104 0016 8842     		cmp	r0, r1	@ GPIOx, tmp136
 105 0018 05D1     		bne	.L3	@,
 137:stm32f4xx_gpio.c ****   {
 138:stm32f4xx_gpio.c ****     RCC_AHB1PeriphResetCmd(RCC_AHB1Periph_GPIOB, ENABLE);
 106              		.loc 1 138 0
 107 001a 0220     		movs	r0, #2	@,
 108              	.LVL4:
 109 001c 0121     		movs	r1, #1	@,
 110 001e FFF7FEFF 		bl	RCC_AHB1PeriphResetCmd	@
 111              	.LVL5:
 139:stm32f4xx_gpio.c ****     RCC_AHB1PeriphResetCmd(RCC_AHB1Periph_GPIOB, DISABLE);
 112              		.loc 1 139 0
 113 0022 0220     		movs	r0, #2	@,
 114 0024 3FE0     		b	.L11	@
 115              	.LVL6:
 116              	.L3:
 140:stm32f4xx_gpio.c ****   }
 141:stm32f4xx_gpio.c ****   else if (GPIOx == GPIOC)
 117              		.loc 1 141 0
 118 0026 254A     		ldr	r2, .L13+8	@ tmp137,
 119 0028 9042     		cmp	r0, r2	@ GPIOx, tmp137
 120 002a 05D1     		bne	.L4	@,
 142:stm32f4xx_gpio.c ****   {
 143:stm32f4xx_gpio.c ****     RCC_AHB1PeriphResetCmd(RCC_AHB1Periph_GPIOC, ENABLE);
 121              		.loc 1 143 0
 122 002c 0420     		movs	r0, #4	@,
 123              	.LVL7:
 124 002e 0121     		movs	r1, #1	@,
 125 0030 FFF7FEFF 		bl	RCC_AHB1PeriphResetCmd	@
 126              	.LVL8:
 144:stm32f4xx_gpio.c ****     RCC_AHB1PeriphResetCmd(RCC_AHB1Periph_GPIOC, DISABLE);
 127              		.loc 1 144 0
 128 0034 0420     		movs	r0, #4	@,
 129 0036 36E0     		b	.L11	@
 130              	.LVL9:
 131              	.L4:
 145:stm32f4xx_gpio.c ****   }
 146:stm32f4xx_gpio.c ****   else if (GPIOx == GPIOD)
 132              		.loc 1 146 0
 133 0038 214B     		ldr	r3, .L13+12	@ tmp138,
 134 003a 9842     		cmp	r0, r3	@ GPIOx, tmp138
 135 003c 05D1     		bne	.L5	@,
 147:stm32f4xx_gpio.c ****   {
 148:stm32f4xx_gpio.c ****     RCC_AHB1PeriphResetCmd(RCC_AHB1Periph_GPIOD, ENABLE);
 136              		.loc 1 148 0
 137 003e 0820     		movs	r0, #8	@,
ARM GAS  /tmp/ccfo4Hkn.s 			page 6


 138              	.LVL10:
 139 0040 0121     		movs	r1, #1	@,
 140 0042 FFF7FEFF 		bl	RCC_AHB1PeriphResetCmd	@
 141              	.LVL11:
 149:stm32f4xx_gpio.c ****     RCC_AHB1PeriphResetCmd(RCC_AHB1Periph_GPIOD, DISABLE);
 142              		.loc 1 149 0
 143 0046 0820     		movs	r0, #8	@,
 144 0048 2DE0     		b	.L11	@
 145              	.LVL12:
 146              	.L5:
 150:stm32f4xx_gpio.c ****   }
 151:stm32f4xx_gpio.c ****   else if (GPIOx == GPIOE)
 147              		.loc 1 151 0
 148 004a 1E49     		ldr	r1, .L13+16	@ tmp139,
 149 004c 8842     		cmp	r0, r1	@ GPIOx, tmp139
 150 004e 05D1     		bne	.L6	@,
 152:stm32f4xx_gpio.c ****   {
 153:stm32f4xx_gpio.c ****     RCC_AHB1PeriphResetCmd(RCC_AHB1Periph_GPIOE, ENABLE);
 151              		.loc 1 153 0
 152 0050 1020     		movs	r0, #16	@,
 153              	.LVL13:
 154 0052 0121     		movs	r1, #1	@,
 155 0054 FFF7FEFF 		bl	RCC_AHB1PeriphResetCmd	@
 156              	.LVL14:
 154:stm32f4xx_gpio.c ****     RCC_AHB1PeriphResetCmd(RCC_AHB1Periph_GPIOE, DISABLE);
 157              		.loc 1 154 0
 158 0058 1020     		movs	r0, #16	@,
 159 005a 24E0     		b	.L11	@
 160              	.LVL15:
 161              	.L6:
 155:stm32f4xx_gpio.c ****   }
 156:stm32f4xx_gpio.c ****   else if (GPIOx == GPIOF)
 162              		.loc 1 156 0
 163 005c 1A4A     		ldr	r2, .L13+20	@ tmp140,
 164 005e 9042     		cmp	r0, r2	@ GPIOx, tmp140
 165 0060 05D1     		bne	.L7	@,
 157:stm32f4xx_gpio.c ****   {
 158:stm32f4xx_gpio.c ****     RCC_AHB1PeriphResetCmd(RCC_AHB1Periph_GPIOF, ENABLE);
 166              		.loc 1 158 0
 167 0062 2020     		movs	r0, #32	@,
 168              	.LVL16:
 169 0064 0121     		movs	r1, #1	@,
 170 0066 FFF7FEFF 		bl	RCC_AHB1PeriphResetCmd	@
 171              	.LVL17:
 159:stm32f4xx_gpio.c ****     RCC_AHB1PeriphResetCmd(RCC_AHB1Periph_GPIOF, DISABLE);
 172              		.loc 1 159 0
 173 006a 2020     		movs	r0, #32	@,
 174 006c 1BE0     		b	.L11	@
 175              	.LVL18:
 176              	.L7:
 160:stm32f4xx_gpio.c ****   }
 161:stm32f4xx_gpio.c ****   else if (GPIOx == GPIOG)
 177              		.loc 1 161 0
 178 006e 174B     		ldr	r3, .L13+24	@ tmp141,
 179 0070 9842     		cmp	r0, r3	@ GPIOx, tmp141
 180 0072 05D1     		bne	.L8	@,
 162:stm32f4xx_gpio.c ****   {
ARM GAS  /tmp/ccfo4Hkn.s 			page 7


 163:stm32f4xx_gpio.c ****     RCC_AHB1PeriphResetCmd(RCC_AHB1Periph_GPIOG, ENABLE);
 181              		.loc 1 163 0
 182 0074 4020     		movs	r0, #64	@,
 183              	.LVL19:
 184 0076 0121     		movs	r1, #1	@,
 185 0078 FFF7FEFF 		bl	RCC_AHB1PeriphResetCmd	@
 186              	.LVL20:
 164:stm32f4xx_gpio.c ****     RCC_AHB1PeriphResetCmd(RCC_AHB1Periph_GPIOG, DISABLE);
 187              		.loc 1 164 0
 188 007c 4020     		movs	r0, #64	@,
 189 007e 12E0     		b	.L11	@
 190              	.LVL21:
 191              	.L8:
 165:stm32f4xx_gpio.c ****   }
 166:stm32f4xx_gpio.c ****   else if (GPIOx == GPIOH)
 192              		.loc 1 166 0
 193 0080 1349     		ldr	r1, .L13+28	@ tmp142,
 194 0082 8842     		cmp	r0, r1	@ GPIOx, tmp142
 195 0084 05D1     		bne	.L9	@,
 167:stm32f4xx_gpio.c ****   {
 168:stm32f4xx_gpio.c ****     RCC_AHB1PeriphResetCmd(RCC_AHB1Periph_GPIOH, ENABLE);
 196              		.loc 1 168 0
 197 0086 8020     		movs	r0, #128	@,
 198              	.LVL22:
 199 0088 0121     		movs	r1, #1	@,
 200 008a FFF7FEFF 		bl	RCC_AHB1PeriphResetCmd	@
 201              	.LVL23:
 169:stm32f4xx_gpio.c ****     RCC_AHB1PeriphResetCmd(RCC_AHB1Periph_GPIOH, DISABLE);
 202              		.loc 1 169 0
 203 008e 8020     		movs	r0, #128	@,
 204 0090 09E0     		b	.L11	@
 205              	.LVL24:
 206              	.L9:
 170:stm32f4xx_gpio.c ****   }
 171:stm32f4xx_gpio.c ****   else
 172:stm32f4xx_gpio.c ****   {
 173:stm32f4xx_gpio.c ****     if (GPIOx == GPIOI)
 207              		.loc 1 173 0
 208 0092 104A     		ldr	r2, .L13+32	@ tmp143,
 209 0094 9042     		cmp	r0, r2	@ GPIOx, tmp143
 210 0096 0BD1     		bne	.L1	@,
 174:stm32f4xx_gpio.c ****     {
 175:stm32f4xx_gpio.c ****       RCC_AHB1PeriphResetCmd(RCC_AHB1Periph_GPIOI, ENABLE);
 211              		.loc 1 175 0
 212 0098 4FF48070 		mov	r0, #256	@,
 213              	.LVL25:
 214 009c 0121     		movs	r1, #1	@,
 215 009e FFF7FEFF 		bl	RCC_AHB1PeriphResetCmd	@
 216              	.LVL26:
 176:stm32f4xx_gpio.c ****       RCC_AHB1PeriphResetCmd(RCC_AHB1Periph_GPIOI, DISABLE);
 217              		.loc 1 176 0
 218 00a2 4FF48070 		mov	r0, #256	@,
 219              	.L11:
 220 00a6 0021     		movs	r1, #0	@,
 177:stm32f4xx_gpio.c ****     }
 178:stm32f4xx_gpio.c ****   }
 179:stm32f4xx_gpio.c **** }
ARM GAS  /tmp/ccfo4Hkn.s 			page 8


 221              		.loc 1 179 0
 222 00a8 BDE80840 		pop	{r3, lr}	@
 176:stm32f4xx_gpio.c ****       RCC_AHB1PeriphResetCmd(RCC_AHB1Periph_GPIOI, DISABLE);
 223              		.loc 1 176 0
 224 00ac FFF7FEBF 		b	RCC_AHB1PeriphResetCmd	@
 225              	.LVL27:
 226              	.L1:
 227 00b0 08BD     		pop	{r3, pc}	@
 228              	.L14:
 229 00b2 00BF     		.align	2
 230              	.L13:
 231 00b4 00000240 		.word	1073872896
 232 00b8 00040240 		.word	1073873920
 233 00bc 00080240 		.word	1073874944
 234 00c0 000C0240 		.word	1073875968
 235 00c4 00100240 		.word	1073876992
 236 00c8 00140240 		.word	1073878016
 237 00cc 00180240 		.word	1073879040
 238 00d0 001C0240 		.word	1073880064
 239 00d4 00200240 		.word	1073881088
 240              		.cfi_endproc
 241              	.LFE110:
 242              		.size	GPIO_DeInit, .-GPIO_DeInit
 243              		.section	.text.GPIO_Init,"ax",%progbits
 244              		.align	1
 245              		.global	GPIO_Init
 246              		.thumb
 247              		.thumb_func
 248              		.type	GPIO_Init, %function
 249              	GPIO_Init:
 250              	.LFB111:
 180:stm32f4xx_gpio.c **** 
 181:stm32f4xx_gpio.c **** /**
 182:stm32f4xx_gpio.c ****   * @brief  Initializes the GPIOx peripheral according to the specified parameters in the GPIO_Init
 183:stm32f4xx_gpio.c ****   * @param  GPIOx: where x can be (A..I) to select the GPIO peripheral for 
 184:stm32f4xx_gpio.c ****   *                STM32F40xx/41xx and STM32F427x/437x devices. 
 185:stm32f4xx_gpio.c ****   * @param  GPIO_InitStruct: pointer to a GPIO_InitTypeDef structure that contains
 186:stm32f4xx_gpio.c ****   *         the configuration information for the specified GPIO peripheral.
 187:stm32f4xx_gpio.c ****   * @retval None
 188:stm32f4xx_gpio.c ****   */
 189:stm32f4xx_gpio.c **** void GPIO_Init(GPIO_TypeDef* GPIOx, GPIO_InitTypeDef* GPIO_InitStruct)
 190:stm32f4xx_gpio.c **** {
 251              		.loc 1 190 0
 252              		.cfi_startproc
 253              		@ args = 0, pretend = 0, frame = 0
 254              		@ frame_needed = 0, uses_anonymous_args = 0
 255              	.LVL28:
 256 0000 2DE9F041 		push	{r4, r5, r6, r7, r8, lr}	@
 257              	.LCFI1:
 258              		.cfi_def_cfa_offset 24
 259              		.cfi_offset 4, -24
 260              		.cfi_offset 5, -20
 261              		.cfi_offset 6, -16
 262              		.cfi_offset 7, -12
 263              		.cfi_offset 8, -8
 264              		.cfi_offset 14, -4
 191:stm32f4xx_gpio.c ****   uint32_t pinpos = 0x00, pos = 0x00 , currentpin = 0x00;
ARM GAS  /tmp/ccfo4Hkn.s 			page 9


 192:stm32f4xx_gpio.c **** 
 193:stm32f4xx_gpio.c ****   /* Check the parameters */
 194:stm32f4xx_gpio.c ****   assert_param(IS_GPIO_ALL_PERIPH(GPIOx));
 195:stm32f4xx_gpio.c ****   assert_param(IS_GPIO_PIN(GPIO_InitStruct->GPIO_Pin));
 196:stm32f4xx_gpio.c ****   assert_param(IS_GPIO_MODE(GPIO_InitStruct->GPIO_Mode));
 197:stm32f4xx_gpio.c ****   assert_param(IS_GPIO_PUPD(GPIO_InitStruct->GPIO_PuPd));
 198:stm32f4xx_gpio.c **** 
 199:stm32f4xx_gpio.c ****   /* ------------------------- Configure the port pins ---------------- */
 200:stm32f4xx_gpio.c ****   /*-- GPIO Mode Configuration --*/
 201:stm32f4xx_gpio.c ****   for (pinpos = 0x00; pinpos < 0x10; pinpos++)
 202:stm32f4xx_gpio.c ****   {
 203:stm32f4xx_gpio.c ****     pos = ((uint32_t)0x01) << pinpos;
 204:stm32f4xx_gpio.c ****     /* Get the port pins position */
 205:stm32f4xx_gpio.c ****     currentpin = (GPIO_InitStruct->GPIO_Pin) & pos;
 265              		.loc 1 205 0
 266 0004 0F68     		ldr	r7, [r1, #0]	@ D.6024, GPIO_InitStruct_8(D)->GPIO_Pin
 201:stm32f4xx_gpio.c ****   for (pinpos = 0x00; pinpos < 0x10; pinpos++)
 267              		.loc 1 201 0
 268 0006 0023     		movs	r3, #0	@ pinpos,
 269              	.LVL29:
 270              	.L18:
 203:stm32f4xx_gpio.c ****     pos = ((uint32_t)0x01) << pinpos;
 271              		.loc 1 203 0
 272 0008 0122     		movs	r2, #1	@ tmp184,
 273 000a 02FA03F2 		lsl	r2, r2, r3	@ pos, tmp184, pinpos
 274              	.LVL30:
 275              		.loc 1 205 0
 276 000e 02EA0705 		and	r5, r2, r7	@ currentpin, pos, D.6024
 277              	.LVL31:
 206:stm32f4xx_gpio.c **** 
 207:stm32f4xx_gpio.c ****     if (currentpin == pos)
 278              		.loc 1 207 0
 279 0012 9542     		cmp	r5, r2	@ currentpin, pos
 280 0014 32D1     		bne	.L16	@,
 189:stm32f4xx_gpio.c **** void GPIO_Init(GPIO_TypeDef* GPIOx, GPIO_InitTypeDef* GPIO_InitStruct)
 281              		.loc 1 189 0
 282 0016 5A00     		lsls	r2, r3, #1	@ D.6148, pinpos,
 283              	.LVL32:
 208:stm32f4xx_gpio.c ****     {
 209:stm32f4xx_gpio.c ****       GPIOx->MODER  &= ~(GPIO_MODER_MODER0 << (pinpos * 2));
 284              		.loc 1 209 0
 285 0018 0324     		movs	r4, #3	@ tmp186,
 286 001a 0668     		ldr	r6, [r0, #0]	@ D.6027, GPIOx_11(D)->MODER
 287 001c 04FA02F4 		lsl	r4, r4, r2	@ tmp185, tmp186, D.6148
 288 0020 E443     		mvns	r4, r4	@ D.6031, tmp185
 289 0022 2640     		ands	r6, r6, r4	@, D.6032, D.6027, D.6031
 290 0024 0660     		str	r6, [r0, #0]	@ D.6032, GPIOx_11(D)->MODER
 210:stm32f4xx_gpio.c ****       GPIOx->MODER |= (((uint32_t)GPIO_InitStruct->GPIO_Mode) << (pinpos * 2));
 291              		.loc 1 210 0
 292 0026 0E79     		ldrb	r6, [r1, #4]	@ zero_extendqisi2	@ D.6034, GPIO_InitStruct_8(D)->GPIO_Mode
 293 0028 D0F800C0 		ldr	ip, [r0, #0]	@ D.6033, GPIOx_11(D)->MODER
 294 002c 06FA02F8 		lsl	r8, r6, r2	@ tmp187, D.6034, D.6148
 211:stm32f4xx_gpio.c **** 
 212:stm32f4xx_gpio.c ****       if ((GPIO_InitStruct->GPIO_Mode == GPIO_Mode_OUT) || (GPIO_InitStruct->GPIO_Mode == GPIO_Mode
 295              		.loc 1 212 0
 296 0030 013E     		subs	r6, r6, #1	@ tmp189, D.6034,
 210:stm32f4xx_gpio.c ****       GPIOx->MODER |= (((uint32_t)GPIO_InitStruct->GPIO_Mode) << (pinpos * 2));
ARM GAS  /tmp/ccfo4Hkn.s 			page 10


 297              		.loc 1 210 0
 298 0032 48EA0C0C 		orr	ip, r8, ip	@ D.6037, tmp187, D.6033
 299              		.loc 1 212 0
 300 0036 012E     		cmp	r6, #1	@ tmp189,
 210:stm32f4xx_gpio.c ****       GPIOx->MODER |= (((uint32_t)GPIO_InitStruct->GPIO_Mode) << (pinpos * 2));
 301              		.loc 1 210 0
 302 0038 C0F800C0 		str	ip, [r0, #0]	@ D.6037, GPIOx_11(D)->MODER
 303              		.loc 1 212 0
 304 003c 15D8     		bhi	.L17	@,
 213:stm32f4xx_gpio.c ****       {
 214:stm32f4xx_gpio.c ****         /* Check Speed mode parameters */
 215:stm32f4xx_gpio.c ****         assert_param(IS_GPIO_SPEED(GPIO_InitStruct->GPIO_Speed));
 216:stm32f4xx_gpio.c **** 
 217:stm32f4xx_gpio.c ****         /* Speed mode configuration */
 218:stm32f4xx_gpio.c ****         GPIOx->OSPEEDR &= ~(GPIO_OSPEEDER_OSPEEDR0 << (pinpos * 2));
 305              		.loc 1 218 0
 306 003e 8668     		ldr	r6, [r0, #8]	@ D.6041, GPIOx_11(D)->OSPEEDR
 219:stm32f4xx_gpio.c ****         GPIOx->OSPEEDR |= ((uint32_t)(GPIO_InitStruct->GPIO_Speed) << (pinpos * 2));
 307              		.loc 1 219 0
 308 0040 91F805C0 		ldrb	ip, [r1, #5]	@ zero_extendqisi2	@ GPIO_InitStruct_8(D)->GPIO_Speed, GPIO_InitStruct_8(D)->GPI
 218:stm32f4xx_gpio.c ****         GPIOx->OSPEEDR &= ~(GPIO_OSPEEDER_OSPEEDR0 << (pinpos * 2));
 309              		.loc 1 218 0
 310 0044 2640     		ands	r6, r6, r4	@, D.6042, D.6041, D.6031
 311 0046 8660     		str	r6, [r0, #8]	@ D.6042, GPIOx_11(D)->OSPEEDR
 312              		.loc 1 219 0
 313 0048 8668     		ldr	r6, [r0, #8]	@ D.6043, GPIOx_11(D)->OSPEEDR
 314 004a 0CFA02FC 		lsl	ip, ip, r2	@ tmp191, GPIO_InitStruct_8(D)->GPIO_Speed, D.6148
 315 004e 4CEA0606 		orr	r6, ip, r6	@ D.6047, tmp191, D.6043
 316 0052 8660     		str	r6, [r0, #8]	@ D.6047, GPIOx_11(D)->OSPEEDR
 220:stm32f4xx_gpio.c **** 
 221:stm32f4xx_gpio.c ****         /* Check Output mode parameters */
 222:stm32f4xx_gpio.c ****         assert_param(IS_GPIO_OTYPE(GPIO_InitStruct->GPIO_OType));
 223:stm32f4xx_gpio.c **** 
 224:stm32f4xx_gpio.c ****         /* Output mode configuration*/
 225:stm32f4xx_gpio.c ****         GPIOx->OTYPER  &= ~((GPIO_OTYPER_OT_0) << ((uint16_t)pinpos)) ;
 317              		.loc 1 225 0
 318 0054 4668     		ldr	r6, [r0, #4]	@ D.6048, GPIOx_11(D)->OTYPER
 319 0056 26EA0505 		bic	r5, r6, r5	@ D.6053, D.6048, currentpin
 320              	.LVL33:
 321 005a 4560     		str	r5, [r0, #4]	@ D.6053, GPIOx_11(D)->OTYPER
 226:stm32f4xx_gpio.c ****         GPIOx->OTYPER |= (uint16_t)(((uint16_t)GPIO_InitStruct->GPIO_OType) << ((uint16_t)pinpos));
 322              		.loc 1 226 0
 323 005c 8D79     		ldrb	r5, [r1, #6]	@ zero_extendqisi2	@ GPIO_InitStruct_8(D)->GPIO_OType, GPIO_InitStruct_8(D)->GPI
 324 005e 4668     		ldr	r6, [r0, #4]	@ D.6054, GPIOx_11(D)->OTYPER
 325 0060 05FA03F5 		lsl	r5, r5, r3	@ tmp194, GPIO_InitStruct_8(D)->GPIO_OType, pinpos
 227:stm32f4xx_gpio.c ****       }
 228:stm32f4xx_gpio.c **** 
 229:stm32f4xx_gpio.c ****       /* Pull-up Pull down resistor configuration*/
 230:stm32f4xx_gpio.c ****       GPIOx->PUPDR &= ~(GPIO_PUPDR_PUPDR0 << ((uint16_t)pinpos * 2));
 231:stm32f4xx_gpio.c ****       GPIOx->PUPDR |= (((uint32_t)GPIO_InitStruct->GPIO_PuPd) << (pinpos * 2));
 232:stm32f4xx_gpio.c ****     }
 233:stm32f4xx_gpio.c ****   }
 234:stm32f4xx_gpio.c **** }
 235:stm32f4xx_gpio.c **** 
 236:stm32f4xx_gpio.c **** /**
 237:stm32f4xx_gpio.c ****   * @brief  Fills each GPIO_InitStruct member with its default value.
 238:stm32f4xx_gpio.c ****   * @param  GPIO_InitStruct : pointer to a GPIO_InitTypeDef structure which will be initialized.
ARM GAS  /tmp/ccfo4Hkn.s 			page 11


 239:stm32f4xx_gpio.c ****   * @retval None
 240:stm32f4xx_gpio.c ****   */
 241:stm32f4xx_gpio.c **** void GPIO_StructInit(GPIO_InitTypeDef* GPIO_InitStruct)
 242:stm32f4xx_gpio.c **** {
 243:stm32f4xx_gpio.c ****   /* Reset GPIO init structure parameters values */
 244:stm32f4xx_gpio.c ****   GPIO_InitStruct->GPIO_Pin  = GPIO_Pin_All;
 245:stm32f4xx_gpio.c ****   GPIO_InitStruct->GPIO_Mode = GPIO_Mode_IN;
 246:stm32f4xx_gpio.c ****   GPIO_InitStruct->GPIO_Speed = GPIO_Speed_2MHz;
 247:stm32f4xx_gpio.c ****   GPIO_InitStruct->GPIO_OType = GPIO_OType_PP;
 248:stm32f4xx_gpio.c ****   GPIO_InitStruct->GPIO_PuPd = GPIO_PuPd_NOPULL;
 249:stm32f4xx_gpio.c **** }
 250:stm32f4xx_gpio.c **** 
 251:stm32f4xx_gpio.c **** /**
 252:stm32f4xx_gpio.c ****   * @brief  Locks GPIO Pins configuration registers.
 253:stm32f4xx_gpio.c ****   * @note   The locked registers are GPIOx_MODER, GPIOx_OTYPER, GPIOx_OSPEEDR,
 254:stm32f4xx_gpio.c ****   *         GPIOx_PUPDR, GPIOx_AFRL and GPIOx_AFRH.
 255:stm32f4xx_gpio.c ****   * @note   The configuration of the locked GPIO pins can no longer be modified
 256:stm32f4xx_gpio.c ****   *         until the next reset.
 257:stm32f4xx_gpio.c ****   * @param  GPIOx: where x can be (A..I) to select the GPIO peripheral for 
 258:stm32f4xx_gpio.c ****   *                STM32F40xx/41xx and STM32F427x/437x devices.
 259:stm32f4xx_gpio.c ****   * @param  GPIO_Pin: specifies the port bit to be locked.
 260:stm32f4xx_gpio.c ****   *          This parameter can be any combination of GPIO_Pin_x where x can be (0..15).
 261:stm32f4xx_gpio.c ****   * @retval None
 262:stm32f4xx_gpio.c ****   */
 263:stm32f4xx_gpio.c **** void GPIO_PinLockConfig(GPIO_TypeDef* GPIOx, uint16_t GPIO_Pin)
 264:stm32f4xx_gpio.c **** {
 265:stm32f4xx_gpio.c ****   __IO uint32_t tmp = 0x00010000;
 266:stm32f4xx_gpio.c **** 
 267:stm32f4xx_gpio.c ****   /* Check the parameters */
 268:stm32f4xx_gpio.c ****   assert_param(IS_GPIO_ALL_PERIPH(GPIOx));
 269:stm32f4xx_gpio.c ****   assert_param(IS_GPIO_PIN(GPIO_Pin));
 270:stm32f4xx_gpio.c **** 
 271:stm32f4xx_gpio.c ****   tmp |= GPIO_Pin;
 272:stm32f4xx_gpio.c ****   /* Set LCKK bit */
 273:stm32f4xx_gpio.c ****   GPIOx->LCKR = tmp;
 274:stm32f4xx_gpio.c ****   /* Reset LCKK bit */
 275:stm32f4xx_gpio.c ****   GPIOx->LCKR =  GPIO_Pin;
 276:stm32f4xx_gpio.c ****   /* Set LCKK bit */
 277:stm32f4xx_gpio.c ****   GPIOx->LCKR = tmp;
 278:stm32f4xx_gpio.c ****   /* Read LCKK bit*/
 279:stm32f4xx_gpio.c ****   tmp = GPIOx->LCKR;
 280:stm32f4xx_gpio.c ****   /* Read LCKK bit*/
 281:stm32f4xx_gpio.c ****   tmp = GPIOx->LCKR;
 282:stm32f4xx_gpio.c **** }
 283:stm32f4xx_gpio.c **** 
 284:stm32f4xx_gpio.c **** /**
 285:stm32f4xx_gpio.c ****   * @}
 286:stm32f4xx_gpio.c ****   */
 287:stm32f4xx_gpio.c **** 
 288:stm32f4xx_gpio.c **** /** @defgroup GPIO_Group2 GPIO Read and Write
 289:stm32f4xx_gpio.c ****  *  @brief   GPIO Read and Write
 290:stm32f4xx_gpio.c ****  *
 291:stm32f4xx_gpio.c **** @verbatim   
 292:stm32f4xx_gpio.c ****  ===============================================================================
 293:stm32f4xx_gpio.c ****                          ##### GPIO Read and Write #####
 294:stm32f4xx_gpio.c ****  ===============================================================================  
 295:stm32f4xx_gpio.c **** 
ARM GAS  /tmp/ccfo4Hkn.s 			page 12


 296:stm32f4xx_gpio.c **** @endverbatim
 297:stm32f4xx_gpio.c ****   * @{
 298:stm32f4xx_gpio.c ****   */
 299:stm32f4xx_gpio.c **** 
 300:stm32f4xx_gpio.c **** /**
 301:stm32f4xx_gpio.c ****   * @brief  Reads the specified input port pin.
 302:stm32f4xx_gpio.c ****   * @param  GPIOx: where x can be (A..I) to select the GPIO peripheral for 
 303:stm32f4xx_gpio.c ****   *                STM32F40xx/41xx and STM32F427x/437x devices.
 304:stm32f4xx_gpio.c ****   * @param  GPIO_Pin: specifies the port bit to read.
 305:stm32f4xx_gpio.c ****   *         This parameter can be GPIO_Pin_x where x can be (0..15).
 306:stm32f4xx_gpio.c ****   * @retval The input port pin value.
 307:stm32f4xx_gpio.c ****   */
 308:stm32f4xx_gpio.c **** uint8_t GPIO_ReadInputDataBit(GPIO_TypeDef* GPIOx, uint16_t GPIO_Pin)
 309:stm32f4xx_gpio.c **** {
 310:stm32f4xx_gpio.c ****   uint8_t bitstatus = 0x00;
 311:stm32f4xx_gpio.c **** 
 312:stm32f4xx_gpio.c ****   /* Check the parameters */
 313:stm32f4xx_gpio.c ****   assert_param(IS_GPIO_ALL_PERIPH(GPIOx));
 314:stm32f4xx_gpio.c ****   assert_param(IS_GET_GPIO_PIN(GPIO_Pin));
 315:stm32f4xx_gpio.c **** 
 316:stm32f4xx_gpio.c ****   if ((GPIOx->IDR & GPIO_Pin) != (uint32_t)Bit_RESET)
 317:stm32f4xx_gpio.c ****   {
 318:stm32f4xx_gpio.c ****     bitstatus = (uint8_t)Bit_SET;
 319:stm32f4xx_gpio.c ****   }
 320:stm32f4xx_gpio.c ****   else
 321:stm32f4xx_gpio.c ****   {
 322:stm32f4xx_gpio.c ****     bitstatus = (uint8_t)Bit_RESET;
 323:stm32f4xx_gpio.c ****   }
 324:stm32f4xx_gpio.c ****   return bitstatus;
 325:stm32f4xx_gpio.c **** }
 326:stm32f4xx_gpio.c **** 
 327:stm32f4xx_gpio.c **** /**
 328:stm32f4xx_gpio.c ****   * @brief  Reads the specified GPIO input data port.
 329:stm32f4xx_gpio.c ****   * @param  GPIOx: where x can be (A..I) to select the GPIO peripheral for 
 330:stm32f4xx_gpio.c ****   *                STM32F40xx/41xx and STM32F427x/437x devices. 
 331:stm32f4xx_gpio.c ****   * @retval GPIO input data port value.
 332:stm32f4xx_gpio.c ****   */
 333:stm32f4xx_gpio.c **** uint16_t GPIO_ReadInputData(GPIO_TypeDef* GPIOx)
 334:stm32f4xx_gpio.c **** {
 335:stm32f4xx_gpio.c ****   /* Check the parameters */
 336:stm32f4xx_gpio.c ****   assert_param(IS_GPIO_ALL_PERIPH(GPIOx));
 337:stm32f4xx_gpio.c **** 
 338:stm32f4xx_gpio.c ****   return ((uint16_t)GPIOx->IDR);
 339:stm32f4xx_gpio.c **** }
 340:stm32f4xx_gpio.c **** 
 341:stm32f4xx_gpio.c **** /**
 342:stm32f4xx_gpio.c ****   * @brief  Reads the specified output data port bit.
 343:stm32f4xx_gpio.c ****   * @param  GPIOx: where x can be (A..I) to select the GPIO peripheral for 
 344:stm32f4xx_gpio.c ****   *                STM32F40xx/41xx and STM32F427x/437x devices. 
 345:stm32f4xx_gpio.c ****   * @param  GPIO_Pin: specifies the port bit to read.
 346:stm32f4xx_gpio.c ****   *          This parameter can be GPIO_Pin_x where x can be (0..15).
 347:stm32f4xx_gpio.c ****   * @retval The output port pin value.
 348:stm32f4xx_gpio.c ****   */
 349:stm32f4xx_gpio.c **** uint8_t GPIO_ReadOutputDataBit(GPIO_TypeDef* GPIOx, uint16_t GPIO_Pin)
 350:stm32f4xx_gpio.c **** {
 351:stm32f4xx_gpio.c ****   uint8_t bitstatus = 0x00;
 352:stm32f4xx_gpio.c **** 
ARM GAS  /tmp/ccfo4Hkn.s 			page 13


 353:stm32f4xx_gpio.c ****   /* Check the parameters */
 354:stm32f4xx_gpio.c ****   assert_param(IS_GPIO_ALL_PERIPH(GPIOx));
 355:stm32f4xx_gpio.c ****   assert_param(IS_GET_GPIO_PIN(GPIO_Pin));
 356:stm32f4xx_gpio.c **** 
 357:stm32f4xx_gpio.c ****   if (((GPIOx->ODR) & GPIO_Pin) != (uint32_t)Bit_RESET)
 358:stm32f4xx_gpio.c ****   {
 359:stm32f4xx_gpio.c ****     bitstatus = (uint8_t)Bit_SET;
 360:stm32f4xx_gpio.c ****   }
 361:stm32f4xx_gpio.c ****   else
 362:stm32f4xx_gpio.c ****   {
 363:stm32f4xx_gpio.c ****     bitstatus = (uint8_t)Bit_RESET;
 364:stm32f4xx_gpio.c ****   }
 365:stm32f4xx_gpio.c ****   return bitstatus;
 366:stm32f4xx_gpio.c **** }
 367:stm32f4xx_gpio.c **** 
 368:stm32f4xx_gpio.c **** /**
 369:stm32f4xx_gpio.c ****   * @brief  Reads the specified GPIO output data port.
 370:stm32f4xx_gpio.c ****   * @param  GPIOx: where x can be (A..I) to select the GPIO peripheral for 
 371:stm32f4xx_gpio.c ****   *                STM32F40xx/41xx and STM32F427x/437x devices.  
 372:stm32f4xx_gpio.c ****   * @retval GPIO output data port value.
 373:stm32f4xx_gpio.c ****   */
 374:stm32f4xx_gpio.c **** uint16_t GPIO_ReadOutputData(GPIO_TypeDef* GPIOx)
 375:stm32f4xx_gpio.c **** {
 376:stm32f4xx_gpio.c ****   /* Check the parameters */
 377:stm32f4xx_gpio.c ****   assert_param(IS_GPIO_ALL_PERIPH(GPIOx));
 378:stm32f4xx_gpio.c **** 
 379:stm32f4xx_gpio.c ****   return ((uint16_t)GPIOx->ODR);
 380:stm32f4xx_gpio.c **** }
 381:stm32f4xx_gpio.c **** 
 382:stm32f4xx_gpio.c **** /**
 383:stm32f4xx_gpio.c ****   * @brief  Sets the selected data port bits.
 384:stm32f4xx_gpio.c ****   * @note   This functions uses GPIOx_BSRR register to allow atomic read/modify 
 385:stm32f4xx_gpio.c ****   *         accesses. In this way, there is no risk of an IRQ occurring between
 386:stm32f4xx_gpio.c ****   *         the read and the modify access.
 387:stm32f4xx_gpio.c ****   * @param  GPIOx: where x can be (A..I) to select the GPIO peripheral for 
 388:stm32f4xx_gpio.c ****   *                STM32F40xx/41xx and STM32F427x/437x devices.  
 389:stm32f4xx_gpio.c ****   * @param  GPIO_Pin: specifies the port bits to be written.
 390:stm32f4xx_gpio.c ****   *          This parameter can be any combination of GPIO_Pin_x where x can be (0..15).
 391:stm32f4xx_gpio.c ****   * @retval None
 392:stm32f4xx_gpio.c ****   */
 393:stm32f4xx_gpio.c **** void GPIO_SetBits(GPIO_TypeDef* GPIOx, uint16_t GPIO_Pin)
 394:stm32f4xx_gpio.c **** {
 395:stm32f4xx_gpio.c ****   /* Check the parameters */
 396:stm32f4xx_gpio.c ****   assert_param(IS_GPIO_ALL_PERIPH(GPIOx));
 397:stm32f4xx_gpio.c ****   assert_param(IS_GPIO_PIN(GPIO_Pin));
 398:stm32f4xx_gpio.c **** 
 399:stm32f4xx_gpio.c ****   GPIOx->BSRRL = GPIO_Pin;
 400:stm32f4xx_gpio.c **** }
 401:stm32f4xx_gpio.c **** 
 402:stm32f4xx_gpio.c **** /**
 403:stm32f4xx_gpio.c ****   * @brief  Clears the selected data port bits.
 404:stm32f4xx_gpio.c ****   * @note   This functions uses GPIOx_BSRR register to allow atomic read/modify 
 405:stm32f4xx_gpio.c ****   *         accesses. In this way, there is no risk of an IRQ occurring between
 406:stm32f4xx_gpio.c ****   *         the read and the modify access.
 407:stm32f4xx_gpio.c ****   * @param  GPIOx: where x can be (A..I) to select the GPIO peripheral for 
 408:stm32f4xx_gpio.c ****   *                STM32F40xx/41xx and STM32F427x/437x devices. 
 409:stm32f4xx_gpio.c ****   * @param  GPIO_Pin: specifies the port bits to be written.
ARM GAS  /tmp/ccfo4Hkn.s 			page 14


 410:stm32f4xx_gpio.c ****   *          This parameter can be any combination of GPIO_Pin_x where x can be (0..15).
 411:stm32f4xx_gpio.c ****   * @retval None
 412:stm32f4xx_gpio.c ****   */
 413:stm32f4xx_gpio.c **** void GPIO_ResetBits(GPIO_TypeDef* GPIOx, uint16_t GPIO_Pin)
 414:stm32f4xx_gpio.c **** {
 415:stm32f4xx_gpio.c ****   /* Check the parameters */
 416:stm32f4xx_gpio.c ****   assert_param(IS_GPIO_ALL_PERIPH(GPIOx));
 417:stm32f4xx_gpio.c ****   assert_param(IS_GPIO_PIN(GPIO_Pin));
 418:stm32f4xx_gpio.c **** 
 419:stm32f4xx_gpio.c ****   GPIOx->BSRRH = GPIO_Pin;
 420:stm32f4xx_gpio.c **** }
 421:stm32f4xx_gpio.c **** 
 422:stm32f4xx_gpio.c **** /**
 423:stm32f4xx_gpio.c ****   * @brief  Sets or clears the selected data port bit.
 424:stm32f4xx_gpio.c ****   * @param  GPIOx: where x can be (A..I) to select the GPIO peripheral for 
 425:stm32f4xx_gpio.c ****   *                STM32F40xx/41xx and STM32F427x/437x devices.  
 426:stm32f4xx_gpio.c ****   * @param  GPIO_Pin: specifies the port bit to be written.
 427:stm32f4xx_gpio.c ****   *          This parameter can be one of GPIO_Pin_x where x can be (0..15).
 428:stm32f4xx_gpio.c ****   * @param  BitVal: specifies the value to be written to the selected bit.
 429:stm32f4xx_gpio.c ****   *          This parameter can be one of the BitAction enum values:
 430:stm32f4xx_gpio.c ****   *            @arg Bit_RESET: to clear the port pin
 431:stm32f4xx_gpio.c ****   *            @arg Bit_SET: to set the port pin
 432:stm32f4xx_gpio.c ****   * @retval None
 433:stm32f4xx_gpio.c ****   */
 434:stm32f4xx_gpio.c **** void GPIO_WriteBit(GPIO_TypeDef* GPIOx, uint16_t GPIO_Pin, BitAction BitVal)
 435:stm32f4xx_gpio.c **** {
 436:stm32f4xx_gpio.c ****   /* Check the parameters */
 437:stm32f4xx_gpio.c ****   assert_param(IS_GPIO_ALL_PERIPH(GPIOx));
 438:stm32f4xx_gpio.c ****   assert_param(IS_GET_GPIO_PIN(GPIO_Pin));
 439:stm32f4xx_gpio.c ****   assert_param(IS_GPIO_BIT_ACTION(BitVal));
 440:stm32f4xx_gpio.c **** 
 441:stm32f4xx_gpio.c ****   if (BitVal != Bit_RESET)
 442:stm32f4xx_gpio.c ****   {
 443:stm32f4xx_gpio.c ****     GPIOx->BSRRL = GPIO_Pin;
 444:stm32f4xx_gpio.c ****   }
 445:stm32f4xx_gpio.c ****   else
 446:stm32f4xx_gpio.c ****   {
 447:stm32f4xx_gpio.c ****     GPIOx->BSRRH = GPIO_Pin ;
 448:stm32f4xx_gpio.c ****   }
 449:stm32f4xx_gpio.c **** }
 450:stm32f4xx_gpio.c **** 
 451:stm32f4xx_gpio.c **** /**
 452:stm32f4xx_gpio.c ****   * @brief  Writes data to the specified GPIO data port.
 453:stm32f4xx_gpio.c ****   * @param  GPIOx: where x can be (A..I) to select the GPIO peripheral for 
 454:stm32f4xx_gpio.c ****   *                STM32F40xx/41xx and STM32F427x/437x devices.  
 455:stm32f4xx_gpio.c ****   * @param  PortVal: specifies the value to be written to the port output data register.
 456:stm32f4xx_gpio.c ****   * @retval None
 457:stm32f4xx_gpio.c ****   */
 458:stm32f4xx_gpio.c **** void GPIO_Write(GPIO_TypeDef* GPIOx, uint16_t PortVal)
 459:stm32f4xx_gpio.c **** {
 460:stm32f4xx_gpio.c ****   /* Check the parameters */
 461:stm32f4xx_gpio.c ****   assert_param(IS_GPIO_ALL_PERIPH(GPIOx));
 462:stm32f4xx_gpio.c **** 
 463:stm32f4xx_gpio.c ****   GPIOx->ODR = PortVal;
 464:stm32f4xx_gpio.c **** }
 465:stm32f4xx_gpio.c **** 
 466:stm32f4xx_gpio.c **** /**
ARM GAS  /tmp/ccfo4Hkn.s 			page 15


 467:stm32f4xx_gpio.c ****   * @brief  Toggles the specified GPIO pins..
 468:stm32f4xx_gpio.c ****   * @param  GPIOx: where x can be (A..I) to select the GPIO peripheral for 
 469:stm32f4xx_gpio.c ****   *                STM32F40xx/41xx and STM32F427x/437x devices.  
 470:stm32f4xx_gpio.c ****   * @param  GPIO_Pin: Specifies the pins to be toggled.
 471:stm32f4xx_gpio.c ****   * @retval None
 472:stm32f4xx_gpio.c ****   */
 473:stm32f4xx_gpio.c **** void GPIO_ToggleBits(GPIO_TypeDef* GPIOx, uint16_t GPIO_Pin)
 474:stm32f4xx_gpio.c **** {
 475:stm32f4xx_gpio.c ****   /* Check the parameters */
 476:stm32f4xx_gpio.c ****   assert_param(IS_GPIO_ALL_PERIPH(GPIOx));
 477:stm32f4xx_gpio.c **** 
 478:stm32f4xx_gpio.c ****   GPIOx->ODR ^= GPIO_Pin;
 479:stm32f4xx_gpio.c **** }
 480:stm32f4xx_gpio.c **** 
 481:stm32f4xx_gpio.c **** /**
 482:stm32f4xx_gpio.c ****   * @}
 483:stm32f4xx_gpio.c ****   */
 484:stm32f4xx_gpio.c **** 
 485:stm32f4xx_gpio.c **** /** @defgroup GPIO_Group3 GPIO Alternate functions configuration function
 486:stm32f4xx_gpio.c ****  *  @brief   GPIO Alternate functions configuration function
 487:stm32f4xx_gpio.c ****  *
 488:stm32f4xx_gpio.c **** @verbatim   
 489:stm32f4xx_gpio.c ****  ===============================================================================
 490:stm32f4xx_gpio.c ****            ##### GPIO Alternate functions configuration function #####
 491:stm32f4xx_gpio.c ****  ===============================================================================  
 492:stm32f4xx_gpio.c **** 
 493:stm32f4xx_gpio.c **** @endverbatim
 494:stm32f4xx_gpio.c ****   * @{
 495:stm32f4xx_gpio.c ****   */
 496:stm32f4xx_gpio.c **** 
 497:stm32f4xx_gpio.c **** /**
 498:stm32f4xx_gpio.c ****   * @brief  Changes the mapping of the specified pin.
 499:stm32f4xx_gpio.c ****   * @param  GPIOx: where x can be (A..I) to select the GPIO peripheral for 
 500:stm32f4xx_gpio.c ****   *                STM32F40xx/41xx and STM32F427x/437x devices. 
 501:stm32f4xx_gpio.c ****   * @param  GPIO_PinSource: specifies the pin for the Alternate function.
 502:stm32f4xx_gpio.c ****   *         This parameter can be GPIO_PinSourcex where x can be (0..15).
 503:stm32f4xx_gpio.c ****   * @param  GPIO_AFSelection: selects the pin to used as Alternate function.
 504:stm32f4xx_gpio.c ****   *          This parameter can be one of the following values:
 505:stm32f4xx_gpio.c ****   *            @arg GPIO_AF_RTC_50Hz: Connect RTC_50Hz pin to AF0 (default after reset) 
 506:stm32f4xx_gpio.c ****   *            @arg GPIO_AF_MCO: Connect MCO pin (MCO1 and MCO2) to AF0 (default after reset) 
 507:stm32f4xx_gpio.c ****   *            @arg GPIO_AF_TAMPER: Connect TAMPER pins (TAMPER_1 and TAMPER_2) to AF0 (default aft
 508:stm32f4xx_gpio.c ****   *            @arg GPIO_AF_SWJ: Connect SWJ pins (SWD and JTAG)to AF0 (default after reset) 
 509:stm32f4xx_gpio.c ****   *            @arg GPIO_AF_TRACE: Connect TRACE pins to AF0 (default after reset)
 510:stm32f4xx_gpio.c ****   *            @arg GPIO_AF_TIM1: Connect TIM1 pins to AF1
 511:stm32f4xx_gpio.c ****   *            @arg GPIO_AF_TIM2: Connect TIM2 pins to AF1
 512:stm32f4xx_gpio.c ****   *            @arg GPIO_AF_TIM3: Connect TIM3 pins to AF2
 513:stm32f4xx_gpio.c ****   *            @arg GPIO_AF_TIM4: Connect TIM4 pins to AF2
 514:stm32f4xx_gpio.c ****   *            @arg GPIO_AF_TIM5: Connect TIM5 pins to AF2
 515:stm32f4xx_gpio.c ****   *            @arg GPIO_AF_TIM8: Connect TIM8 pins to AF3
 516:stm32f4xx_gpio.c ****   *            @arg GPIO_AF_TIM9: Connect TIM9 pins to AF3
 517:stm32f4xx_gpio.c ****   *            @arg GPIO_AF_TIM10: Connect TIM10 pins to AF3
 518:stm32f4xx_gpio.c ****   *            @arg GPIO_AF_TIM11: Connect TIM11 pins to AF3
 519:stm32f4xx_gpio.c ****   *            @arg GPIO_AF_I2C1: Connect I2C1 pins to AF4
 520:stm32f4xx_gpio.c ****   *            @arg GPIO_AF_I2C2: Connect I2C2 pins to AF4
 521:stm32f4xx_gpio.c ****   *            @arg GPIO_AF_I2C3: Connect I2C3 pins to AF4
 522:stm32f4xx_gpio.c ****   *            @arg GPIO_AF_SPI1: Connect SPI1 pins to AF5
 523:stm32f4xx_gpio.c ****   *            @arg GPIO_AF_SPI2: Connect SPI2/I2S2 pins to AF5
ARM GAS  /tmp/ccfo4Hkn.s 			page 16


 524:stm32f4xx_gpio.c ****   *            @arg GPIO_AF_SPI4: Connect SPI4 pins to AF5 
 525:stm32f4xx_gpio.c ****   *            @arg GPIO_AF_SPI5: Connect SPI5 pins to AF5 
 526:stm32f4xx_gpio.c ****   *            @arg GPIO_AF_SPI6: Connect SPI6 pins to AF5       
 527:stm32f4xx_gpio.c ****   *            @arg GPIO_AF_SPI3: Connect SPI3/I2S3 pins to AF6
 528:stm32f4xx_gpio.c ****   *            @arg GPIO_AF_I2S3ext: Connect I2S3ext pins to AF7
 529:stm32f4xx_gpio.c ****   *            @arg GPIO_AF_USART1: Connect USART1 pins to AF7
 530:stm32f4xx_gpio.c ****   *            @arg GPIO_AF_USART2: Connect USART2 pins to AF7
 531:stm32f4xx_gpio.c ****   *            @arg GPIO_AF_USART3: Connect USART3 pins to AF7
 532:stm32f4xx_gpio.c ****   *            @arg GPIO_AF_UART4: Connect UART4 pins to AF8
 533:stm32f4xx_gpio.c ****   *            @arg GPIO_AF_UART5: Connect UART5 pins to AF8
 534:stm32f4xx_gpio.c ****   *            @arg GPIO_AF_USART6: Connect USART6 pins to AF8
 535:stm32f4xx_gpio.c ****   *            @arg GPIO_AF_UART7: Connect UART7 pins to AF8
 536:stm32f4xx_gpio.c ****   *            @arg GPIO_AF_UART8: Connect UART8 pins to AF8
 537:stm32f4xx_gpio.c ****   *            @arg GPIO_AF_CAN1: Connect CAN1 pins to AF9
 538:stm32f4xx_gpio.c ****   *            @arg GPIO_AF_CAN2: Connect CAN2 pins to AF9
 539:stm32f4xx_gpio.c ****   *            @arg GPIO_AF_TIM12: Connect TIM12 pins to AF9
 540:stm32f4xx_gpio.c ****   *            @arg GPIO_AF_TIM13: Connect TIM13 pins to AF9
 541:stm32f4xx_gpio.c ****   *            @arg GPIO_AF_TIM14: Connect TIM14 pins to AF9
 542:stm32f4xx_gpio.c ****   *            @arg GPIO_AF_OTG_FS: Connect OTG_FS pins to AF10
 543:stm32f4xx_gpio.c ****   *            @arg GPIO_AF_OTG_HS: Connect OTG_HS pins to AF10
 544:stm32f4xx_gpio.c ****   *            @arg GPIO_AF_ETH: Connect ETHERNET pins to AF11
 545:stm32f4xx_gpio.c ****   *            @arg GPIO_AF_FSMC: Connect FSMC pins to AF12   
 546:stm32f4xx_gpio.c ****   *            @arg GPIO_AF_OTG_HS_FS: Connect OTG HS (configured in FS) pins to AF12
 547:stm32f4xx_gpio.c ****   *            @arg GPIO_AF_SDIO: Connect SDIO pins to AF12
 548:stm32f4xx_gpio.c ****   *            @arg GPIO_AF_DCMI: Connect DCMI pins to AF13 
 549:stm32f4xx_gpio.c ****   *            @arg GPIO_AF_EVENTOUT: Connect EVENTOUT pins to AF15
 550:stm32f4xx_gpio.c ****   * @retval None
 551:stm32f4xx_gpio.c ****   */
 552:stm32f4xx_gpio.c **** void GPIO_PinAFConfig(GPIO_TypeDef* GPIOx, uint16_t GPIO_PinSource, uint8_t GPIO_AF)
 553:stm32f4xx_gpio.c **** {
 554:stm32f4xx_gpio.c ****   uint32_t temp = 0x00;
 555:stm32f4xx_gpio.c ****   uint32_t temp_2 = 0x00;
 556:stm32f4xx_gpio.c ****   
 557:stm32f4xx_gpio.c ****   /* Check the parameters */
 558:stm32f4xx_gpio.c ****   assert_param(IS_GPIO_ALL_PERIPH(GPIOx));
 559:stm32f4xx_gpio.c ****   assert_param(IS_GPIO_PIN_SOURCE(GPIO_PinSource));
 560:stm32f4xx_gpio.c ****   assert_param(IS_GPIO_AF(GPIO_AF));
 561:stm32f4xx_gpio.c ****   
 562:stm32f4xx_gpio.c ****   temp = ((uint32_t)(GPIO_AF) << ((uint32_t)((uint32_t)GPIO_PinSource & (uint32_t)0x07) * 4)) ;
 563:stm32f4xx_gpio.c ****   GPIOx->AFR[GPIO_PinSource >> 0x03] &= ~((uint32_t)0xF << ((uint32_t)((uint32_t)GPIO_PinSource & (
 564:stm32f4xx_gpio.c ****   temp_2 = GPIOx->AFR[GPIO_PinSource >> 0x03] | temp;
 565:stm32f4xx_gpio.c ****   GPIOx->AFR[GPIO_PinSource >> 0x03] = temp_2;
 566:stm32f4xx_gpio.c **** }
 326              		.loc 1 566 0
 327 0064 ADB2     		uxth	r5, r5	@ tmp195, tmp194
 226:stm32f4xx_gpio.c ****         GPIOx->OTYPER |= (uint16_t)(((uint16_t)GPIO_InitStruct->GPIO_OType) << ((uint16_t)pinpos));
 328              		.loc 1 226 0
 329 0066 3543     		orrs	r5, r5, r6	@, D.6060, tmp195, D.6054
 330 0068 4560     		str	r5, [r0, #4]	@ D.6060, GPIOx_11(D)->OTYPER
 331              	.L17:
 230:stm32f4xx_gpio.c ****       GPIOx->PUPDR &= ~(GPIO_PUPDR_PUPDR0 << ((uint16_t)pinpos * 2));
 332              		.loc 1 230 0
 333 006a C568     		ldr	r5, [r0, #12]	@ D.6061, GPIOx_11(D)->PUPDR
 334 006c 2C40     		ands	r4, r4, r5	@, D.6065, D.6031, D.6061
 335 006e C460     		str	r4, [r0, #12]	@ D.6065, GPIOx_11(D)->PUPDR
 231:stm32f4xx_gpio.c ****       GPIOx->PUPDR |= (((uint32_t)GPIO_InitStruct->GPIO_PuPd) << (pinpos * 2));
 336              		.loc 1 231 0
ARM GAS  /tmp/ccfo4Hkn.s 			page 17


 337 0070 CD79     		ldrb	r5, [r1, #7]	@ zero_extendqisi2	@ GPIO_InitStruct_8(D)->GPIO_PuPd, GPIO_InitStruct_8(D)->GPIO
 338 0072 C468     		ldr	r4, [r0, #12]	@ D.6066, GPIOx_11(D)->PUPDR
 339 0074 05FA02F2 		lsl	r2, r5, r2	@ tmp198, GPIO_InitStruct_8(D)->GPIO_PuPd, D.6148
 340 0078 2243     		orrs	r2, r2, r4	@, D.6070, tmp198, D.6066
 341 007a C260     		str	r2, [r0, #12]	@ D.6070, GPIOx_11(D)->PUPDR
 342              	.L16:
 201:stm32f4xx_gpio.c ****   for (pinpos = 0x00; pinpos < 0x10; pinpos++)
 343              		.loc 1 201 0
 344 007c 0133     		adds	r3, r3, #1	@ pinpos, pinpos,
 345              	.LVL34:
 346 007e 102B     		cmp	r3, #16	@ pinpos,
 347 0080 C2D1     		bne	.L18	@,
 234:stm32f4xx_gpio.c **** }
 348              		.loc 1 234 0
 349 0082 BDE8F081 		pop	{r4, r5, r6, r7, r8, pc}	@
 350              		.cfi_endproc
 351              	.LFE111:
 352              		.size	GPIO_Init, .-GPIO_Init
 353              		.section	.text.GPIO_StructInit,"ax",%progbits
 354              		.align	1
 355              		.global	GPIO_StructInit
 356              		.thumb
 357              		.thumb_func
 358              		.type	GPIO_StructInit, %function
 359              	GPIO_StructInit:
 360              	.LFB112:
 242:stm32f4xx_gpio.c **** {
 361              		.loc 1 242 0
 362              		.cfi_startproc
 363              		@ args = 0, pretend = 0, frame = 0
 364              		@ frame_needed = 0, uses_anonymous_args = 0
 365              		@ link register save eliminated.
 366              	.LVL35:
 245:stm32f4xx_gpio.c ****   GPIO_InitStruct->GPIO_Mode = GPIO_Mode_IN;
 367              		.loc 1 245 0
 368 0000 0021     		movs	r1, #0	@ tmp136,
 244:stm32f4xx_gpio.c ****   GPIO_InitStruct->GPIO_Pin  = GPIO_Pin_All;
 369              		.loc 1 244 0
 370 0002 4FF6FF73 		movw	r3, #65535	@ tmp135,
 371 0006 0360     		str	r3, [r0, #0]	@ tmp135, GPIO_InitStruct_1(D)->GPIO_Pin
 245:stm32f4xx_gpio.c ****   GPIO_InitStruct->GPIO_Mode = GPIO_Mode_IN;
 372              		.loc 1 245 0
 373 0008 0171     		strb	r1, [r0, #4]	@ tmp136, GPIO_InitStruct_1(D)->GPIO_Mode
 246:stm32f4xx_gpio.c ****   GPIO_InitStruct->GPIO_Speed = GPIO_Speed_2MHz;
 374              		.loc 1 246 0
 375 000a 4171     		strb	r1, [r0, #5]	@ tmp136, GPIO_InitStruct_1(D)->GPIO_Speed
 247:stm32f4xx_gpio.c ****   GPIO_InitStruct->GPIO_OType = GPIO_OType_PP;
 376              		.loc 1 247 0
 377 000c 8171     		strb	r1, [r0, #6]	@ tmp136, GPIO_InitStruct_1(D)->GPIO_OType
 248:stm32f4xx_gpio.c ****   GPIO_InitStruct->GPIO_PuPd = GPIO_PuPd_NOPULL;
 378              		.loc 1 248 0
 379 000e C171     		strb	r1, [r0, #7]	@ tmp136, GPIO_InitStruct_1(D)->GPIO_PuPd
 380 0010 7047     		bx	lr	@
 381              		.cfi_endproc
 382              	.LFE112:
 383              		.size	GPIO_StructInit, .-GPIO_StructInit
 384              		.section	.text.GPIO_PinLockConfig,"ax",%progbits
ARM GAS  /tmp/ccfo4Hkn.s 			page 18


 385              		.align	1
 386              		.global	GPIO_PinLockConfig
 387              		.thumb
 388              		.thumb_func
 389              		.type	GPIO_PinLockConfig, %function
 390              	GPIO_PinLockConfig:
 391              	.LFB113:
 264:stm32f4xx_gpio.c **** {
 392              		.loc 1 264 0
 393              		.cfi_startproc
 394              		@ args = 0, pretend = 0, frame = 8
 395              		@ frame_needed = 0, uses_anonymous_args = 0
 396              		@ link register save eliminated.
 397              	.LVL36:
 398 0000 82B0     		sub	sp, sp, #8	@,,
 399              	.LCFI2:
 400              		.cfi_def_cfa_offset 8
 265:stm32f4xx_gpio.c ****   __IO uint32_t tmp = 0x00010000;
 401              		.loc 1 265 0
 402 0002 4FF48033 		mov	r3, #65536	@ tmp143,
 403 0006 0193     		str	r3, [sp, #4]	@ tmp143, tmp
 404              	.LVL37:
 271:stm32f4xx_gpio.c ****   tmp |= GPIO_Pin;
 405              		.loc 1 271 0
 406 0008 019A     		ldr	r2, [sp, #4]	@ tmp.0, tmp
 407 000a 41EA0203 		orr	r3, r1, r2	@ tmp.1, GPIO_Pin, tmp.0
 408              	.LVL38:
 409 000e 0193     		str	r3, [sp, #4]	@ tmp.1, tmp
 410              	.LVL39:
 273:stm32f4xx_gpio.c ****   GPIOx->LCKR = tmp;
 411              		.loc 1 273 0
 412 0010 019A     		ldr	r2, [sp, #4]	@ tmp.2, tmp
 413 0012 C261     		str	r2, [r0, #28]	@ tmp.2, GPIOx_6(D)->LCKR
 275:stm32f4xx_gpio.c ****   GPIOx->LCKR =  GPIO_Pin;
 414              		.loc 1 275 0
 415 0014 C161     		str	r1, [r0, #28]	@ GPIO_Pin, GPIOx_6(D)->LCKR
 277:stm32f4xx_gpio.c ****   GPIOx->LCKR = tmp;
 416              		.loc 1 277 0
 417 0016 0199     		ldr	r1, [sp, #4]	@ tmp.3, tmp
 418              	.LVL40:
 419 0018 C161     		str	r1, [r0, #28]	@ tmp.3, GPIOx_6(D)->LCKR
 279:stm32f4xx_gpio.c ****   tmp = GPIOx->LCKR;
 420              		.loc 1 279 0
 421 001a C369     		ldr	r3, [r0, #28]	@ tmp.4, GPIOx_6(D)->LCKR
 422 001c 0193     		str	r3, [sp, #4]	@ tmp.4, tmp
 281:stm32f4xx_gpio.c ****   tmp = GPIOx->LCKR;
 423              		.loc 1 281 0
 424 001e C069     		ldr	r0, [r0, #28]	@ tmp.5, GPIOx_6(D)->LCKR
 425              	.LVL41:
 426 0020 0190     		str	r0, [sp, #4]	@ tmp.5, tmp
 282:stm32f4xx_gpio.c **** }
 427              		.loc 1 282 0
 428 0022 02B0     		add	sp, sp, #8	@,,
 429 0024 7047     		bx	lr
 430              		.cfi_endproc
 431              	.LFE113:
 432              		.size	GPIO_PinLockConfig, .-GPIO_PinLockConfig
ARM GAS  /tmp/ccfo4Hkn.s 			page 19


 433              		.section	.text.GPIO_ReadInputDataBit,"ax",%progbits
 434              		.align	1
 435              		.global	GPIO_ReadInputDataBit
 436              		.thumb
 437              		.thumb_func
 438              		.type	GPIO_ReadInputDataBit, %function
 439              	GPIO_ReadInputDataBit:
 440              	.LFB114:
 309:stm32f4xx_gpio.c **** {
 441              		.loc 1 309 0
 442              		.cfi_startproc
 443              		@ args = 0, pretend = 0, frame = 0
 444              		@ frame_needed = 0, uses_anonymous_args = 0
 445              		@ link register save eliminated.
 446              	.LVL42:
 316:stm32f4xx_gpio.c ****   if ((GPIOx->IDR & GPIO_Pin) != (uint32_t)Bit_RESET)
 447              		.loc 1 316 0
 448 0000 0369     		ldr	r3, [r0, #16]	@ D.6007, GPIOx_3(D)->IDR
 449              	.LVL43:
 450 0002 1942     		tst	r1, r3	@ GPIO_Pin, D.6007
 325:stm32f4xx_gpio.c **** }
 451              		.loc 1 325 0
 452 0004 0CBF     		ite	eq	@
 453 0006 0020     		moveq	r0, #0	@,
 454 0008 0120     		movne	r0, #1	@,
 455              	.LVL44:
 456 000a 7047     		bx	lr	@
 457              		.cfi_endproc
 458              	.LFE114:
 459              		.size	GPIO_ReadInputDataBit, .-GPIO_ReadInputDataBit
 460              		.section	.text.GPIO_ReadInputData,"ax",%progbits
 461              		.align	1
 462              		.global	GPIO_ReadInputData
 463              		.thumb
 464              		.thumb_func
 465              		.type	GPIO_ReadInputData, %function
 466              	GPIO_ReadInputData:
 467              	.LFB115:
 334:stm32f4xx_gpio.c **** {
 468              		.loc 1 334 0
 469              		.cfi_startproc
 470              		@ args = 0, pretend = 0, frame = 0
 471              		@ frame_needed = 0, uses_anonymous_args = 0
 472              		@ link register save eliminated.
 473              	.LVL45:
 338:stm32f4xx_gpio.c ****   return ((uint16_t)GPIOx->IDR);
 474              		.loc 1 338 0
 475 0000 0069     		ldr	r0, [r0, #16]	@ D.6005, GPIOx_1(D)->IDR
 476              	.LVL46:
 339:stm32f4xx_gpio.c **** }
 477              		.loc 1 339 0
 478 0002 80B2     		uxth	r0, r0	@, D.6005
 479 0004 7047     		bx	lr	@
 480              		.cfi_endproc
 481              	.LFE115:
 482              		.size	GPIO_ReadInputData, .-GPIO_ReadInputData
 483              		.section	.text.GPIO_ReadOutputDataBit,"ax",%progbits
ARM GAS  /tmp/ccfo4Hkn.s 			page 20


 484              		.align	1
 485              		.global	GPIO_ReadOutputDataBit
 486              		.thumb
 487              		.thumb_func
 488              		.type	GPIO_ReadOutputDataBit, %function
 489              	GPIO_ReadOutputDataBit:
 490              	.LFB116:
 350:stm32f4xx_gpio.c **** {
 491              		.loc 1 350 0
 492              		.cfi_startproc
 493              		@ args = 0, pretend = 0, frame = 0
 494              		@ frame_needed = 0, uses_anonymous_args = 0
 495              		@ link register save eliminated.
 496              	.LVL47:
 357:stm32f4xx_gpio.c ****   if (((GPIOx->ODR) & GPIO_Pin) != (uint32_t)Bit_RESET)
 497              		.loc 1 357 0
 498 0000 4369     		ldr	r3, [r0, #20]	@ D.5996, GPIOx_3(D)->ODR
 499              	.LVL48:
 500 0002 1942     		tst	r1, r3	@ GPIO_Pin, D.5996
 366:stm32f4xx_gpio.c **** }
 501              		.loc 1 366 0
 502 0004 0CBF     		ite	eq	@
 503 0006 0020     		moveq	r0, #0	@,
 504 0008 0120     		movne	r0, #1	@,
 505              	.LVL49:
 506 000a 7047     		bx	lr	@
 507              		.cfi_endproc
 508              	.LFE116:
 509              		.size	GPIO_ReadOutputDataBit, .-GPIO_ReadOutputDataBit
 510              		.section	.text.GPIO_ReadOutputData,"ax",%progbits
 511              		.align	1
 512              		.global	GPIO_ReadOutputData
 513              		.thumb
 514              		.thumb_func
 515              		.type	GPIO_ReadOutputData, %function
 516              	GPIO_ReadOutputData:
 517              	.LFB117:
 375:stm32f4xx_gpio.c **** {
 518              		.loc 1 375 0
 519              		.cfi_startproc
 520              		@ args = 0, pretend = 0, frame = 0
 521              		@ frame_needed = 0, uses_anonymous_args = 0
 522              		@ link register save eliminated.
 523              	.LVL50:
 379:stm32f4xx_gpio.c ****   return ((uint16_t)GPIOx->ODR);
 524              		.loc 1 379 0
 525 0000 4069     		ldr	r0, [r0, #20]	@ D.5994, GPIOx_1(D)->ODR
 526              	.LVL51:
 380:stm32f4xx_gpio.c **** }
 527              		.loc 1 380 0
 528 0002 80B2     		uxth	r0, r0	@, D.5994
 529 0004 7047     		bx	lr	@
 530              		.cfi_endproc
 531              	.LFE117:
 532              		.size	GPIO_ReadOutputData, .-GPIO_ReadOutputData
 533              		.section	.text.GPIO_SetBits,"ax",%progbits
 534              		.align	1
ARM GAS  /tmp/ccfo4Hkn.s 			page 21


 535              		.global	GPIO_SetBits
 536              		.thumb
 537              		.thumb_func
 538              		.type	GPIO_SetBits, %function
 539              	GPIO_SetBits:
 540              	.LFB118:
 394:stm32f4xx_gpio.c **** {
 541              		.loc 1 394 0
 542              		.cfi_startproc
 543              		@ args = 0, pretend = 0, frame = 0
 544              		@ frame_needed = 0, uses_anonymous_args = 0
 545              		@ link register save eliminated.
 546              	.LVL52:
 399:stm32f4xx_gpio.c ****   GPIOx->BSRRL = GPIO_Pin;
 547              		.loc 1 399 0
 548 0000 0183     		strh	r1, [r0, #24]	@ movhi	@ GPIO_Pin, GPIOx_1(D)->BSRRL
 549 0002 7047     		bx	lr	@
 550              		.cfi_endproc
 551              	.LFE118:
 552              		.size	GPIO_SetBits, .-GPIO_SetBits
 553              		.section	.text.GPIO_ResetBits,"ax",%progbits
 554              		.align	1
 555              		.global	GPIO_ResetBits
 556              		.thumb
 557              		.thumb_func
 558              		.type	GPIO_ResetBits, %function
 559              	GPIO_ResetBits:
 560              	.LFB119:
 414:stm32f4xx_gpio.c **** {
 561              		.loc 1 414 0
 562              		.cfi_startproc
 563              		@ args = 0, pretend = 0, frame = 0
 564              		@ frame_needed = 0, uses_anonymous_args = 0
 565              		@ link register save eliminated.
 566              	.LVL53:
 419:stm32f4xx_gpio.c ****   GPIOx->BSRRH = GPIO_Pin;
 567              		.loc 1 419 0
 568 0000 4183     		strh	r1, [r0, #26]	@ movhi	@ GPIO_Pin, GPIOx_1(D)->BSRRH
 569 0002 7047     		bx	lr	@
 570              		.cfi_endproc
 571              	.LFE119:
 572              		.size	GPIO_ResetBits, .-GPIO_ResetBits
 573              		.section	.text.GPIO_WriteBit,"ax",%progbits
 574              		.align	1
 575              		.global	GPIO_WriteBit
 576              		.thumb
 577              		.thumb_func
 578              		.type	GPIO_WriteBit, %function
 579              	GPIO_WriteBit:
 580              	.LFB120:
 435:stm32f4xx_gpio.c **** {
 581              		.loc 1 435 0
 582              		.cfi_startproc
 583              		@ args = 0, pretend = 0, frame = 0
 584              		@ frame_needed = 0, uses_anonymous_args = 0
 585              		@ link register save eliminated.
 586              	.LVL54:
ARM GAS  /tmp/ccfo4Hkn.s 			page 22


 441:stm32f4xx_gpio.c ****   if (BitVal != Bit_RESET)
 587              		.loc 1 441 0
 588 0000 0AB1     		cbz	r2, .L29	@ BitVal,
 443:stm32f4xx_gpio.c ****     GPIOx->BSRRL = GPIO_Pin;
 589              		.loc 1 443 0
 590 0002 0183     		strh	r1, [r0, #24]	@ movhi	@ GPIO_Pin, GPIOx_2(D)->BSRRL
 591 0004 7047     		bx	lr	@
 592              	.L29:
 447:stm32f4xx_gpio.c ****     GPIOx->BSRRH = GPIO_Pin ;
 593              		.loc 1 447 0
 594 0006 4183     		strh	r1, [r0, #26]	@ movhi	@ GPIO_Pin, GPIOx_2(D)->BSRRH
 595 0008 7047     		bx	lr	@
 596              		.cfi_endproc
 597              	.LFE120:
 598              		.size	GPIO_WriteBit, .-GPIO_WriteBit
 599              		.section	.text.GPIO_Write,"ax",%progbits
 600              		.align	1
 601              		.global	GPIO_Write
 602              		.thumb
 603              		.thumb_func
 604              		.type	GPIO_Write, %function
 605              	GPIO_Write:
 606              	.LFB121:
 459:stm32f4xx_gpio.c **** {
 607              		.loc 1 459 0
 608              		.cfi_startproc
 609              		@ args = 0, pretend = 0, frame = 0
 610              		@ frame_needed = 0, uses_anonymous_args = 0
 611              		@ link register save eliminated.
 612              	.LVL55:
 463:stm32f4xx_gpio.c ****   GPIOx->ODR = PortVal;
 613              		.loc 1 463 0
 614 0000 4161     		str	r1, [r0, #20]	@ PortVal, GPIOx_3(D)->ODR
 615 0002 7047     		bx	lr	@
 616              		.cfi_endproc
 617              	.LFE121:
 618              		.size	GPIO_Write, .-GPIO_Write
 619              		.section	.text.GPIO_ToggleBits,"ax",%progbits
 620              		.align	1
 621              		.global	GPIO_ToggleBits
 622              		.thumb
 623              		.thumb_func
 624              		.type	GPIO_ToggleBits, %function
 625              	GPIO_ToggleBits:
 626              	.LFB122:
 474:stm32f4xx_gpio.c **** {
 627              		.loc 1 474 0
 628              		.cfi_startproc
 629              		@ args = 0, pretend = 0, frame = 0
 630              		@ frame_needed = 0, uses_anonymous_args = 0
 631              		@ link register save eliminated.
 632              	.LVL56:
 478:stm32f4xx_gpio.c ****   GPIOx->ODR ^= GPIO_Pin;
 633              		.loc 1 478 0
 634 0000 4369     		ldr	r3, [r0, #20]	@ D.5986, GPIOx_1(D)->ODR
 635 0002 5940     		eors	r1, r1, r3	@, D.5988, GPIO_Pin, D.5986
 636              	.LVL57:
ARM GAS  /tmp/ccfo4Hkn.s 			page 23


 637 0004 4161     		str	r1, [r0, #20]	@ D.5988, GPIOx_1(D)->ODR
 638 0006 7047     		bx	lr	@
 639              		.cfi_endproc
 640              	.LFE122:
 641              		.size	GPIO_ToggleBits, .-GPIO_ToggleBits
 642              		.section	.text.GPIO_PinAFConfig,"ax",%progbits
 643              		.align	1
 644              		.global	GPIO_PinAFConfig
 645              		.thumb
 646              		.thumb_func
 647              		.type	GPIO_PinAFConfig, %function
 648              	GPIO_PinAFConfig:
 649              	.LFB123:
 553:stm32f4xx_gpio.c **** {
 650              		.loc 1 553 0
 651              		.cfi_startproc
 652              		@ args = 0, pretend = 0, frame = 0
 653              		@ frame_needed = 0, uses_anonymous_args = 0
 654              	.LVL58:
 562:stm32f4xx_gpio.c ****   temp = ((uint32_t)(GPIO_AF) << ((uint32_t)((uint32_t)GPIO_PinSource & (uint32_t)0x07) * 4)) ;
 655              		.loc 1 562 0
 656 0000 01F00703 		and	r3, r1, #7	@ tmp152, GPIO_PinSource,
 563:stm32f4xx_gpio.c ****   GPIOx->AFR[GPIO_PinSource >> 0x03] &= ~((uint32_t)0xF << ((uint32_t)((uint32_t)GPIO_PinSource & (
 657              		.loc 1 563 0
 658 0004 C908     		lsrs	r1, r1, #3	@ D.5980, GPIO_PinSource,
 659              	.LVL59:
 660 0006 0831     		adds	r1, r1, #8	@ tmp154, D.5980,
 553:stm32f4xx_gpio.c **** {
 661              		.loc 1 553 0
 662 0008 30B5     		push	{r4, r5, lr}	@
 663              	.LCFI3:
 664              		.cfi_def_cfa_offset 12
 665              		.cfi_offset 4, -12
 666              		.cfi_offset 5, -8
 667              		.cfi_offset 14, -4
 562:stm32f4xx_gpio.c ****   temp = ((uint32_t)(GPIO_AF) << ((uint32_t)((uint32_t)GPIO_PinSource & (uint32_t)0x07) * 4)) ;
 668              		.loc 1 562 0
 669 000a 9B00     		lsls	r3, r3, #2	@ D.5978, tmp152,
 670              	.LVL60:
 563:stm32f4xx_gpio.c ****   GPIOx->AFR[GPIO_PinSource >> 0x03] &= ~((uint32_t)0xF << ((uint32_t)((uint32_t)GPIO_PinSource & (
 671              		.loc 1 563 0
 672 000c 50F82150 		ldr	r5, [r0, r1, lsl #2]	@ D.5981, GPIOx_15(D)->AFR
 673 0010 0F24     		movs	r4, #15	@ tmp156,
 674 0012 04FA03F4 		lsl	r4, r4, r3	@ tmp155, tmp156, D.5978
 675 0016 25EA0404 		bic	r4, r5, r4	@ D.5984, D.5981, tmp155
 676 001a 40F82140 		str	r4, [r0, r1, lsl #2]	@ D.5984, GPIOx_15(D)->AFR
 564:stm32f4xx_gpio.c ****   temp_2 = GPIOx->AFR[GPIO_PinSource >> 0x03] | temp;
 677              		.loc 1 564 0
 678 001e 50F82140 		ldr	r4, [r0, r1, lsl #2]	@ D.5985, GPIOx_15(D)->AFR
 562:stm32f4xx_gpio.c ****   temp = ((uint32_t)(GPIO_AF) << ((uint32_t)((uint32_t)GPIO_PinSource & (uint32_t)0x07) * 4)) ;
 679              		.loc 1 562 0
 680 0022 02FA03F2 		lsl	r2, r2, r3	@ tmp160, GPIO_AF, D.5978
 681              	.LVL61:
 564:stm32f4xx_gpio.c ****   temp_2 = GPIOx->AFR[GPIO_PinSource >> 0x03] | temp;
 682              		.loc 1 564 0
 683 0026 1443     		orrs	r4, r4, r2	@, temp_2, D.5985, tmp160
 684              	.LVL62:
ARM GAS  /tmp/ccfo4Hkn.s 			page 24


 565:stm32f4xx_gpio.c ****   GPIOx->AFR[GPIO_PinSource >> 0x03] = temp_2;
 685              		.loc 1 565 0
 686 0028 40F82140 		str	r4, [r0, r1, lsl #2]	@ temp_2, GPIOx_15(D)->AFR
 687 002c 30BD     		pop	{r4, r5, pc}	@
 688              		.cfi_endproc
 689              	.LFE123:
 690              		.size	GPIO_PinAFConfig, .-GPIO_PinAFConfig
 691              		.text
 692              	.Letext0:
 693              		.file 2 "/usr/bin/../lib/gcc/arm-none-eabi/4.7.4/../../../../arm-none-eabi/include/stdint.h"
 694              		.file 3 "stm32f4xx.h"
 695              		.file 4 "stm32f4xx_gpio.h"
 696              		.file 5 "cmsis/core_cm4.h"
 697              		.file 6 "stm32f4xx_rcc.h"