ARM GAS  /tmp/ccsCjCvg.s 			page 1


   1              		.syntax unified
   2              		.cpu cortex-m4
   3              		.eabi_attribute 27, 3	@ Tag_ABI_HardFP_use
   4              		.eabi_attribute 28, 1	@ Tag_ABI_VFP_args
   5              		.fpu fpv4-sp-d16
   6              		.eabi_attribute 20, 1	@ Tag_ABI_FP_denormal
   7              		.eabi_attribute 21, 1	@ Tag_ABI_FP_exceptions
   8              		.eabi_attribute 23, 3	@ Tag_ABI_FP_number_model
   9              		.eabi_attribute 24, 1	@ Tag_ABI_align8_needed
  10              		.eabi_attribute 25, 1	@ Tag_ABI_align8_preserved
  11              		.eabi_attribute 26, 1	@ Tag_ABI_enum_size
  12              		.eabi_attribute 30, 4	@ Tag_ABI_optimization_goals
  13              		.eabi_attribute 34, 1	@ Tag_CPU_unaligned_access
  14              		.eabi_attribute 18, 4	@ Tag_ABI_PCS_wchar_t
  15              		.file	"stm32f4xx_exti.c"
  16              	@ GNU C (GNU Tools for ARM Embedded Processors) version 4.7.4 20130913 (release) [ARM/embedded-4_7-
  17              	@	compiled by GNU C version 4.7.3, GMP version 5.0.5, MPFR version 3.1.1-p2, MPC version 0.9
  18              	@ GGC heuristics: --param ggc-min-expand=100 --param ggc-min-heapsize=131072
  19              	@ options passed:  -I . -I ../ -I cmsis/ -imultilib armv7e-m/fpu
  20              	@ -iprefix /usr/bin/../lib/gcc/arm-none-eabi/4.7.4/
  21              	@ -isysroot /usr/bin/../arm-none-eabi -MD stm32f4xx_exti.d
  22              	@ -MF .dep/stm32f4xx_exti.o.d -MP -MQ stm32f4xx_exti.o -D__USES_INITFINI__
  23              	@ -D __FPU_USED=1 -D __arm__ -D __ASSEMBLY__ -D USE_STDPERIPH_DRIVER
  24              	@ -D STM32F4XX -D HSE_VALUE=8000000 -D __FPU_PRESENT=1 -D __FPU_USED=1
  25              	@ -D STM32F405VG -D USE_USB_OTG_FS -D RUN_FROM_FLASH=1 stm32f4xx_exti.c
  26              	@ -mthumb -mcpu=cortex-m4 -mfloat-abi=hard -mfpu=fpv4-sp-d16 -mthumb
  27              	@ -auxbase-strip stm32f4xx_exti.o -gdwarf-2 -Os -Wall -Wstrict-prototypes
  28              	@ -std=gnu99 -falign-functions=16 -fno-inline -fomit-frame-pointer
  29              	@ -fverbose-asm -ffunction-sections -fdata-sections
  30              	@ options enabled:  -fauto-inc-dec -fbranch-count-reg -fcaller-saves
  31              	@ -fcombine-stack-adjustments -fcommon -fcompare-elim -fcprop-registers
  32              	@ -fcrossjumping -fcse-follow-jumps -fdata-sections -fdebug-types-section
  33              	@ -fdefer-pop -fdelete-null-pointer-checks -fdevirtualize -fdwarf2-cfi-asm
  34              	@ -fearly-inlining -feliminate-unused-debug-types -fexpensive-optimizations
  35              	@ -fforward-propagate -ffunction-cse -ffunction-sections -fgcse -fgcse-lm
  36              	@ -fgnu-runtime -fguess-branch-probability -fident -fif-conversion
  37              	@ -fif-conversion2 -findirect-inlining -finline-atomics -finline-functions
  38              	@ -finline-functions-called-once -finline-small-functions -fipa-cp
  39              	@ -fipa-profile -fipa-pure-const -fipa-reference -fipa-sra
  40              	@ -fira-share-save-slots -fira-share-spill-slots -fivopts
  41              	@ -fkeep-static-consts -fleading-underscore -fmath-errno -fmerge-constants
  42              	@ -fmerge-debug-strings -fomit-frame-pointer -foptimize-register-move
  43              	@ -foptimize-sibling-calls -fpartial-inlining -fpeephole -fpeephole2
  44              	@ -fprefetch-loop-arrays -freg-struct-return -fregmove -frename-registers
  45              	@ -freorder-blocks -freorder-functions -frerun-cse-after-loop
  46              	@ -fsched-critical-path-heuristic -fsched-dep-count-heuristic
  47              	@ -fsched-group-heuristic -fsched-interblock -fsched-last-insn-heuristic
  48              	@ -fsched-rank-heuristic -fsched-spec -fsched-spec-insn-heuristic
  49              	@ -fsched-stalled-insns-dep -fschedule-insns2 -fsection-anchors
  50              	@ -fshow-column -fshrink-wrap -fsigned-zeros -fsplit-ivs-in-unroller
  51              	@ -fsplit-wide-types -fstrict-aliasing -fstrict-overflow
  52              	@ -fstrict-volatile-bitfields -fthread-jumps -ftoplevel-reorder
  53              	@ -ftrapping-math -ftree-bit-ccp -ftree-builtin-call-dce -ftree-ccp
  54              	@ -ftree-ch -ftree-copy-prop -ftree-copyrename -ftree-cselim -ftree-dce
  55              	@ -ftree-dominator-opts -ftree-dse -ftree-forwprop -ftree-fre
  56              	@ -ftree-loop-if-convert -ftree-loop-im -ftree-loop-ivcanon
  57              	@ -ftree-loop-optimize -ftree-parallelize-loops= -ftree-phiprop -ftree-pre
ARM GAS  /tmp/ccsCjCvg.s 			page 2


  58              	@ -ftree-pta -ftree-reassoc -ftree-scev-cprop -ftree-sink
  59              	@ -ftree-slp-vectorize -ftree-sra -ftree-switch-conversion
  60              	@ -ftree-tail-merge -ftree-ter -ftree-vect-loop-version -ftree-vrp
  61              	@ -funit-at-a-time -funroll-loops -fvar-tracking -fvar-tracking-assignments
  62              	@ -fverbose-asm -fweb -fzero-initialized-in-bss -mlittle-endian
  63              	@ -msched-prolog -mthumb -munaligned-access -mvectorize-with-neon-quad
  64              	
  65              		.text
  66              	.Ltext0:
  67              		.cfi_sections	.debug_frame
  68              		.section	.text.EXTI_DeInit,"ax",%progbits
  69              		.align	1
  70              		.global	EXTI_DeInit
  71              		.thumb
  72              		.thumb_func
  73              		.type	EXTI_DeInit, %function
  74              	EXTI_DeInit:
  75              	.LFB110:
  76              		.file 1 "stm32f4xx_exti.c"
   1:stm32f4xx_exti.c **** /**
   2:stm32f4xx_exti.c ****   ******************************************************************************
   3:stm32f4xx_exti.c ****   * @file    stm32f4xx_exti.c
   4:stm32f4xx_exti.c ****   * @author  MCD Application Team
   5:stm32f4xx_exti.c ****   * @version V1.1.0
   6:stm32f4xx_exti.c ****   * @date    11-January-2013
   7:stm32f4xx_exti.c ****   * @brief   This file provides firmware functions to manage the following 
   8:stm32f4xx_exti.c ****   *          functionalities of the EXTI peripheral:           
   9:stm32f4xx_exti.c ****   *           + Initialization and Configuration
  10:stm32f4xx_exti.c ****   *           + Interrupts and flags management
  11:stm32f4xx_exti.c ****   *
  12:stm32f4xx_exti.c **** @verbatim  
  13:stm32f4xx_exti.c **** 
  14:stm32f4xx_exti.c ****  ===================================================================
  15:stm32f4xx_exti.c ****                        ##### EXTI features #####
  16:stm32f4xx_exti.c ****  ===================================================================
  17:stm32f4xx_exti.c **** 
  18:stm32f4xx_exti.c ****  [..] External interrupt/event lines are mapped as following:
  19:stm32f4xx_exti.c ****    (#) All available GPIO pins are connected to the 16 external 
  20:stm32f4xx_exti.c ****        interrupt/event lines from EXTI0 to EXTI15.
  21:stm32f4xx_exti.c ****    (#) EXTI line 16 is connected to the PVD Output
  22:stm32f4xx_exti.c ****    (#) EXTI line 17 is connected to the RTC Alarm event
  23:stm32f4xx_exti.c ****    (#) EXTI line 18 is connected to the USB OTG FS Wakeup from suspend event                       
  24:stm32f4xx_exti.c ****    (#) EXTI line 19 is connected to the Ethernet Wakeup event
  25:stm32f4xx_exti.c ****    (#) EXTI line 20 is connected to the USB OTG HS (configured in FS) Wakeup event 
  26:stm32f4xx_exti.c ****    (#) EXTI line 21 is connected to the RTC Tamper and Time Stamp events                           
  27:stm32f4xx_exti.c ****    (#) EXTI line 22 is connected to the RTC Wakeup event
  28:stm32f4xx_exti.c ****           
  29:stm32f4xx_exti.c ****           
  30:stm32f4xx_exti.c ****                 ##### How to use this driver #####
  31:stm32f4xx_exti.c ****  ===================================================================  
  32:stm32f4xx_exti.c ****  
  33:stm32f4xx_exti.c ****  [..] In order to use an I/O pin as an external interrupt source, follow steps 
  34:stm32f4xx_exti.c ****       below:
  35:stm32f4xx_exti.c ****    (#) Configure the I/O in input mode using GPIO_Init()
  36:stm32f4xx_exti.c ****    (#) Select the input source pin for the EXTI line using SYSCFG_EXTILineConfig()
  37:stm32f4xx_exti.c ****    (#) Select the mode(interrupt, event) and configure the trigger 
  38:stm32f4xx_exti.c ****        selection (Rising, falling or both) using EXTI_Init()
ARM GAS  /tmp/ccsCjCvg.s 			page 3


  39:stm32f4xx_exti.c ****    (#) Configure NVIC IRQ channel mapped to the EXTI line using NVIC_Init()
  40:stm32f4xx_exti.c **** 
  41:stm32f4xx_exti.c ****  [..]     
  42:stm32f4xx_exti.c ****    (@) SYSCFG APB clock must be enabled to get write access to SYSCFG_EXTICRx
  43:stm32f4xx_exti.c ****        registers using RCC_APB2PeriphClockCmd(RCC_APB2Periph_SYSCFG, ENABLE);
  44:stm32f4xx_exti.c ****             
  45:stm32f4xx_exti.c **** @endverbatim                  
  46:stm32f4xx_exti.c ****   *
  47:stm32f4xx_exti.c ****   ******************************************************************************
  48:stm32f4xx_exti.c ****   * @attention
  49:stm32f4xx_exti.c ****   *
  50:stm32f4xx_exti.c ****   * <h2><center>&copy; COPYRIGHT 2013 STMicroelectronics</center></h2>
  51:stm32f4xx_exti.c ****   *
  52:stm32f4xx_exti.c ****   * Licensed under MCD-ST Liberty SW License Agreement V2, (the "License");
  53:stm32f4xx_exti.c ****   * You may not use this file except in compliance with the License.
  54:stm32f4xx_exti.c ****   * You may obtain a copy of the License at:
  55:stm32f4xx_exti.c ****   *
  56:stm32f4xx_exti.c ****   *        http://www.st.com/software_license_agreement_liberty_v2
  57:stm32f4xx_exti.c ****   *
  58:stm32f4xx_exti.c ****   * Unless required by applicable law or agreed to in writing, software 
  59:stm32f4xx_exti.c ****   * distributed under the License is distributed on an "AS IS" BASIS, 
  60:stm32f4xx_exti.c ****   * WITHOUT WARRANTIES OR CONDITIONS OF ANY KIND, either express or implied.
  61:stm32f4xx_exti.c ****   * See the License for the specific language governing permissions and
  62:stm32f4xx_exti.c ****   * limitations under the License.
  63:stm32f4xx_exti.c ****   *
  64:stm32f4xx_exti.c ****   ******************************************************************************
  65:stm32f4xx_exti.c ****   */
  66:stm32f4xx_exti.c **** 
  67:stm32f4xx_exti.c **** /* Includes ------------------------------------------------------------------*/
  68:stm32f4xx_exti.c **** #include "stm32f4xx_exti.h"
  69:stm32f4xx_exti.c **** 
  70:stm32f4xx_exti.c **** /** @addtogroup STM32F4xx_StdPeriph_Driver
  71:stm32f4xx_exti.c ****   * @{
  72:stm32f4xx_exti.c ****   */
  73:stm32f4xx_exti.c **** 
  74:stm32f4xx_exti.c **** /** @defgroup EXTI 
  75:stm32f4xx_exti.c ****   * @brief EXTI driver modules
  76:stm32f4xx_exti.c ****   * @{
  77:stm32f4xx_exti.c ****   */
  78:stm32f4xx_exti.c **** 
  79:stm32f4xx_exti.c **** /* Private typedef -----------------------------------------------------------*/
  80:stm32f4xx_exti.c **** /* Private define ------------------------------------------------------------*/
  81:stm32f4xx_exti.c **** 
  82:stm32f4xx_exti.c **** #define EXTI_LINENONE    ((uint32_t)0x00000)  /* No interrupt selected */
  83:stm32f4xx_exti.c **** 
  84:stm32f4xx_exti.c **** /* Private macro -------------------------------------------------------------*/
  85:stm32f4xx_exti.c **** /* Private variables ---------------------------------------------------------*/
  86:stm32f4xx_exti.c **** /* Private function prototypes -----------------------------------------------*/
  87:stm32f4xx_exti.c **** /* Private functions ---------------------------------------------------------*/
  88:stm32f4xx_exti.c **** 
  89:stm32f4xx_exti.c **** /** @defgroup EXTI_Private_Functions
  90:stm32f4xx_exti.c ****   * @{
  91:stm32f4xx_exti.c ****   */
  92:stm32f4xx_exti.c **** 
  93:stm32f4xx_exti.c **** /** @defgroup EXTI_Group1 Initialization and Configuration functions
  94:stm32f4xx_exti.c ****  *  @brief   Initialization and Configuration functions 
  95:stm32f4xx_exti.c ****  *
ARM GAS  /tmp/ccsCjCvg.s 			page 4


  96:stm32f4xx_exti.c **** @verbatim   
  97:stm32f4xx_exti.c ****  ===============================================================================
  98:stm32f4xx_exti.c ****              ##### Initialization and Configuration functions #####
  99:stm32f4xx_exti.c ****  ===============================================================================  
 100:stm32f4xx_exti.c **** 
 101:stm32f4xx_exti.c **** @endverbatim
 102:stm32f4xx_exti.c ****   * @{
 103:stm32f4xx_exti.c ****   */
 104:stm32f4xx_exti.c **** 
 105:stm32f4xx_exti.c **** /**
 106:stm32f4xx_exti.c ****   * @brief  Deinitializes the EXTI peripheral registers to their default reset values.
 107:stm32f4xx_exti.c ****   * @param  None
 108:stm32f4xx_exti.c ****   * @retval None
 109:stm32f4xx_exti.c ****   */
 110:stm32f4xx_exti.c **** void EXTI_DeInit(void)
 111:stm32f4xx_exti.c **** {
  77              		.loc 1 111 0
  78              		.cfi_startproc
  79              		@ args = 0, pretend = 0, frame = 0
  80              		@ frame_needed = 0, uses_anonymous_args = 0
  81              		@ link register save eliminated.
 112:stm32f4xx_exti.c ****   EXTI->IMR = 0x00000000;
  82              		.loc 1 112 0
  83 0000 044B     		ldr	r3, .L2	@ tmp134,
 113:stm32f4xx_exti.c ****   EXTI->EMR = 0x00000000;
 114:stm32f4xx_exti.c ****   EXTI->RTSR = 0x00000000;
 115:stm32f4xx_exti.c ****   EXTI->FTSR = 0x00000000;
 116:stm32f4xx_exti.c ****   EXTI->PR = 0x007FFFFF;
  84              		.loc 1 116 0
  85 0002 0548     		ldr	r0, .L2+4	@ tmp143,
 112:stm32f4xx_exti.c ****   EXTI->IMR = 0x00000000;
  86              		.loc 1 112 0
  87 0004 0022     		movs	r2, #0	@ tmp135,
  88 0006 1A60     		str	r2, [r3, #0]	@ tmp135, MEM[(struct EXTI_TypeDef *)1073822720B].IMR
 113:stm32f4xx_exti.c ****   EXTI->EMR = 0x00000000;
  89              		.loc 1 113 0
  90 0008 5A60     		str	r2, [r3, #4]	@ tmp135, MEM[(struct EXTI_TypeDef *)1073822720B].EMR
 114:stm32f4xx_exti.c ****   EXTI->RTSR = 0x00000000;
  91              		.loc 1 114 0
  92 000a 9A60     		str	r2, [r3, #8]	@ tmp135, MEM[(struct EXTI_TypeDef *)1073822720B].RTSR
 115:stm32f4xx_exti.c ****   EXTI->FTSR = 0x00000000;
  93              		.loc 1 115 0
  94 000c DA60     		str	r2, [r3, #12]	@ tmp135, MEM[(struct EXTI_TypeDef *)1073822720B].FTSR
  95              		.loc 1 116 0
  96 000e 5861     		str	r0, [r3, #20]	@ tmp143, MEM[(struct EXTI_TypeDef *)1073822720B].PR
  97 0010 7047     		bx	lr	@
  98              	.L3:
  99 0012 00BF     		.align	2
 100              	.L2:
 101 0014 003C0140 		.word	1073822720
 102 0018 FFFF7F00 		.word	8388607
 103              		.cfi_endproc
 104              	.LFE110:
 105              		.size	EXTI_DeInit, .-EXTI_DeInit
 106              		.section	.text.EXTI_Init,"ax",%progbits
 107              		.align	1
 108              		.global	EXTI_Init
ARM GAS  /tmp/ccsCjCvg.s 			page 5


 109              		.thumb
 110              		.thumb_func
 111              		.type	EXTI_Init, %function
 112              	EXTI_Init:
 113              	.LFB111:
 117:stm32f4xx_exti.c **** }
 118:stm32f4xx_exti.c **** 
 119:stm32f4xx_exti.c **** /**
 120:stm32f4xx_exti.c ****   * @brief  Initializes the EXTI peripheral according to the specified
 121:stm32f4xx_exti.c ****   *         parameters in the EXTI_InitStruct.
 122:stm32f4xx_exti.c ****   * @param  EXTI_InitStruct: pointer to a EXTI_InitTypeDef structure
 123:stm32f4xx_exti.c ****   *         that contains the configuration information for the EXTI peripheral.
 124:stm32f4xx_exti.c ****   * @retval None
 125:stm32f4xx_exti.c ****   */
 126:stm32f4xx_exti.c **** void EXTI_Init(EXTI_InitTypeDef* EXTI_InitStruct)
 127:stm32f4xx_exti.c **** {
 114              		.loc 1 127 0
 115              		.cfi_startproc
 116              		@ args = 0, pretend = 0, frame = 0
 117              		@ frame_needed = 0, uses_anonymous_args = 0
 118              	.LVL0:
 128:stm32f4xx_exti.c ****   uint32_t tmp = 0;
 129:stm32f4xx_exti.c **** 
 130:stm32f4xx_exti.c ****   /* Check the parameters */
 131:stm32f4xx_exti.c ****   assert_param(IS_EXTI_MODE(EXTI_InitStruct->EXTI_Mode));
 132:stm32f4xx_exti.c ****   assert_param(IS_EXTI_TRIGGER(EXTI_InitStruct->EXTI_Trigger));
 133:stm32f4xx_exti.c ****   assert_param(IS_EXTI_LINE(EXTI_InitStruct->EXTI_Line));  
 134:stm32f4xx_exti.c ****   assert_param(IS_FUNCTIONAL_STATE(EXTI_InitStruct->EXTI_LineCmd));
 135:stm32f4xx_exti.c **** 
 136:stm32f4xx_exti.c ****   tmp = (uint32_t)EXTI_BASE;
 137:stm32f4xx_exti.c ****      
 138:stm32f4xx_exti.c ****   if (EXTI_InitStruct->EXTI_LineCmd != DISABLE)
 119              		.loc 1 138 0
 120 0000 8379     		ldrb	r3, [r0, #6]	@ zero_extendqisi2	@ EXTI_InitStruct_3(D)->EXTI_LineCmd, EXTI_InitStruct_3(D)->E
 127:stm32f4xx_exti.c **** {
 121              		.loc 1 127 0
 122 0002 10B5     		push	{r4, lr}	@
 123              	.LCFI0:
 124              		.cfi_def_cfa_offset 8
 125              		.cfi_offset 4, -8
 126              		.cfi_offset 14, -4
 127              		.loc 1 138 0
 128 0004 002B     		cmp	r3, #0	@ EXTI_InitStruct_3(D)->EXTI_LineCmd
 129 0006 2AD0     		beq	.L5	@
 139:stm32f4xx_exti.c ****   {
 140:stm32f4xx_exti.c ****     /* Clear EXTI line configuration */
 141:stm32f4xx_exti.c ****     EXTI->IMR &= ~EXTI_InitStruct->EXTI_Line;
 130              		.loc 1 141 0
 131 0008 1A4B     		ldr	r3, .L10	@ tmp173,
 132 000a 0168     		ldr	r1, [r0, #0]	@ D.5965, EXTI_InitStruct_3(D)->EXTI_Line
 133 000c 1C68     		ldr	r4, [r3, #0]	@ D.5964, MEM[(struct EXTI_TypeDef *)1073822720B].IMR
 134 000e CA43     		mvns	r2, r1	@ D.5966, D.5965
 135 0010 1440     		ands	r4, r4, r2	@, D.5967, D.5964, D.5966
 136 0012 1C60     		str	r4, [r3, #0]	@ D.5967, MEM[(struct EXTI_TypeDef *)1073822720B].IMR
 142:stm32f4xx_exti.c ****     EXTI->EMR &= ~EXTI_InitStruct->EXTI_Line;
 137              		.loc 1 142 0
 138 0014 5C68     		ldr	r4, [r3, #4]	@ D.5968, MEM[(struct EXTI_TypeDef *)1073822720B].EMR
ARM GAS  /tmp/ccsCjCvg.s 			page 6


 139 0016 2240     		ands	r2, r2, r4	@, D.5969, D.5966, D.5968
 140 0018 5A60     		str	r2, [r3, #4]	@ D.5969, MEM[(struct EXTI_TypeDef *)1073822720B].EMR
 141              	.LVL1:
 143:stm32f4xx_exti.c ****     
 144:stm32f4xx_exti.c ****     tmp += EXTI_InitStruct->EXTI_Mode;
 142              		.loc 1 144 0
 143 001a 0279     		ldrb	r2, [r0, #4]	@ zero_extendqisi2	@ EXTI_InitStruct_3(D)->EXTI_Mode, EXTI_InitStruct_3(D)->EXTI
 144 001c 02F18044 		add	r4, r2, #1073741824	@ tmp178, EXTI_InitStruct_3(D)->EXTI_Mode,
 145 0020 04F59E32 		add	r2, r4, #80896	@ tmp.0, tmp178,
 145:stm32f4xx_exti.c **** 
 146:stm32f4xx_exti.c ****     *(__IO uint32_t *) tmp |= EXTI_InitStruct->EXTI_Line;
 146              		.loc 1 146 0
 147 0024 1468     		ldr	r4, [r2, #0]	@ D.5973, *tmp.0_21
 148 0026 2143     		orrs	r1, r1, r4	@, D.5974, D.5965, D.5973
 149 0028 1160     		str	r1, [r2, #0]	@ D.5974, *tmp.0_21
 147:stm32f4xx_exti.c **** 
 148:stm32f4xx_exti.c ****     /* Clear Rising Falling edge configuration */
 149:stm32f4xx_exti.c ****     EXTI->RTSR &= ~EXTI_InitStruct->EXTI_Line;
 150              		.loc 1 149 0
 151 002a 0268     		ldr	r2, [r0, #0]	@ D.5965, EXTI_InitStruct_3(D)->EXTI_Line
 152 002c 9C68     		ldr	r4, [r3, #8]	@ D.5975, MEM[(struct EXTI_TypeDef *)1073822720B].RTSR
 150:stm32f4xx_exti.c ****     EXTI->FTSR &= ~EXTI_InitStruct->EXTI_Line;
 151:stm32f4xx_exti.c ****     
 152:stm32f4xx_exti.c ****     /* Select the trigger for the selected external interrupts */
 153:stm32f4xx_exti.c ****     if (EXTI_InitStruct->EXTI_Trigger == EXTI_Trigger_Rising_Falling)
 153              		.loc 1 153 0
 154 002e 4079     		ldrb	r0, [r0, #5]	@ zero_extendqisi2	@ D.5979, EXTI_InitStruct_3(D)->EXTI_Trigger
 155              	.LVL2:
 149:stm32f4xx_exti.c ****     EXTI->RTSR &= ~EXTI_InitStruct->EXTI_Line;
 156              		.loc 1 149 0
 157 0030 D143     		mvns	r1, r2	@ D.5966, D.5965
 158 0032 0C40     		ands	r4, r4, r1	@, D.5976, D.5975, D.5966
 159 0034 9C60     		str	r4, [r3, #8]	@ D.5976, MEM[(struct EXTI_TypeDef *)1073822720B].RTSR
 150:stm32f4xx_exti.c ****     EXTI->FTSR &= ~EXTI_InitStruct->EXTI_Line;
 160              		.loc 1 150 0
 161 0036 DC68     		ldr	r4, [r3, #12]	@ D.5977, MEM[(struct EXTI_TypeDef *)1073822720B].FTSR
 162              		.loc 1 153 0
 163 0038 1028     		cmp	r0, #16	@ D.5979,
 150:stm32f4xx_exti.c ****     EXTI->FTSR &= ~EXTI_InitStruct->EXTI_Line;
 164              		.loc 1 150 0
 165 003a 01EA0401 		and	r1, r1, r4	@ D.5978, D.5966, D.5977
 166 003e D960     		str	r1, [r3, #12]	@ D.5978, MEM[(struct EXTI_TypeDef *)1073822720B].FTSR
 167              		.loc 1 153 0
 168 0040 06D1     		bne	.L6	@,
 154:stm32f4xx_exti.c ****     {
 155:stm32f4xx_exti.c ****       /* Rising Falling edge */
 156:stm32f4xx_exti.c ****       EXTI->RTSR |= EXTI_InitStruct->EXTI_Line;
 169              		.loc 1 156 0
 170 0042 9868     		ldr	r0, [r3, #8]	@ D.5982, MEM[(struct EXTI_TypeDef *)1073822720B].RTSR
 171 0044 1043     		orrs	r0, r0, r2	@, D.5983, D.5982, D.5965
 172 0046 9860     		str	r0, [r3, #8]	@ D.5983, MEM[(struct EXTI_TypeDef *)1073822720B].RTSR
 157:stm32f4xx_exti.c ****       EXTI->FTSR |= EXTI_InitStruct->EXTI_Line;
 173              		.loc 1 157 0
 174 0048 D968     		ldr	r1, [r3, #12]	@ D.5984, MEM[(struct EXTI_TypeDef *)1073822720B].FTSR
 175 004a 0A43     		orrs	r2, r2, r1	@, D.5985, D.5965, D.5984
 176 004c DA60     		str	r2, [r3, #12]	@ D.5985, MEM[(struct EXTI_TypeDef *)1073822720B].FTSR
 177 004e 10BD     		pop	{r4, pc}	@
ARM GAS  /tmp/ccsCjCvg.s 			page 7


 178              	.L6:
 179              	.LVL3:
 158:stm32f4xx_exti.c ****     }
 159:stm32f4xx_exti.c ****     else
 160:stm32f4xx_exti.c ****     {
 161:stm32f4xx_exti.c ****       tmp = (uint32_t)EXTI_BASE;
 162:stm32f4xx_exti.c ****       tmp += EXTI_InitStruct->EXTI_Trigger;
 180              		.loc 1 162 0
 181 0050 00F18043 		add	r3, r0, #1073741824	@ tmp187, D.5979,
 182 0054 03F59E33 		add	r3, r3, #80896	@ tmp.0, tmp187,
 163:stm32f4xx_exti.c **** 
 164:stm32f4xx_exti.c ****       *(__IO uint32_t *) tmp |= EXTI_InitStruct->EXTI_Line;
 183              		.loc 1 164 0
 184 0058 1968     		ldr	r1, [r3, #0]	@ D.5988, *tmp.0_53
 185 005a 0A43     		orrs	r2, r2, r1	@, D.5989, D.5965, D.5988
 186 005c 08E0     		b	.L8	@
 187              	.LVL4:
 188              	.L5:
 165:stm32f4xx_exti.c ****     }
 166:stm32f4xx_exti.c ****   }
 167:stm32f4xx_exti.c ****   else
 168:stm32f4xx_exti.c ****   {
 169:stm32f4xx_exti.c ****     tmp += EXTI_InitStruct->EXTI_Mode;
 189              		.loc 1 169 0
 190 005e 0179     		ldrb	r1, [r0, #4]	@ zero_extendqisi2	@ EXTI_InitStruct_3(D)->EXTI_Mode, EXTI_InitStruct_3(D)->EXTI
 170:stm32f4xx_exti.c **** 
 171:stm32f4xx_exti.c ****     /* Disable the selected external lines */
 172:stm32f4xx_exti.c ****     *(__IO uint32_t *) tmp &= ~EXTI_InitStruct->EXTI_Line;
 191              		.loc 1 172 0
 192 0060 0068     		ldr	r0, [r0, #0]	@ EXTI_InitStruct_3(D)->EXTI_Line, EXTI_InitStruct_3(D)->EXTI_Line
 193              	.LVL5:
 169:stm32f4xx_exti.c ****     tmp += EXTI_InitStruct->EXTI_Mode;
 194              		.loc 1 169 0
 195 0062 01F18042 		add	r2, r1, #1073741824	@ tmp189, EXTI_InitStruct_3(D)->EXTI_Mode,
 196 0066 02F59E33 		add	r3, r2, #80896	@ tmp.0, tmp189,
 197              		.loc 1 172 0
 198 006a 1A68     		ldr	r2, [r3, #0]	@ D.5991, *tmp.0_61
 199 006c 22EA0002 		bic	r2, r2, r0	@ D.5992, D.5991, EXTI_InitStruct_3(D)->EXTI_Line
 200              	.LVL6:
 201              	.L8:
 202 0070 1A60     		str	r2, [r3, #0]	@ D.5992,* tmp.0
 203 0072 10BD     		pop	{r4, pc}	@
 204              	.L11:
 205              		.align	2
 206              	.L10:
 207 0074 003C0140 		.word	1073822720
 208              		.cfi_endproc
 209              	.LFE111:
 210              		.size	EXTI_Init, .-EXTI_Init
 211              		.section	.text.EXTI_StructInit,"ax",%progbits
 212              		.align	1
 213              		.global	EXTI_StructInit
 214              		.thumb
 215              		.thumb_func
 216              		.type	EXTI_StructInit, %function
 217              	EXTI_StructInit:
 218              	.LFB112:
ARM GAS  /tmp/ccsCjCvg.s 			page 8


 173:stm32f4xx_exti.c ****   }
 174:stm32f4xx_exti.c **** }
 175:stm32f4xx_exti.c **** 
 176:stm32f4xx_exti.c **** /**
 177:stm32f4xx_exti.c ****   * @brief  Fills each EXTI_InitStruct member with its reset value.
 178:stm32f4xx_exti.c ****   * @param  EXTI_InitStruct: pointer to a EXTI_InitTypeDef structure which will
 179:stm32f4xx_exti.c ****   *         be initialized.
 180:stm32f4xx_exti.c ****   * @retval None
 181:stm32f4xx_exti.c ****   */
 182:stm32f4xx_exti.c **** void EXTI_StructInit(EXTI_InitTypeDef* EXTI_InitStruct)
 183:stm32f4xx_exti.c **** {
 219              		.loc 1 183 0
 220              		.cfi_startproc
 221              		@ args = 0, pretend = 0, frame = 0
 222              		@ frame_needed = 0, uses_anonymous_args = 0
 223              		@ link register save eliminated.
 224              	.LVL7:
 184:stm32f4xx_exti.c ****   EXTI_InitStruct->EXTI_Line = EXTI_LINENONE;
 225              		.loc 1 184 0
 226 0000 0023     		movs	r3, #0	@ tmp135,
 185:stm32f4xx_exti.c ****   EXTI_InitStruct->EXTI_Mode = EXTI_Mode_Interrupt;
 186:stm32f4xx_exti.c ****   EXTI_InitStruct->EXTI_Trigger = EXTI_Trigger_Falling;
 227              		.loc 1 186 0
 228 0002 0C22     		movs	r2, #12	@ tmp138,
 184:stm32f4xx_exti.c ****   EXTI_InitStruct->EXTI_Line = EXTI_LINENONE;
 229              		.loc 1 184 0
 230 0004 0360     		str	r3, [r0, #0]	@ tmp135, EXTI_InitStruct_1(D)->EXTI_Line
 185:stm32f4xx_exti.c ****   EXTI_InitStruct->EXTI_Mode = EXTI_Mode_Interrupt;
 231              		.loc 1 185 0
 232 0006 0371     		strb	r3, [r0, #4]	@ tmp135, EXTI_InitStruct_1(D)->EXTI_Mode
 233              		.loc 1 186 0
 234 0008 4271     		strb	r2, [r0, #5]	@ tmp138, EXTI_InitStruct_1(D)->EXTI_Trigger
 187:stm32f4xx_exti.c ****   EXTI_InitStruct->EXTI_LineCmd = DISABLE;
 235              		.loc 1 187 0
 236 000a 8371     		strb	r3, [r0, #6]	@ tmp135, EXTI_InitStruct_1(D)->EXTI_LineCmd
 237 000c 7047     		bx	lr	@
 238              		.cfi_endproc
 239              	.LFE112:
 240              		.size	EXTI_StructInit, .-EXTI_StructInit
 241              		.section	.text.EXTI_GenerateSWInterrupt,"ax",%progbits
 242              		.align	1
 243              		.global	EXTI_GenerateSWInterrupt
 244              		.thumb
 245              		.thumb_func
 246              		.type	EXTI_GenerateSWInterrupt, %function
 247              	EXTI_GenerateSWInterrupt:
 248              	.LFB113:
 188:stm32f4xx_exti.c **** }
 189:stm32f4xx_exti.c **** 
 190:stm32f4xx_exti.c **** /**
 191:stm32f4xx_exti.c ****   * @brief  Generates a Software interrupt on selected EXTI line.
 192:stm32f4xx_exti.c ****   * @param  EXTI_Line: specifies the EXTI line on which the software interrupt
 193:stm32f4xx_exti.c ****   *         will be generated.
 194:stm32f4xx_exti.c ****   *         This parameter can be any combination of EXTI_Linex where x can be (0..22)
 195:stm32f4xx_exti.c ****   * @retval None
 196:stm32f4xx_exti.c ****   */
 197:stm32f4xx_exti.c **** void EXTI_GenerateSWInterrupt(uint32_t EXTI_Line)
ARM GAS  /tmp/ccsCjCvg.s 			page 9


 198:stm32f4xx_exti.c **** {
 249              		.loc 1 198 0
 250              		.cfi_startproc
 251              		@ args = 0, pretend = 0, frame = 0
 252              		@ frame_needed = 0, uses_anonymous_args = 0
 253              		@ link register save eliminated.
 254              	.LVL8:
 199:stm32f4xx_exti.c ****   /* Check the parameters */
 200:stm32f4xx_exti.c ****   assert_param(IS_EXTI_LINE(EXTI_Line));
 201:stm32f4xx_exti.c ****   
 202:stm32f4xx_exti.c ****   EXTI->SWIER |= EXTI_Line;
 255              		.loc 1 202 0
 256 0000 024B     		ldr	r3, .L14	@ tmp137,
 257 0002 1A69     		ldr	r2, [r3, #16]	@ D.5958, MEM[(struct EXTI_TypeDef *)1073822720B].SWIER
 258 0004 1043     		orrs	r0, r0, r2	@, D.5959, EXTI_Line, D.5958
 259              	.LVL9:
 260 0006 1861     		str	r0, [r3, #16]	@ D.5959, MEM[(struct EXTI_TypeDef *)1073822720B].SWIER
 261 0008 7047     		bx	lr	@
 262              	.L15:
 263 000a 00BF     		.align	2
 264              	.L14:
 265 000c 003C0140 		.word	1073822720
 266              		.cfi_endproc
 267              	.LFE113:
 268              		.size	EXTI_GenerateSWInterrupt, .-EXTI_GenerateSWInterrupt
 269              		.section	.text.EXTI_GetFlagStatus,"ax",%progbits
 270              		.align	1
 271              		.global	EXTI_GetFlagStatus
 272              		.thumb
 273              		.thumb_func
 274              		.type	EXTI_GetFlagStatus, %function
 275              	EXTI_GetFlagStatus:
 276              	.LFB114:
 203:stm32f4xx_exti.c **** }
 204:stm32f4xx_exti.c **** 
 205:stm32f4xx_exti.c **** /**
 206:stm32f4xx_exti.c ****   * @}
 207:stm32f4xx_exti.c ****   */
 208:stm32f4xx_exti.c **** 
 209:stm32f4xx_exti.c **** /** @defgroup EXTI_Group2 Interrupts and flags management functions
 210:stm32f4xx_exti.c ****  *  @brief   Interrupts and flags management functions 
 211:stm32f4xx_exti.c ****  *
 212:stm32f4xx_exti.c **** @verbatim   
 213:stm32f4xx_exti.c ****  ===============================================================================
 214:stm32f4xx_exti.c ****              ##### Interrupts and flags management functions #####
 215:stm32f4xx_exti.c ****  ===============================================================================  
 216:stm32f4xx_exti.c **** 
 217:stm32f4xx_exti.c **** @endverbatim
 218:stm32f4xx_exti.c ****   * @{
 219:stm32f4xx_exti.c ****   */
 220:stm32f4xx_exti.c **** 
 221:stm32f4xx_exti.c **** /**
 222:stm32f4xx_exti.c ****   * @brief  Checks whether the specified EXTI line flag is set or not.
 223:stm32f4xx_exti.c ****   * @param  EXTI_Line: specifies the EXTI line flag to check.
 224:stm32f4xx_exti.c ****   *          This parameter can be EXTI_Linex where x can be(0..22)
 225:stm32f4xx_exti.c ****   * @retval The new state of EXTI_Line (SET or RESET).
 226:stm32f4xx_exti.c ****   */
ARM GAS  /tmp/ccsCjCvg.s 			page 10


 227:stm32f4xx_exti.c **** FlagStatus EXTI_GetFlagStatus(uint32_t EXTI_Line)
 228:stm32f4xx_exti.c **** {
 277              		.loc 1 228 0
 278              		.cfi_startproc
 279              		@ args = 0, pretend = 0, frame = 0
 280              		@ frame_needed = 0, uses_anonymous_args = 0
 281              		@ link register save eliminated.
 282              	.LVL10:
 229:stm32f4xx_exti.c ****   FlagStatus bitstatus = RESET;
 230:stm32f4xx_exti.c ****   /* Check the parameters */
 231:stm32f4xx_exti.c ****   assert_param(IS_GET_EXTI_LINE(EXTI_Line));
 232:stm32f4xx_exti.c ****   
 233:stm32f4xx_exti.c ****   if ((EXTI->PR & EXTI_Line) != (uint32_t)RESET)
 283              		.loc 1 233 0
 284 0000 034B     		ldr	r3, .L17	@ tmp140,
 285 0002 5969     		ldr	r1, [r3, #20]	@ D.5950, MEM[(struct EXTI_TypeDef *)1073822720B].PR
 286              	.LVL11:
 287 0004 0842     		tst	r0, r1	@ EXTI_Line, D.5950
 234:stm32f4xx_exti.c ****   {
 235:stm32f4xx_exti.c ****     bitstatus = SET;
 236:stm32f4xx_exti.c ****   }
 237:stm32f4xx_exti.c ****   else
 238:stm32f4xx_exti.c ****   {
 239:stm32f4xx_exti.c ****     bitstatus = RESET;
 240:stm32f4xx_exti.c ****   }
 241:stm32f4xx_exti.c ****   return bitstatus;
 242:stm32f4xx_exti.c **** }
 288              		.loc 1 242 0
 289 0006 0CBF     		ite	eq	@
 290 0008 0020     		moveq	r0, #0	@,
 291 000a 0120     		movne	r0, #1	@,
 292              	.LVL12:
 293 000c 7047     		bx	lr	@
 294              	.L18:
 295 000e 00BF     		.align	2
 296              	.L17:
 297 0010 003C0140 		.word	1073822720
 298              		.cfi_endproc
 299              	.LFE114:
 300              		.size	EXTI_GetFlagStatus, .-EXTI_GetFlagStatus
 301              		.section	.text.EXTI_ClearFlag,"ax",%progbits
 302              		.align	1
 303              		.global	EXTI_ClearFlag
 304              		.thumb
 305              		.thumb_func
 306              		.type	EXTI_ClearFlag, %function
 307              	EXTI_ClearFlag:
 308              	.LFB115:
 243:stm32f4xx_exti.c **** 
 244:stm32f4xx_exti.c **** /**
 245:stm32f4xx_exti.c ****   * @brief  Clears the EXTI's line pending flags.
 246:stm32f4xx_exti.c ****   * @param  EXTI_Line: specifies the EXTI lines flags to clear.
 247:stm32f4xx_exti.c ****   *          This parameter can be any combination of EXTI_Linex where x can be (0..22)
 248:stm32f4xx_exti.c ****   * @retval None
 249:stm32f4xx_exti.c ****   */
 250:stm32f4xx_exti.c **** void EXTI_ClearFlag(uint32_t EXTI_Line)
 251:stm32f4xx_exti.c **** {
ARM GAS  /tmp/ccsCjCvg.s 			page 11


 309              		.loc 1 251 0
 310              		.cfi_startproc
 311              		@ args = 0, pretend = 0, frame = 0
 312              		@ frame_needed = 0, uses_anonymous_args = 0
 313              		@ link register save eliminated.
 314              	.LVL13:
 252:stm32f4xx_exti.c ****   /* Check the parameters */
 253:stm32f4xx_exti.c ****   assert_param(IS_EXTI_LINE(EXTI_Line));
 254:stm32f4xx_exti.c ****   
 255:stm32f4xx_exti.c ****   EXTI->PR = EXTI_Line;
 315              		.loc 1 255 0
 316 0000 014B     		ldr	r3, .L20	@ tmp135,
 317 0002 5861     		str	r0, [r3, #20]	@ EXTI_Line, MEM[(struct EXTI_TypeDef *)1073822720B].PR
 318 0004 7047     		bx	lr	@
 319              	.L21:
 320 0006 00BF     		.align	2
 321              	.L20:
 322 0008 003C0140 		.word	1073822720
 323              		.cfi_endproc
 324              	.LFE115:
 325              		.size	EXTI_ClearFlag, .-EXTI_ClearFlag
 326              		.section	.text.EXTI_GetITStatus,"ax",%progbits
 327              		.align	1
 328              		.global	EXTI_GetITStatus
 329              		.thumb
 330              		.thumb_func
 331              		.type	EXTI_GetITStatus, %function
 332              	EXTI_GetITStatus:
 333              	.LFB116:
 256:stm32f4xx_exti.c **** }
 257:stm32f4xx_exti.c **** 
 258:stm32f4xx_exti.c **** /**
 259:stm32f4xx_exti.c ****   * @brief  Checks whether the specified EXTI line is asserted or not.
 260:stm32f4xx_exti.c ****   * @param  EXTI_Line: specifies the EXTI line to check.
 261:stm32f4xx_exti.c ****   *          This parameter can be EXTI_Linex where x can be(0..22)
 262:stm32f4xx_exti.c ****   * @retval The new state of EXTI_Line (SET or RESET).
 263:stm32f4xx_exti.c ****   */
 264:stm32f4xx_exti.c **** ITStatus EXTI_GetITStatus(uint32_t EXTI_Line)
 265:stm32f4xx_exti.c **** {
 334              		.loc 1 265 0
 335              		.cfi_startproc
 336              		@ args = 0, pretend = 0, frame = 0
 337              		@ frame_needed = 0, uses_anonymous_args = 0
 338              		@ link register save eliminated.
 339              	.LVL14:
 266:stm32f4xx_exti.c ****   ITStatus bitstatus = RESET;
 267:stm32f4xx_exti.c ****   uint32_t enablestatus = 0;
 268:stm32f4xx_exti.c ****   /* Check the parameters */
 269:stm32f4xx_exti.c ****   assert_param(IS_GET_EXTI_LINE(EXTI_Line));
 270:stm32f4xx_exti.c ****   
 271:stm32f4xx_exti.c ****   enablestatus =  EXTI->IMR & EXTI_Line;
 340              		.loc 1 271 0
 341 0000 064B     		ldr	r3, .L25	@ tmp142,
 342 0002 1A68     		ldr	r2, [r3, #0]	@ D.5939, MEM[(struct EXTI_TypeDef *)1073822720B].IMR
 343              	.LVL15:
 272:stm32f4xx_exti.c ****   if (((EXTI->PR & EXTI_Line) != (uint32_t)RESET) && (enablestatus != (uint32_t)RESET))
 344              		.loc 1 272 0
ARM GAS  /tmp/ccsCjCvg.s 			page 12


 345 0004 5969     		ldr	r1, [r3, #20]	@ D.5942, MEM[(struct EXTI_TypeDef *)1073822720B].PR
 346 0006 10EA0103 		ands	r3, r0, r1	@ tmp144, EXTI_Line, D.5942
 347 000a 04D0     		beq	.L24	@,
 348              		.loc 1 272 0 is_stmt 0 discriminator 1
 349 000c 1042     		tst	r0, r2	@ EXTI_Line, D.5939
 273:stm32f4xx_exti.c ****   {
 274:stm32f4xx_exti.c ****     bitstatus = SET;
 350              		.loc 1 274 0 is_stmt 1 discriminator 1
 351 000e 0CBF     		ite	eq	@
 352 0010 0020     		moveq	r0, #0	@, bitstatus
 353 0012 0120     		movne	r0, #1	@, bitstatus
 354              	.LVL16:
 355 0014 7047     		bx	lr	@
 356              	.LVL17:
 357              	.L24:
 275:stm32f4xx_exti.c ****   }
 276:stm32f4xx_exti.c ****   else
 277:stm32f4xx_exti.c ****   {
 278:stm32f4xx_exti.c ****     bitstatus = RESET;
 358              		.loc 1 278 0
 359 0016 1846     		mov	r0, r3	@ bitstatus, tmp144
 360              	.LVL18:
 279:stm32f4xx_exti.c ****   }
 280:stm32f4xx_exti.c ****   return bitstatus;
 281:stm32f4xx_exti.c **** }
 361              		.loc 1 281 0
 362 0018 7047     		bx	lr	@
 363              	.L26:
 364 001a 00BF     		.align	2
 365              	.L25:
 366 001c 003C0140 		.word	1073822720
 367              		.cfi_endproc
 368              	.LFE116:
 369              		.size	EXTI_GetITStatus, .-EXTI_GetITStatus
 370              		.section	.text.EXTI_ClearITPendingBit,"ax",%progbits
 371              		.align	1
 372              		.global	EXTI_ClearITPendingBit
 373              		.thumb
 374              		.thumb_func
 375              		.type	EXTI_ClearITPendingBit, %function
 376              	EXTI_ClearITPendingBit:
 377              	.LFB117:
 282:stm32f4xx_exti.c **** 
 283:stm32f4xx_exti.c **** /**
 284:stm32f4xx_exti.c ****   * @brief  Clears the EXTI's line pending bits.
 285:stm32f4xx_exti.c ****   * @param  EXTI_Line: specifies the EXTI lines to clear.
 286:stm32f4xx_exti.c ****   *          This parameter can be any combination of EXTI_Linex where x can be (0..22)
 287:stm32f4xx_exti.c ****   * @retval None
 288:stm32f4xx_exti.c ****   */
 289:stm32f4xx_exti.c **** void EXTI_ClearITPendingBit(uint32_t EXTI_Line)
 290:stm32f4xx_exti.c **** {
 378              		.loc 1 290 0
 379              		.cfi_startproc
 380              		@ args = 0, pretend = 0, frame = 0
 381              		@ frame_needed = 0, uses_anonymous_args = 0
 382              		@ link register save eliminated.
 383              	.LVL19:
ARM GAS  /tmp/ccsCjCvg.s 			page 13


 291:stm32f4xx_exti.c ****   /* Check the parameters */
 292:stm32f4xx_exti.c ****   assert_param(IS_EXTI_LINE(EXTI_Line));
 293:stm32f4xx_exti.c ****   
 294:stm32f4xx_exti.c ****   EXTI->PR = EXTI_Line;
 384              		.loc 1 294 0
 385 0000 014B     		ldr	r3, .L28	@ tmp135,
 386 0002 5861     		str	r0, [r3, #20]	@ EXTI_Line, MEM[(struct EXTI_TypeDef *)1073822720B].PR
 387 0004 7047     		bx	lr	@
 388              	.L29:
 389 0006 00BF     		.align	2
 390              	.L28:
 391 0008 003C0140 		.word	1073822720
 392              		.cfi_endproc
 393              	.LFE117:
 394              		.size	EXTI_ClearITPendingBit, .-EXTI_ClearITPendingBit
 395              		.text
 396              	.Letext0:
 397              		.file 2 "/usr/bin/../lib/gcc/arm-none-eabi/4.7.4/../../../../arm-none-eabi/include/stdint.h"
 398              		.file 3 "stm32f4xx.h"
 399              		.file 4 "stm32f4xx_exti.h"
 400              		.file 5 "cmsis/core_cm4.h"