ARM GAS  /tmp/ccyhuBN5.s 			page 1


   1              		.syntax unified
   2              		.cpu cortex-m4
   3              		.eabi_attribute 27, 3	@ Tag_ABI_HardFP_use
   4              		.eabi_attribute 28, 1	@ Tag_ABI_VFP_args
   5              		.fpu fpv4-sp-d16
   6              		.eabi_attribute 20, 1	@ Tag_ABI_FP_denormal
   7              		.eabi_attribute 21, 1	@ Tag_ABI_FP_exceptions
   8              		.eabi_attribute 23, 3	@ Tag_ABI_FP_number_model
   9              		.eabi_attribute 24, 1	@ Tag_ABI_align8_needed
  10              		.eabi_attribute 25, 1	@ Tag_ABI_align8_preserved
  11              		.eabi_attribute 26, 1	@ Tag_ABI_enum_size
  12              		.eabi_attribute 30, 4	@ Tag_ABI_optimization_goals
  13              		.eabi_attribute 34, 1	@ Tag_CPU_unaligned_access
  14              		.eabi_attribute 18, 4	@ Tag_ABI_PCS_wchar_t
  15              		.file	"stm32f4xx_usart.c"
  16              	@ GNU C (GNU Tools for ARM Embedded Processors) version 4.7.4 20130913 (release) [ARM/embedded-4_7-
  17              	@	compiled by GNU C version 4.7.3, GMP version 5.0.5, MPFR version 3.1.1-p2, MPC version 0.9
  18              	@ GGC heuristics: --param ggc-min-expand=100 --param ggc-min-heapsize=131072
  19              	@ options passed:  -I . -I ../ -I cmsis/ -imultilib armv7e-m/fpu
  20              	@ -iprefix /usr/bin/../lib/gcc/arm-none-eabi/4.7.4/
  21              	@ -isysroot /usr/bin/../arm-none-eabi -MD stm32f4xx_usart.d
  22              	@ -MF .dep/stm32f4xx_usart.o.d -MP -MQ stm32f4xx_usart.o
  23              	@ -D__USES_INITFINI__ -D __FPU_USED=1 -D __arm__ -D __ASSEMBLY__
  24              	@ -D USE_STDPERIPH_DRIVER -D STM32F4XX -D HSE_VALUE=8000000
  25              	@ -D __FPU_PRESENT=1 -D __FPU_USED=1 -D STM32F405VG -D USE_USB_OTG_FS
  26              	@ -D RUN_FROM_FLASH=1 stm32f4xx_usart.c -mthumb -mcpu=cortex-m4
  27              	@ -mfloat-abi=hard -mfpu=fpv4-sp-d16 -mthumb
  28              	@ -auxbase-strip stm32f4xx_usart.o -gdwarf-2 -Os -Wall -Wstrict-prototypes
  29              	@ -std=gnu99 -falign-functions=16 -fno-inline -fomit-frame-pointer
  30              	@ -fverbose-asm -ffunction-sections -fdata-sections
  31              	@ options enabled:  -fauto-inc-dec -fbranch-count-reg -fcaller-saves
  32              	@ -fcombine-stack-adjustments -fcommon -fcompare-elim -fcprop-registers
  33              	@ -fcrossjumping -fcse-follow-jumps -fdata-sections -fdebug-types-section
  34              	@ -fdefer-pop -fdelete-null-pointer-checks -fdevirtualize -fdwarf2-cfi-asm
  35              	@ -fearly-inlining -feliminate-unused-debug-types -fexpensive-optimizations
  36              	@ -fforward-propagate -ffunction-cse -ffunction-sections -fgcse -fgcse-lm
  37              	@ -fgnu-runtime -fguess-branch-probability -fident -fif-conversion
  38              	@ -fif-conversion2 -findirect-inlining -finline-atomics -finline-functions
  39              	@ -finline-functions-called-once -finline-small-functions -fipa-cp
  40              	@ -fipa-profile -fipa-pure-const -fipa-reference -fipa-sra
  41              	@ -fira-share-save-slots -fira-share-spill-slots -fivopts
  42              	@ -fkeep-static-consts -fleading-underscore -fmath-errno -fmerge-constants
  43              	@ -fmerge-debug-strings -fomit-frame-pointer -foptimize-register-move
  44              	@ -foptimize-sibling-calls -fpartial-inlining -fpeephole -fpeephole2
  45              	@ -fprefetch-loop-arrays -freg-struct-return -fregmove -frename-registers
  46              	@ -freorder-blocks -freorder-functions -frerun-cse-after-loop
  47              	@ -fsched-critical-path-heuristic -fsched-dep-count-heuristic
  48              	@ -fsched-group-heuristic -fsched-interblock -fsched-last-insn-heuristic
  49              	@ -fsched-rank-heuristic -fsched-spec -fsched-spec-insn-heuristic
  50              	@ -fsched-stalled-insns-dep -fschedule-insns2 -fsection-anchors
  51              	@ -fshow-column -fshrink-wrap -fsigned-zeros -fsplit-ivs-in-unroller
  52              	@ -fsplit-wide-types -fstrict-aliasing -fstrict-overflow
  53              	@ -fstrict-volatile-bitfields -fthread-jumps -ftoplevel-reorder
  54              	@ -ftrapping-math -ftree-bit-ccp -ftree-builtin-call-dce -ftree-ccp
  55              	@ -ftree-ch -ftree-copy-prop -ftree-copyrename -ftree-cselim -ftree-dce
  56              	@ -ftree-dominator-opts -ftree-dse -ftree-forwprop -ftree-fre
  57              	@ -ftree-loop-if-convert -ftree-loop-im -ftree-loop-ivcanon
ARM GAS  /tmp/ccyhuBN5.s 			page 2


  58              	@ -ftree-loop-optimize -ftree-parallelize-loops= -ftree-phiprop -ftree-pre
  59              	@ -ftree-pta -ftree-reassoc -ftree-scev-cprop -ftree-sink
  60              	@ -ftree-slp-vectorize -ftree-sra -ftree-switch-conversion
  61              	@ -ftree-tail-merge -ftree-ter -ftree-vect-loop-version -ftree-vrp
  62              	@ -funit-at-a-time -funroll-loops -fvar-tracking -fvar-tracking-assignments
  63              	@ -fverbose-asm -fweb -fzero-initialized-in-bss -mlittle-endian
  64              	@ -msched-prolog -mthumb -munaligned-access -mvectorize-with-neon-quad
  65              	
  66              		.text
  67              	.Ltext0:
  68              		.cfi_sections	.debug_frame
  69              		.section	.text.USART_DeInit,"ax",%progbits
  70              		.align	1
  71              		.global	USART_DeInit
  72              		.thumb
  73              		.thumb_func
  74              		.type	USART_DeInit, %function
  75              	USART_DeInit:
  76              	.LFB110:
  77              		.file 1 "stm32f4xx_usart.c"
   1:stm32f4xx_usart.c **** /**
   2:stm32f4xx_usart.c ****   ******************************************************************************
   3:stm32f4xx_usart.c ****   * @file    stm32f4xx_usart.c
   4:stm32f4xx_usart.c ****   * @author  MCD Application Team
   5:stm32f4xx_usart.c ****   * @version V1.1.0
   6:stm32f4xx_usart.c ****   * @date    11-January-2013
   7:stm32f4xx_usart.c ****   * @brief   This file provides firmware functions to manage the following 
   8:stm32f4xx_usart.c ****   *          functionalities of the Universal synchronous asynchronous receiver
   9:stm32f4xx_usart.c ****   *          transmitter (USART):           
  10:stm32f4xx_usart.c ****   *           + Initialization and Configuration
  11:stm32f4xx_usart.c ****   *           + Data transfers
  12:stm32f4xx_usart.c ****   *           + Multi-Processor Communication
  13:stm32f4xx_usart.c ****   *           + LIN mode
  14:stm32f4xx_usart.c ****   *           + Half-duplex mode
  15:stm32f4xx_usart.c ****   *           + Smartcard mode
  16:stm32f4xx_usart.c ****   *           + IrDA mode
  17:stm32f4xx_usart.c ****   *           + DMA transfers management
  18:stm32f4xx_usart.c ****   *           + Interrupts and flags management 
  19:stm32f4xx_usart.c ****   *           
  20:stm32f4xx_usart.c ****   @verbatim       
  21:stm32f4xx_usart.c ****  ===============================================================================
  22:stm32f4xx_usart.c ****                         ##### How to use this driver #####
  23:stm32f4xx_usart.c ****  ===============================================================================
  24:stm32f4xx_usart.c ****     [..]
  25:stm32f4xx_usart.c ****       (#) Enable peripheral clock using the following functions
  26:stm32f4xx_usart.c ****           RCC_APB2PeriphClockCmd(RCC_APB2Periph_USARTx, ENABLE) for USART1 and USART6 
  27:stm32f4xx_usart.c ****           RCC_APB1PeriphClockCmd(RCC_APB1Periph_USARTx, ENABLE) for USART2, USART3, 
  28:stm32f4xx_usart.c ****           UART4 or UART5.
  29:stm32f4xx_usart.c ****   
  30:stm32f4xx_usart.c ****       (#) According to the USART mode, enable the GPIO clocks using 
  31:stm32f4xx_usart.c ****           RCC_AHB1PeriphClockCmd() function. (The I/O can be TX, RX, CTS, 
  32:stm32f4xx_usart.c ****           or/and SCLK). 
  33:stm32f4xx_usart.c ****   
  34:stm32f4xx_usart.c ****       (#) Peripheral's alternate function: 
  35:stm32f4xx_usart.c ****         (++) Connect the pin to the desired peripherals' Alternate 
  36:stm32f4xx_usart.c ****             Function (AF) using GPIO_PinAFConfig() function
  37:stm32f4xx_usart.c ****         (++) Configure the desired pin in alternate function by:
ARM GAS  /tmp/ccyhuBN5.s 			page 3


  38:stm32f4xx_usart.c ****             GPIO_InitStruct->GPIO_Mode = GPIO_Mode_AF
  39:stm32f4xx_usart.c ****         (++) Select the type, pull-up/pull-down and output speed via 
  40:stm32f4xx_usart.c ****             GPIO_PuPd, GPIO_OType and GPIO_Speed members
  41:stm32f4xx_usart.c ****         (++) Call GPIO_Init() function
  42:stm32f4xx_usart.c ****           
  43:stm32f4xx_usart.c ****       (#) Program the Baud Rate, Word Length , Stop Bit, Parity, Hardware 
  44:stm32f4xx_usart.c ****           flow control and Mode(Receiver/Transmitter) using the USART_Init()
  45:stm32f4xx_usart.c ****           function.
  46:stm32f4xx_usart.c ****   
  47:stm32f4xx_usart.c ****       (#) For synchronous mode, enable the clock and program the polarity,
  48:stm32f4xx_usart.c ****           phase and last bit using the USART_ClockInit() function.
  49:stm32f4xx_usart.c ****   
  50:stm32f4xx_usart.c ****       (#) Enable the NVIC and the corresponding interrupt using the function 
  51:stm32f4xx_usart.c ****          USART_ITConfig() if you need to use interrupt mode. 
  52:stm32f4xx_usart.c ****   
  53:stm32f4xx_usart.c ****       (#) When using the DMA mode 
  54:stm32f4xx_usart.c ****         (++) Configure the DMA using DMA_Init() function
  55:stm32f4xx_usart.c ****         (++) Active the needed channel Request using USART_DMACmd() function
  56:stm32f4xx_usart.c ****    
  57:stm32f4xx_usart.c ****       (#) Enable the USART using the USART_Cmd() function.
  58:stm32f4xx_usart.c ****    
  59:stm32f4xx_usart.c ****       (#) Enable the DMA using the DMA_Cmd() function, when using DMA mode. 
  60:stm32f4xx_usart.c ****     
  61:stm32f4xx_usart.c ****       -@- Refer to Multi-Processor, LIN, half-duplex, Smartcard, IrDA sub-sections
  62:stm32f4xx_usart.c ****           for more details
  63:stm32f4xx_usart.c ****     
  64:stm32f4xx_usart.c ****     [..]        
  65:stm32f4xx_usart.c ****     In order to reach higher communication baudrates, it is possible to
  66:stm32f4xx_usart.c ****     enable the oversampling by 8 mode using the function USART_OverSampling8Cmd().
  67:stm32f4xx_usart.c ****     This function should be called after enabling the USART clock (RCC_APBxPeriphClockCmd())
  68:stm32f4xx_usart.c ****     and before calling the function USART_Init().
  69:stm32f4xx_usart.c ****             
  70:stm32f4xx_usart.c ****     @endverbatim        
  71:stm32f4xx_usart.c ****   ******************************************************************************
  72:stm32f4xx_usart.c ****   * @attention
  73:stm32f4xx_usart.c ****   *
  74:stm32f4xx_usart.c ****   * <h2><center>&copy; COPYRIGHT 2013 STMicroelectronics</center></h2>
  75:stm32f4xx_usart.c ****   *
  76:stm32f4xx_usart.c ****   * Licensed under MCD-ST Liberty SW License Agreement V2, (the "License");
  77:stm32f4xx_usart.c ****   * You may not use this file except in compliance with the License.
  78:stm32f4xx_usart.c ****   * You may obtain a copy of the License at:
  79:stm32f4xx_usart.c ****   *
  80:stm32f4xx_usart.c ****   *        http://www.st.com/software_license_agreement_liberty_v2
  81:stm32f4xx_usart.c ****   *
  82:stm32f4xx_usart.c ****   * Unless required by applicable law or agreed to in writing, software 
  83:stm32f4xx_usart.c ****   * distributed under the License is distributed on an "AS IS" BASIS, 
  84:stm32f4xx_usart.c ****   * WITHOUT WARRANTIES OR CONDITIONS OF ANY KIND, either express or implied.
  85:stm32f4xx_usart.c ****   * See the License for the specific language governing permissions and
  86:stm32f4xx_usart.c ****   * limitations under the License.
  87:stm32f4xx_usart.c ****   *
  88:stm32f4xx_usart.c ****   ******************************************************************************  
  89:stm32f4xx_usart.c ****   */ 
  90:stm32f4xx_usart.c **** 
  91:stm32f4xx_usart.c **** /* Includes ------------------------------------------------------------------*/
  92:stm32f4xx_usart.c **** #include "stm32f4xx_usart.h"
  93:stm32f4xx_usart.c **** #include "stm32f4xx_rcc.h"
  94:stm32f4xx_usart.c **** 
ARM GAS  /tmp/ccyhuBN5.s 			page 4


  95:stm32f4xx_usart.c **** /** @addtogroup STM32F4xx_StdPeriph_Driver
  96:stm32f4xx_usart.c ****   * @{
  97:stm32f4xx_usart.c ****   */
  98:stm32f4xx_usart.c **** 
  99:stm32f4xx_usart.c **** /** @defgroup USART 
 100:stm32f4xx_usart.c ****   * @brief USART driver modules
 101:stm32f4xx_usart.c ****   * @{
 102:stm32f4xx_usart.c ****   */
 103:stm32f4xx_usart.c **** 
 104:stm32f4xx_usart.c **** /* Private typedef -----------------------------------------------------------*/
 105:stm32f4xx_usart.c **** /* Private define ------------------------------------------------------------*/
 106:stm32f4xx_usart.c **** 
 107:stm32f4xx_usart.c **** /*!< USART CR1 register clear Mask ((~(uint16_t)0xE9F3)) */
 108:stm32f4xx_usart.c **** #define CR1_CLEAR_MASK            ((uint16_t)(USART_CR1_M | USART_CR1_PCE | \
 109:stm32f4xx_usart.c ****                                               USART_CR1_PS | USART_CR1_TE | \
 110:stm32f4xx_usart.c ****                                               USART_CR1_RE))
 111:stm32f4xx_usart.c **** 
 112:stm32f4xx_usart.c **** /*!< USART CR2 register clock bits clear Mask ((~(uint16_t)0xF0FF)) */
 113:stm32f4xx_usart.c **** #define CR2_CLOCK_CLEAR_MASK      ((uint16_t)(USART_CR2_CLKEN | USART_CR2_CPOL | \
 114:stm32f4xx_usart.c ****                                               USART_CR2_CPHA | USART_CR2_LBCL))
 115:stm32f4xx_usart.c **** 
 116:stm32f4xx_usart.c **** /*!< USART CR3 register clear Mask ((~(uint16_t)0xFCFF)) */
 117:stm32f4xx_usart.c **** #define CR3_CLEAR_MASK            ((uint16_t)(USART_CR3_RTSE | USART_CR3_CTSE))
 118:stm32f4xx_usart.c **** 
 119:stm32f4xx_usart.c **** /*!< USART Interrupts mask */
 120:stm32f4xx_usart.c **** #define IT_MASK                   ((uint16_t)0x001F)
 121:stm32f4xx_usart.c **** 
 122:stm32f4xx_usart.c **** /* Private macro -------------------------------------------------------------*/
 123:stm32f4xx_usart.c **** /* Private variables ---------------------------------------------------------*/
 124:stm32f4xx_usart.c **** /* Private function prototypes -----------------------------------------------*/
 125:stm32f4xx_usart.c **** /* Private functions ---------------------------------------------------------*/
 126:stm32f4xx_usart.c **** 
 127:stm32f4xx_usart.c **** /** @defgroup USART_Private_Functions
 128:stm32f4xx_usart.c ****   * @{
 129:stm32f4xx_usart.c ****   */
 130:stm32f4xx_usart.c **** 
 131:stm32f4xx_usart.c **** /** @defgroup USART_Group1 Initialization and Configuration functions
 132:stm32f4xx_usart.c ****  *  @brief   Initialization and Configuration functions 
 133:stm32f4xx_usart.c ****  *
 134:stm32f4xx_usart.c **** @verbatim   
 135:stm32f4xx_usart.c ****  ===============================================================================
 136:stm32f4xx_usart.c ****             ##### Initialization and Configuration functions #####
 137:stm32f4xx_usart.c ****  ===============================================================================  
 138:stm32f4xx_usart.c ****     [..]
 139:stm32f4xx_usart.c ****     This subsection provides a set of functions allowing to initialize the USART 
 140:stm32f4xx_usart.c ****     in asynchronous and in synchronous modes.
 141:stm32f4xx_usart.c ****       (+) For the asynchronous mode only these parameters can be configured: 
 142:stm32f4xx_usart.c ****         (++) Baud Rate
 143:stm32f4xx_usart.c ****         (++) Word Length 
 144:stm32f4xx_usart.c ****         (++) Stop Bit
 145:stm32f4xx_usart.c ****         (++) Parity: If the parity is enabled, then the MSB bit of the data written
 146:stm32f4xx_usart.c ****              in the data register is transmitted but is changed by the parity bit.
 147:stm32f4xx_usart.c ****              Depending on the frame length defined by the M bit (8-bits or 9-bits),
 148:stm32f4xx_usart.c ****              the possible USART frame formats are as listed in the following table:
 149:stm32f4xx_usart.c ****    +-------------------------------------------------------------+     
 150:stm32f4xx_usart.c ****    |   M bit |  PCE bit  |            USART frame                |
 151:stm32f4xx_usart.c ****    |---------------------|---------------------------------------|             
ARM GAS  /tmp/ccyhuBN5.s 			page 5


 152:stm32f4xx_usart.c ****    |    0    |    0      |    | SB | 8 bit data | STB |          |
 153:stm32f4xx_usart.c ****    |---------|-----------|---------------------------------------|  
 154:stm32f4xx_usart.c ****    |    0    |    1      |    | SB | 7 bit data | PB | STB |     |
 155:stm32f4xx_usart.c ****    |---------|-----------|---------------------------------------|  
 156:stm32f4xx_usart.c ****    |    1    |    0      |    | SB | 9 bit data | STB |          |
 157:stm32f4xx_usart.c ****    |---------|-----------|---------------------------------------|  
 158:stm32f4xx_usart.c ****    |    1    |    1      |    | SB | 8 bit data | PB | STB |     |
 159:stm32f4xx_usart.c ****    +-------------------------------------------------------------+            
 160:stm32f4xx_usart.c ****         (++) Hardware flow control
 161:stm32f4xx_usart.c ****         (++) Receiver/transmitter modes
 162:stm32f4xx_usart.c **** 
 163:stm32f4xx_usart.c ****     [..]
 164:stm32f4xx_usart.c ****     The USART_Init() function follows the USART  asynchronous configuration 
 165:stm32f4xx_usart.c ****     procedure (details for the procedure are available in reference manual (RM0090)).
 166:stm32f4xx_usart.c **** 
 167:stm32f4xx_usart.c ****      (+) For the synchronous mode in addition to the asynchronous mode parameters these 
 168:stm32f4xx_usart.c ****          parameters should be also configured:
 169:stm32f4xx_usart.c ****         (++) USART Clock Enabled
 170:stm32f4xx_usart.c ****         (++) USART polarity
 171:stm32f4xx_usart.c ****         (++) USART phase
 172:stm32f4xx_usart.c ****         (++) USART LastBit
 173:stm32f4xx_usart.c ****   
 174:stm32f4xx_usart.c ****     [..]
 175:stm32f4xx_usart.c ****     These parameters can be configured using the USART_ClockInit() function.
 176:stm32f4xx_usart.c **** 
 177:stm32f4xx_usart.c **** @endverbatim
 178:stm32f4xx_usart.c ****   * @{
 179:stm32f4xx_usart.c ****   */
 180:stm32f4xx_usart.c ****   
 181:stm32f4xx_usart.c **** /**
 182:stm32f4xx_usart.c ****   * @brief  Deinitializes the USARTx peripheral registers to their default reset values.
 183:stm32f4xx_usart.c ****   * @param  USARTx: where x can be 1, 2, 3, 4, 5, 6, 7 or 8 to select the USART or 
 184:stm32f4xx_usart.c ****   *         UART peripheral.
 185:stm32f4xx_usart.c ****   * @retval None
 186:stm32f4xx_usart.c ****   */
 187:stm32f4xx_usart.c **** void USART_DeInit(USART_TypeDef* USARTx)
 188:stm32f4xx_usart.c **** {
  78              		.loc 1 188 0
  79              		.cfi_startproc
  80              		@ args = 0, pretend = 0, frame = 0
  81              		@ frame_needed = 0, uses_anonymous_args = 0
  82              	.LVL0:
  83 0000 08B5     		push	{r3, lr}	@
  84              	.LCFI0:
  85              		.cfi_def_cfa_offset 8
  86              		.cfi_offset 3, -8
  87              		.cfi_offset 14, -4
 189:stm32f4xx_usart.c ****   /* Check the parameters */
 190:stm32f4xx_usart.c ****   assert_param(IS_USART_ALL_PERIPH(USARTx));
 191:stm32f4xx_usart.c **** 
 192:stm32f4xx_usart.c ****   if (USARTx == USART1)
  88              		.loc 1 192 0
  89 0002 234B     		ldr	r3, .L11	@ tmp135,
  90 0004 9842     		cmp	r0, r3	@ USARTx, tmp135
  91 0006 05D1     		bne	.L2	@,
 193:stm32f4xx_usart.c ****   {
 194:stm32f4xx_usart.c ****     RCC_APB2PeriphResetCmd(RCC_APB2Periph_USART1, ENABLE);
ARM GAS  /tmp/ccyhuBN5.s 			page 6


  92              		.loc 1 194 0
  93 0008 1020     		movs	r0, #16	@,
  94              	.LVL1:
  95 000a 0121     		movs	r1, #1	@,
  96 000c FFF7FEFF 		bl	RCC_APB2PeriphResetCmd	@
  97              	.LVL2:
 195:stm32f4xx_usart.c ****     RCC_APB2PeriphResetCmd(RCC_APB2Periph_USART1, DISABLE);
  98              		.loc 1 195 0
  99 0010 1020     		movs	r0, #16	@,
 100 0012 37E0     		b	.L8	@
 101              	.LVL3:
 102              	.L2:
 196:stm32f4xx_usart.c ****   }
 197:stm32f4xx_usart.c ****   else if (USARTx == USART2)
 103              		.loc 1 197 0
 104 0014 1F49     		ldr	r1, .L11+4	@ tmp136,
 105 0016 8842     		cmp	r0, r1	@ USARTx, tmp136
 106 0018 07D1     		bne	.L3	@,
 198:stm32f4xx_usart.c ****   {
 199:stm32f4xx_usart.c ****     RCC_APB1PeriphResetCmd(RCC_APB1Periph_USART2, ENABLE);
 107              		.loc 1 199 0
 108 001a 4FF40030 		mov	r0, #131072	@,
 109              	.LVL4:
 110 001e 0121     		movs	r1, #1	@,
 111 0020 FFF7FEFF 		bl	RCC_APB1PeriphResetCmd	@
 112              	.LVL5:
 200:stm32f4xx_usart.c ****     RCC_APB1PeriphResetCmd(RCC_APB1Periph_USART2, DISABLE);
 113              		.loc 1 200 0
 114 0024 4FF40030 		mov	r0, #131072	@,
 115 0028 09E0     		b	.L9	@
 116              	.LVL6:
 117              	.L3:
 201:stm32f4xx_usart.c ****   }
 202:stm32f4xx_usart.c ****   else if (USARTx == USART3)
 118              		.loc 1 202 0
 119 002a 1B4A     		ldr	r2, .L11+8	@ tmp137,
 120 002c 9042     		cmp	r0, r2	@ USARTx, tmp137
 121 002e 0BD1     		bne	.L4	@,
 203:stm32f4xx_usart.c ****   {
 204:stm32f4xx_usart.c ****     RCC_APB1PeriphResetCmd(RCC_APB1Periph_USART3, ENABLE);
 122              		.loc 1 204 0
 123 0030 4FF48020 		mov	r0, #262144	@,
 124              	.LVL7:
 125 0034 0121     		movs	r1, #1	@,
 126 0036 FFF7FEFF 		bl	RCC_APB1PeriphResetCmd	@
 127              	.LVL8:
 205:stm32f4xx_usart.c ****     RCC_APB1PeriphResetCmd(RCC_APB1Periph_USART3, DISABLE);
 128              		.loc 1 205 0
 129 003a 4FF48020 		mov	r0, #262144	@,
 130              	.L9:
 131 003e 0021     		movs	r1, #0	@,
 206:stm32f4xx_usart.c ****   }    
 207:stm32f4xx_usart.c ****   else if (USARTx == UART4)
 208:stm32f4xx_usart.c ****   {
 209:stm32f4xx_usart.c ****     RCC_APB1PeriphResetCmd(RCC_APB1Periph_UART4, ENABLE);
 210:stm32f4xx_usart.c ****     RCC_APB1PeriphResetCmd(RCC_APB1Periph_UART4, DISABLE);
 211:stm32f4xx_usart.c ****   }
ARM GAS  /tmp/ccyhuBN5.s 			page 7


 212:stm32f4xx_usart.c ****   else if (USARTx == UART5)
 213:stm32f4xx_usart.c ****   {
 214:stm32f4xx_usart.c ****     RCC_APB1PeriphResetCmd(RCC_APB1Periph_UART5, ENABLE);
 215:stm32f4xx_usart.c ****     RCC_APB1PeriphResetCmd(RCC_APB1Periph_UART5, DISABLE);
 216:stm32f4xx_usart.c ****   }  
 217:stm32f4xx_usart.c ****   else if (USARTx == USART6)
 218:stm32f4xx_usart.c ****   {
 219:stm32f4xx_usart.c ****     RCC_APB2PeriphResetCmd(RCC_APB2Periph_USART6, ENABLE);
 220:stm32f4xx_usart.c ****     RCC_APB2PeriphResetCmd(RCC_APB2Periph_USART6, DISABLE);
 221:stm32f4xx_usart.c ****   }
 222:stm32f4xx_usart.c ****   /*else if (USARTx == UART7)
 223:stm32f4xx_usart.c ****   {
 224:stm32f4xx_usart.c ****     RCC_APB1PeriphResetCmd(RCC_APB1Periph_UART7, ENABLE);
 225:stm32f4xx_usart.c ****     RCC_APB1PeriphResetCmd(RCC_APB1Periph_UART7, DISABLE);
 226:stm32f4xx_usart.c ****   }     
 227:stm32f4xx_usart.c ****   else
 228:stm32f4xx_usart.c ****   {
 229:stm32f4xx_usart.c ****     if (USARTx == UART8)
 230:stm32f4xx_usart.c ****     { 
 231:stm32f4xx_usart.c ****       RCC_APB1PeriphResetCmd(RCC_APB1Periph_UART8, ENABLE);
 232:stm32f4xx_usart.c ****       RCC_APB1PeriphResetCmd(RCC_APB1Periph_UART8, DISABLE);
 233:stm32f4xx_usart.c ****     }
 234:stm32f4xx_usart.c ****   }*/
 235:stm32f4xx_usart.c **** }
 132              		.loc 1 235 0
 133 0040 BDE80840 		pop	{r3, lr}	@
 205:stm32f4xx_usart.c ****     RCC_APB1PeriphResetCmd(RCC_APB1Periph_USART3, DISABLE);
 134              		.loc 1 205 0
 135 0044 FFF7FEBF 		b	RCC_APB1PeriphResetCmd	@
 136              	.LVL9:
 137              	.L4:
 207:stm32f4xx_usart.c ****   else if (USARTx == UART4)
 138              		.loc 1 207 0
 139 0048 144B     		ldr	r3, .L11+12	@ tmp138,
 140 004a 9842     		cmp	r0, r3	@ USARTx, tmp138
 141 004c 07D1     		bne	.L5	@,
 209:stm32f4xx_usart.c ****     RCC_APB1PeriphResetCmd(RCC_APB1Periph_UART4, ENABLE);
 142              		.loc 1 209 0
 143 004e 4FF40020 		mov	r0, #524288	@,
 144              	.LVL10:
 145 0052 0121     		movs	r1, #1	@,
 146 0054 FFF7FEFF 		bl	RCC_APB1PeriphResetCmd	@
 147              	.LVL11:
 210:stm32f4xx_usart.c ****     RCC_APB1PeriphResetCmd(RCC_APB1Periph_UART4, DISABLE);
 148              		.loc 1 210 0
 149 0058 4FF40020 		mov	r0, #524288	@,
 150 005c EFE7     		b	.L9	@
 151              	.LVL12:
 152              	.L5:
 212:stm32f4xx_usart.c ****   else if (USARTx == UART5)
 153              		.loc 1 212 0
 154 005e 1049     		ldr	r1, .L11+16	@ tmp139,
 155 0060 8842     		cmp	r0, r1	@ USARTx, tmp139
 156 0062 07D1     		bne	.L6	@,
 214:stm32f4xx_usart.c ****     RCC_APB1PeriphResetCmd(RCC_APB1Periph_UART5, ENABLE);
 157              		.loc 1 214 0
 158 0064 4FF48010 		mov	r0, #1048576	@,
ARM GAS  /tmp/ccyhuBN5.s 			page 8


 159              	.LVL13:
 160 0068 0121     		movs	r1, #1	@,
 161 006a FFF7FEFF 		bl	RCC_APB1PeriphResetCmd	@
 162              	.LVL14:
 215:stm32f4xx_usart.c ****     RCC_APB1PeriphResetCmd(RCC_APB1Periph_UART5, DISABLE);
 163              		.loc 1 215 0
 164 006e 4FF48010 		mov	r0, #1048576	@,
 165 0072 E4E7     		b	.L9	@
 166              	.LVL15:
 167              	.L6:
 217:stm32f4xx_usart.c ****   else if (USARTx == USART6)
 168              		.loc 1 217 0
 169 0074 0B4A     		ldr	r2, .L11+20	@ tmp140,
 170 0076 9042     		cmp	r0, r2	@ USARTx, tmp140
 171 0078 09D1     		bne	.L1	@,
 219:stm32f4xx_usart.c ****     RCC_APB2PeriphResetCmd(RCC_APB2Periph_USART6, ENABLE);
 172              		.loc 1 219 0
 173 007a 2020     		movs	r0, #32	@,
 174              	.LVL16:
 175 007c 0121     		movs	r1, #1	@,
 176 007e FFF7FEFF 		bl	RCC_APB2PeriphResetCmd	@
 177              	.LVL17:
 220:stm32f4xx_usart.c ****     RCC_APB2PeriphResetCmd(RCC_APB2Periph_USART6, DISABLE);
 178              		.loc 1 220 0
 179 0082 2020     		movs	r0, #32	@,
 180              	.L8:
 181 0084 0021     		movs	r1, #0	@,
 182              		.loc 1 235 0
 183 0086 BDE80840 		pop	{r3, lr}	@
 220:stm32f4xx_usart.c ****     RCC_APB2PeriphResetCmd(RCC_APB2Periph_USART6, DISABLE);
 184              		.loc 1 220 0
 185 008a FFF7FEBF 		b	RCC_APB2PeriphResetCmd	@
 186              	.LVL18:
 187              	.L1:
 188 008e 08BD     		pop	{r3, pc}	@
 189              	.L12:
 190              		.align	2
 191              	.L11:
 192 0090 00100140 		.word	1073811456
 193 0094 00440040 		.word	1073759232
 194 0098 00480040 		.word	1073760256
 195 009c 004C0040 		.word	1073761280
 196 00a0 00500040 		.word	1073762304
 197 00a4 00140140 		.word	1073812480
 198              		.cfi_endproc
 199              	.LFE110:
 200              		.size	USART_DeInit, .-USART_DeInit
 201              		.section	.text.USART_Init,"ax",%progbits
 202              		.align	1
 203              		.global	USART_Init
 204              		.thumb
 205              		.thumb_func
 206              		.type	USART_Init, %function
 207              	USART_Init:
 208              	.LFB111:
 236:stm32f4xx_usart.c **** 
 237:stm32f4xx_usart.c **** /**
ARM GAS  /tmp/ccyhuBN5.s 			page 9


 238:stm32f4xx_usart.c ****   * @brief  Initializes the USARTx peripheral according to the specified
 239:stm32f4xx_usart.c ****   *         parameters in the USART_InitStruct .
 240:stm32f4xx_usart.c ****   * @param  USARTx: where x can be 1, 2, 3, 4, 5, 6, 7 or 8 to select the USART or 
 241:stm32f4xx_usart.c ****   *         UART peripheral.
 242:stm32f4xx_usart.c ****   * @param  USART_InitStruct: pointer to a USART_InitTypeDef structure that contains
 243:stm32f4xx_usart.c ****   *         the configuration information for the specified USART peripheral.
 244:stm32f4xx_usart.c ****   * @retval None
 245:stm32f4xx_usart.c ****   */
 246:stm32f4xx_usart.c **** void USART_Init(USART_TypeDef* USARTx, USART_InitTypeDef* USART_InitStruct)
 247:stm32f4xx_usart.c **** {
 209              		.loc 1 247 0
 210              		.cfi_startproc
 211              		@ args = 0, pretend = 0, frame = 16
 212              		@ frame_needed = 0, uses_anonymous_args = 0
 213              	.LVL19:
 248:stm32f4xx_usart.c ****   uint32_t tmpreg = 0x00, apbclock = 0x00;
 249:stm32f4xx_usart.c ****   uint32_t integerdivider = 0x00;
 250:stm32f4xx_usart.c ****   uint32_t fractionaldivider = 0x00;
 251:stm32f4xx_usart.c ****   RCC_ClocksTypeDef RCC_ClocksStatus;
 252:stm32f4xx_usart.c **** 
 253:stm32f4xx_usart.c ****   /* Check the parameters */
 254:stm32f4xx_usart.c ****   assert_param(IS_USART_ALL_PERIPH(USARTx));
 255:stm32f4xx_usart.c ****   assert_param(IS_USART_BAUDRATE(USART_InitStruct->USART_BaudRate));  
 256:stm32f4xx_usart.c ****   assert_param(IS_USART_WORD_LENGTH(USART_InitStruct->USART_WordLength));
 257:stm32f4xx_usart.c ****   assert_param(IS_USART_STOPBITS(USART_InitStruct->USART_StopBits));
 258:stm32f4xx_usart.c ****   assert_param(IS_USART_PARITY(USART_InitStruct->USART_Parity));
 259:stm32f4xx_usart.c ****   assert_param(IS_USART_MODE(USART_InitStruct->USART_Mode));
 260:stm32f4xx_usart.c ****   assert_param(IS_USART_HARDWARE_FLOW_CONTROL(USART_InitStruct->USART_HardwareFlowControl));
 261:stm32f4xx_usart.c **** 
 262:stm32f4xx_usart.c ****   /* The hardware flow control is available only for USART1, USART2, USART3 and USART6 */
 263:stm32f4xx_usart.c ****   if (USART_InitStruct->USART_HardwareFlowControl != USART_HardwareFlowControl_None)
 264:stm32f4xx_usart.c ****   {
 265:stm32f4xx_usart.c ****     assert_param(IS_USART_1236_PERIPH(USARTx));
 266:stm32f4xx_usart.c ****   }
 267:stm32f4xx_usart.c **** 
 268:stm32f4xx_usart.c **** /*---------------------------- USART CR2 Configuration -----------------------*/
 269:stm32f4xx_usart.c ****   tmpreg = USARTx->CR2;
 214              		.loc 1 269 0
 215 0000 038A     		ldrh	r3, [r0, #16]	@, USARTx_10(D)->CR2
 247:stm32f4xx_usart.c **** {
 216              		.loc 1 247 0
 217 0002 30B5     		push	{r4, r5, lr}	@
 218              	.LCFI1:
 219              		.cfi_def_cfa_offset 12
 220              		.cfi_offset 4, -12
 221              		.cfi_offset 5, -8
 222              		.cfi_offset 14, -4
 223 0004 0D46     		mov	r5, r1	@ USART_InitStruct, USART_InitStruct
 224 0006 0446     		mov	r4, r0	@ USARTx, USARTx
 270:stm32f4xx_usart.c **** 
 271:stm32f4xx_usart.c ****   /* Clear STOP[13:12] bits */
 272:stm32f4xx_usart.c ****   tmpreg &= (uint32_t)~((uint32_t)USART_CR2_STOP);
 273:stm32f4xx_usart.c **** 
 274:stm32f4xx_usart.c ****   /* Configure the USART Stop Bits, Clock, CPOL, CPHA and LastBit :
 275:stm32f4xx_usart.c ****       Set STOP[13:12] bits according to USART_StopBits value */
 276:stm32f4xx_usart.c ****   tmpreg |= (uint32_t)USART_InitStruct->USART_StopBits;
 225              		.loc 1 276 0
ARM GAS  /tmp/ccyhuBN5.s 			page 10


 226 0008 EA88     		ldrh	r2, [r5, #6]	@ USART_InitStruct_8(D)->USART_StopBits, USART_InitStruct_8(D)->USART_StopBits
 269:stm32f4xx_usart.c ****   tmpreg = USARTx->CR2;
 227              		.loc 1 269 0
 228 000a 98B2     		uxth	r0, r3	@ D.6225, USARTx_10(D)->CR2
 229              	.LVL20:
 272:stm32f4xx_usart.c ****   tmpreg &= (uint32_t)~((uint32_t)USART_CR2_STOP);
 230              		.loc 1 272 0
 231 000c 20F44051 		bic	r1, r0, #12288	@ tmpreg, D.6225,
 232              	.LVL21:
 277:stm32f4xx_usart.c ****   
 278:stm32f4xx_usart.c ****   /* Write to USART CR2 */
 279:stm32f4xx_usart.c ****   USARTx->CR2 = (uint16_t)tmpreg;
 233              		.loc 1 279 0
 234 0010 1143     		orrs	r1, r1, r2	@, D.6228, tmpreg, USART_InitStruct_8(D)->USART_StopBits
 235              	.LVL22:
 236 0012 2182     		strh	r1, [r4, #16]	@ movhi	@ D.6228, USARTx_10(D)->CR2
 280:stm32f4xx_usart.c **** 
 281:stm32f4xx_usart.c **** /*---------------------------- USART CR1 Configuration -----------------------*/
 282:stm32f4xx_usart.c ****   tmpreg = USARTx->CR1;
 237              		.loc 1 282 0
 238 0014 A389     		ldrh	r3, [r4, #12]	@, USARTx_10(D)->CR1
 239              	.LVL23:
 283:stm32f4xx_usart.c **** 
 284:stm32f4xx_usart.c ****   /* Clear M, PCE, PS, TE and RE bits */
 285:stm32f4xx_usart.c ****   tmpreg &= (uint32_t)~((uint32_t)CR1_CLEAR_MASK);
 240              		.loc 1 285 0
 241 0016 23F4B050 		bic	r0, r3, #5632	@ tmpreg, USARTx_10(D)->CR1,
 242 001a 20F00C01 		bic	r1, r0, #12	@ tmpreg, tmpreg,
 243 001e 0A04     		lsls	r2, r1, #16	@ tmpreg, tmpreg,
 286:stm32f4xx_usart.c **** 
 287:stm32f4xx_usart.c ****   /* Configure the USART Word Length, Parity and mode: 
 288:stm32f4xx_usart.c ****      Set the M bits according to USART_WordLength value 
 289:stm32f4xx_usart.c ****      Set PCE and PS bits according to USART_Parity value
 290:stm32f4xx_usart.c ****      Set TE and RE bits according to USART_Mode value */
 291:stm32f4xx_usart.c ****   tmpreg |= (uint32_t)USART_InitStruct->USART_WordLength | USART_InitStruct->USART_Parity |
 244              		.loc 1 291 0
 245 0020 2889     		ldrh	r0, [r5, #8]	@, USART_InitStruct_8(D)->USART_Parity
 246 0022 A988     		ldrh	r1, [r5, #4]	@, USART_InitStruct_8(D)->USART_WordLength
 285:stm32f4xx_usart.c ****   tmpreg &= (uint32_t)~((uint32_t)CR1_CLEAR_MASK);
 247              		.loc 1 285 0
 248 0024 130C     		lsrs	r3, r2, #16	@ tmpreg, tmpreg,
 249              	.LVL24:
 250              		.loc 1 291 0
 251 0026 40EA0102 		orr	r2, r0, r1	@ tmp206, USART_InitStruct_8(D)->USART_Parity, USART_InitStruct_8(D)->USART_WordLen
 252 002a 6889     		ldrh	r0, [r5, #10]	@, USART_InitStruct_8(D)->USART_Mode
 253 002c 0243     		orrs	r2, r2, r0	@, tmp209, tmp206, USART_InitStruct_8(D)->USART_Mode
 254 002e 91B2     		uxth	r1, r2	@ tmp210, tmp209
 292:stm32f4xx_usart.c ****             USART_InitStruct->USART_Mode;
 293:stm32f4xx_usart.c **** 
 294:stm32f4xx_usart.c ****   /* Write to USART CR1 */
 295:stm32f4xx_usart.c ****   USARTx->CR1 = (uint16_t)tmpreg;
 255              		.loc 1 295 0
 256 0030 0B43     		orrs	r3, r3, r1	@, D.6228, tmpreg, tmp210
 257              	.LVL25:
 258 0032 A381     		strh	r3, [r4, #12]	@ movhi	@ D.6228, USARTx_10(D)->CR1
 296:stm32f4xx_usart.c **** 
 297:stm32f4xx_usart.c **** /*---------------------------- USART CR3 Configuration -----------------------*/  
ARM GAS  /tmp/ccyhuBN5.s 			page 11


 298:stm32f4xx_usart.c ****   tmpreg = USARTx->CR3;
 259              		.loc 1 298 0
 260 0034 A28A     		ldrh	r2, [r4, #20]	@, USARTx_10(D)->CR3
 299:stm32f4xx_usart.c **** 
 300:stm32f4xx_usart.c ****   /* Clear CTSE and RTSE bits */
 301:stm32f4xx_usart.c ****   tmpreg &= (uint32_t)~((uint32_t)CR3_CLEAR_MASK);
 302:stm32f4xx_usart.c **** 
 303:stm32f4xx_usart.c ****   /* Configure the USART HFC : 
 304:stm32f4xx_usart.c ****       Set CTSE and RTSE bits according to USART_HardwareFlowControl value */
 305:stm32f4xx_usart.c ****   tmpreg |= USART_InitStruct->USART_HardwareFlowControl;
 261              		.loc 1 305 0
 262 0036 AB89     		ldrh	r3, [r5, #12]	@ USART_InitStruct_8(D)->USART_HardwareFlowControl, USART_InitStruct_8(D)->USAR
 298:stm32f4xx_usart.c ****   tmpreg = USARTx->CR3;
 263              		.loc 1 298 0
 264 0038 90B2     		uxth	r0, r2	@ D.6236, USARTx_10(D)->CR3
 265              	.LVL26:
 301:stm32f4xx_usart.c ****   tmpreg &= (uint32_t)~((uint32_t)CR3_CLEAR_MASK);
 266              		.loc 1 301 0
 267 003a 20F44071 		bic	r1, r0, #768	@ tmpreg, D.6236,
 268              	.LVL27:
 247:stm32f4xx_usart.c **** {
 269              		.loc 1 247 0
 270 003e 85B0     		sub	sp, sp, #20	@,,
 271              	.LCFI2:
 272              		.cfi_def_cfa_offset 32
 306:stm32f4xx_usart.c **** 
 307:stm32f4xx_usart.c ****   /* Write to USART CR3 */
 308:stm32f4xx_usart.c ****   USARTx->CR3 = (uint16_t)tmpreg;
 273              		.loc 1 308 0
 274 0040 1943     		orrs	r1, r1, r3	@, D.6228, tmpreg, USART_InitStruct_8(D)->USART_HardwareFlowControl
 275              	.LVL28:
 276 0042 A182     		strh	r1, [r4, #20]	@ movhi	@ D.6228, USARTx_10(D)->CR3
 309:stm32f4xx_usart.c **** 
 310:stm32f4xx_usart.c **** /*---------------------------- USART BRR Configuration -----------------------*/
 311:stm32f4xx_usart.c ****   /* Configure the USART Baud Rate */
 312:stm32f4xx_usart.c ****   RCC_GetClocksFreq(&RCC_ClocksStatus);
 277              		.loc 1 312 0
 278 0044 6846     		mov	r0, sp	@,
 279 0046 FFF7FEFF 		bl	RCC_GetClocksFreq	@
 280              	.LVL29:
 313:stm32f4xx_usart.c **** 
 314:stm32f4xx_usart.c ****   if ((USARTx == USART1) || (USARTx == USART6))
 281              		.loc 1 314 0
 282 004a 1A4A     		ldr	r2, .L23	@ tmp219,
 283 004c 9442     		cmp	r4, r2	@ USARTx, tmp219
 284 004e 03D0     		beq	.L14	@,
 285              		.loc 1 314 0 is_stmt 0 discriminator 1
 286 0050 02F58060 		add	r0, r2, #1024	@ tmp220, tmp220,
 287 0054 8442     		cmp	r4, r0	@ USARTx, tmp220
 288 0056 01D1     		bne	.L15	@,
 289              	.L14:
 315:stm32f4xx_usart.c ****   {
 316:stm32f4xx_usart.c ****     apbclock = RCC_ClocksStatus.PCLK2_Frequency;
 290              		.loc 1 316 0 is_stmt 1
 291 0058 039B     		ldr	r3, [sp, #12]	@ apbclock, RCC_ClocksStatus.PCLK2_Frequency
 292              	.LVL30:
 293 005a 00E0     		b	.L16	@
ARM GAS  /tmp/ccyhuBN5.s 			page 12


 294              	.LVL31:
 295              	.L15:
 317:stm32f4xx_usart.c ****   }
 318:stm32f4xx_usart.c ****   else
 319:stm32f4xx_usart.c ****   {
 320:stm32f4xx_usart.c ****     apbclock = RCC_ClocksStatus.PCLK1_Frequency;
 296              		.loc 1 320 0
 297 005c 029B     		ldr	r3, [sp, #8]	@ apbclock, RCC_ClocksStatus.PCLK1_Frequency
 298              	.LVL32:
 299              	.L16:
 321:stm32f4xx_usart.c ****   }
 322:stm32f4xx_usart.c ****   
 323:stm32f4xx_usart.c ****   /* Determine the integer part */
 324:stm32f4xx_usart.c ****   if ((USARTx->CR1 & USART_CR1_OVER8) != 0)
 300              		.loc 1 324 0
 301 005e A189     		ldrh	r1, [r4, #12]	@, USARTx_10(D)->CR1
 302 0060 0AB2     		sxth	r2, r1	@ D.6242, USARTx_10(D)->CR1
 303 0062 002A     		cmp	r2, #0	@ D.6242,
 304 0064 4FF01900 		mov	r0, #25	@ tmp254,
 305 0068 2A68     		ldr	r2, [r5, #0]	@ USART_InitStruct_8(D)->USART_BaudRate, USART_InitStruct_8(D)->USART_BaudRate
 325:stm32f4xx_usart.c ****   {
 326:stm32f4xx_usart.c ****     /* Integer part computing in case Oversampling mode is 8 Samples */
 327:stm32f4xx_usart.c ****     integerdivider = ((25 * apbclock) / (2 * (USART_InitStruct->USART_BaudRate)));    
 306              		.loc 1 327 0
 307 006a 00FB03F3 		mul	r3, r0, r3	@ tmp224, tmp254, apbclock
 308              	.LVL33:
 324:stm32f4xx_usart.c ****   if ((USARTx->CR1 & USART_CR1_OVER8) != 0)
 309              		.loc 1 324 0
 310 006e 01DA     		bge	.L17	@,
 311              		.loc 1 327 0
 312 0070 5100     		lsls	r1, r2, #1	@ tmp226, USART_InitStruct_8(D)->USART_BaudRate,
 313 0072 00E0     		b	.L21	@
 314              	.L17:
 328:stm32f4xx_usart.c ****   }
 329:stm32f4xx_usart.c ****   else /* if ((USARTx->CR1 & USART_CR1_OVER8) == 0) */
 330:stm32f4xx_usart.c ****   {
 331:stm32f4xx_usart.c ****     /* Integer part computing in case Oversampling mode is 16 Samples */
 332:stm32f4xx_usart.c ****     integerdivider = ((25 * apbclock) / (4 * (USART_InitStruct->USART_BaudRate)));    
 315              		.loc 1 332 0
 316 0074 9100     		lsls	r1, r2, #2	@ tmp230, USART_InitStruct_8(D)->USART_BaudRate,
 317              	.L21:
 318 0076 B3FBF1F1 		udiv	r1, r3, r1	@ integerdivider, tmp228, tmp230
 319              	.LVL34:
 333:stm32f4xx_usart.c ****   }
 334:stm32f4xx_usart.c ****   tmpreg = (integerdivider / 100) << 4;
 320              		.loc 1 334 0
 321 007a 6423     		movs	r3, #100	@ tmp234,
 322 007c B1FBF3F0 		udiv	r0, r1, r3	@ tmp233, integerdivider, tmp234
 323 0080 0201     		lsls	r2, r0, #4	@ tmpreg, tmp233,
 324              	.LVL35:
 335:stm32f4xx_usart.c **** 
 336:stm32f4xx_usart.c ****   /* Determine the fractional part */
 337:stm32f4xx_usart.c ****   fractionaldivider = integerdivider - (100 * (tmpreg >> 4));
 325              		.loc 1 337 0
 326 0082 1009     		lsrs	r0, r2, #4	@ tmp235, tmpreg,
 327 0084 03FB1011 		mls	r1, r3, r0, r1	@ fractionaldivider, tmp234, tmp235, integerdivider
 328              	.LVL36:
ARM GAS  /tmp/ccyhuBN5.s 			page 13


 338:stm32f4xx_usart.c **** 
 339:stm32f4xx_usart.c ****   /* Implement the fractional part in the register */
 340:stm32f4xx_usart.c ****   if ((USARTx->CR1 & USART_CR1_OVER8) != 0)
 329              		.loc 1 340 0
 330 0088 A089     		ldrh	r0, [r4, #12]	@, USARTx_10(D)->CR1
 331 008a 00B2     		sxth	r0, r0	@ D.6254, USARTx_10(D)->CR1
 332 008c 0028     		cmp	r0, #0	@ D.6254,
 333 008e 06DA     		bge	.L19	@,
 341:stm32f4xx_usart.c ****   {
 342:stm32f4xx_usart.c ****     tmpreg |= ((((fractionaldivider * 8) + 50) / 100)) & ((uint8_t)0x07);
 334              		.loc 1 342 0
 335 0090 C900     		lsls	r1, r1, #3	@ tmp241, fractionaldivider,
 336              	.LVL37:
 337 0092 3231     		adds	r1, r1, #50	@ tmp242, tmp241,
 338 0094 B1FBF3F3 		udiv	r3, r1, r3	@ tmp244, tmp242, tmp234
 339 0098 03F00700 		and	r0, r3, #7	@ tmp246, tmp244,
 340 009c 05E0     		b	.L22	@
 341              	.LVL38:
 342              	.L19:
 343:stm32f4xx_usart.c ****   }
 344:stm32f4xx_usart.c ****   else /* if ((USARTx->CR1 & USART_CR1_OVER8) == 0) */
 345:stm32f4xx_usart.c ****   {
 346:stm32f4xx_usart.c ****     tmpreg |= ((((fractionaldivider * 16) + 50) / 100)) & ((uint8_t)0x0F);
 343              		.loc 1 346 0
 344 009e 0901     		lsls	r1, r1, #4	@ tmp247, fractionaldivider,
 345              	.LVL39:
 346 00a0 3231     		adds	r1, r1, #50	@ tmp248, tmp247,
 347 00a2 B1FBF3F3 		udiv	r3, r1, r3	@ tmp250, tmp248, tmp234
 348 00a6 03F00F00 		and	r0, r3, #15	@ tmp252, tmp250,
 349              	.L22:
 350 00aa 0243     		orrs	r2, r2, r0	@, tmpreg, tmpreg, tmp252
 351              	.LVL40:
 347:stm32f4xx_usart.c ****   }
 348:stm32f4xx_usart.c ****   
 349:stm32f4xx_usart.c ****   /* Write to USART BRR register */
 350:stm32f4xx_usart.c ****   USARTx->BRR = (uint16_t)tmpreg;
 352              		.loc 1 350 0
 353 00ac 90B2     		uxth	r0, r2	@ D.6228, tmpreg
 354 00ae 2081     		strh	r0, [r4, #8]	@ movhi	@ D.6228, USARTx_10(D)->BRR
 351:stm32f4xx_usart.c **** }
 355              		.loc 1 351 0
 356 00b0 05B0     		add	sp, sp, #20	@,,
 357 00b2 30BD     		pop	{r4, r5, pc}
 358              	.L24:
 359              		.align	2
 360              	.L23:
 361 00b4 00100140 		.word	1073811456
 362              		.cfi_endproc
 363              	.LFE111:
 364              		.size	USART_Init, .-USART_Init
 365              		.section	.text.USART_StructInit,"ax",%progbits
 366              		.align	1
 367              		.global	USART_StructInit
 368              		.thumb
 369              		.thumb_func
 370              		.type	USART_StructInit, %function
 371              	USART_StructInit:
ARM GAS  /tmp/ccyhuBN5.s 			page 14


 372              	.LFB112:
 352:stm32f4xx_usart.c **** 
 353:stm32f4xx_usart.c **** /**
 354:stm32f4xx_usart.c ****   * @brief  Fills each USART_InitStruct member with its default value.
 355:stm32f4xx_usart.c ****   * @param  USART_InitStruct: pointer to a USART_InitTypeDef structure which will
 356:stm32f4xx_usart.c ****   *         be initialized.
 357:stm32f4xx_usart.c ****   * @retval None
 358:stm32f4xx_usart.c ****   */
 359:stm32f4xx_usart.c **** void USART_StructInit(USART_InitTypeDef* USART_InitStruct)
 360:stm32f4xx_usart.c **** {
 373              		.loc 1 360 0
 374              		.cfi_startproc
 375              		@ args = 0, pretend = 0, frame = 0
 376              		@ frame_needed = 0, uses_anonymous_args = 0
 377              		@ link register save eliminated.
 378              	.LVL41:
 361:stm32f4xx_usart.c ****   /* USART_InitStruct members default value */
 362:stm32f4xx_usart.c ****   USART_InitStruct->USART_BaudRate = 9600;
 363:stm32f4xx_usart.c ****   USART_InitStruct->USART_WordLength = USART_WordLength_8b;
 379              		.loc 1 363 0
 380 0000 0021     		movs	r1, #0	@ tmp137,
 362:stm32f4xx_usart.c ****   USART_InitStruct->USART_BaudRate = 9600;
 381              		.loc 1 362 0
 382 0002 4FF41653 		mov	r3, #9600	@ tmp135,
 364:stm32f4xx_usart.c ****   USART_InitStruct->USART_StopBits = USART_StopBits_1;
 365:stm32f4xx_usart.c ****   USART_InitStruct->USART_Parity = USART_Parity_No ;
 366:stm32f4xx_usart.c ****   USART_InitStruct->USART_Mode = USART_Mode_Rx | USART_Mode_Tx;
 383              		.loc 1 366 0
 384 0006 0C22     		movs	r2, #12	@ tmp143,
 362:stm32f4xx_usart.c ****   USART_InitStruct->USART_BaudRate = 9600;
 385              		.loc 1 362 0
 386 0008 0360     		str	r3, [r0, #0]	@ tmp135, USART_InitStruct_1(D)->USART_BaudRate
 363:stm32f4xx_usart.c ****   USART_InitStruct->USART_WordLength = USART_WordLength_8b;
 387              		.loc 1 363 0
 388 000a 8180     		strh	r1, [r0, #4]	@ movhi	@ tmp137, USART_InitStruct_1(D)->USART_WordLength
 364:stm32f4xx_usart.c ****   USART_InitStruct->USART_StopBits = USART_StopBits_1;
 389              		.loc 1 364 0
 390 000c C180     		strh	r1, [r0, #6]	@ movhi	@ tmp137, USART_InitStruct_1(D)->USART_StopBits
 365:stm32f4xx_usart.c ****   USART_InitStruct->USART_Parity = USART_Parity_No ;
 391              		.loc 1 365 0
 392 000e 0181     		strh	r1, [r0, #8]	@ movhi	@ tmp137, USART_InitStruct_1(D)->USART_Parity
 393              		.loc 1 366 0
 394 0010 4281     		strh	r2, [r0, #10]	@ movhi	@ tmp143, USART_InitStruct_1(D)->USART_Mode
 367:stm32f4xx_usart.c ****   USART_InitStruct->USART_HardwareFlowControl = USART_HardwareFlowControl_None;  
 395              		.loc 1 367 0
 396 0012 8181     		strh	r1, [r0, #12]	@ movhi	@ tmp137, USART_InitStruct_1(D)->USART_HardwareFlowControl
 397 0014 7047     		bx	lr	@
 398              		.cfi_endproc
 399              	.LFE112:
 400              		.size	USART_StructInit, .-USART_StructInit
 401              		.section	.text.USART_ClockInit,"ax",%progbits
 402              		.align	1
 403              		.global	USART_ClockInit
 404              		.thumb
 405              		.thumb_func
 406              		.type	USART_ClockInit, %function
 407              	USART_ClockInit:
ARM GAS  /tmp/ccyhuBN5.s 			page 15


 408              	.LFB113:
 368:stm32f4xx_usart.c **** }
 369:stm32f4xx_usart.c **** 
 370:stm32f4xx_usart.c **** /**
 371:stm32f4xx_usart.c ****   * @brief  Initializes the USARTx peripheral Clock according to the 
 372:stm32f4xx_usart.c ****   *         specified parameters in the USART_ClockInitStruct .
 373:stm32f4xx_usart.c ****   * @param  USARTx: where x can be 1, 2, 3 or 6 to select the USART peripheral.
 374:stm32f4xx_usart.c ****   * @param  USART_ClockInitStruct: pointer to a USART_ClockInitTypeDef structure that
 375:stm32f4xx_usart.c ****   *         contains the configuration information for the specified  USART peripheral.
 376:stm32f4xx_usart.c ****   * @note   The Smart Card and Synchronous modes are not available for UART4 and UART5.    
 377:stm32f4xx_usart.c ****   * @retval None
 378:stm32f4xx_usart.c ****   */
 379:stm32f4xx_usart.c **** void USART_ClockInit(USART_TypeDef* USARTx, USART_ClockInitTypeDef* USART_ClockInitStruct)
 380:stm32f4xx_usart.c **** {
 409              		.loc 1 380 0
 410              		.cfi_startproc
 411              		@ args = 0, pretend = 0, frame = 0
 412              		@ frame_needed = 0, uses_anonymous_args = 0
 413              	.LVL42:
 381:stm32f4xx_usart.c ****   uint32_t tmpreg = 0x00;
 382:stm32f4xx_usart.c ****   /* Check the parameters */
 383:stm32f4xx_usart.c ****   assert_param(IS_USART_1236_PERIPH(USARTx));
 384:stm32f4xx_usart.c ****   assert_param(IS_USART_CLOCK(USART_ClockInitStruct->USART_Clock));
 385:stm32f4xx_usart.c ****   assert_param(IS_USART_CPOL(USART_ClockInitStruct->USART_CPOL));
 386:stm32f4xx_usart.c ****   assert_param(IS_USART_CPHA(USART_ClockInitStruct->USART_CPHA));
 387:stm32f4xx_usart.c ****   assert_param(IS_USART_LASTBIT(USART_ClockInitStruct->USART_LastBit));
 388:stm32f4xx_usart.c ****   
 389:stm32f4xx_usart.c **** /*---------------------------- USART CR2 Configuration -----------------------*/
 390:stm32f4xx_usart.c ****   tmpreg = USARTx->CR2;
 414              		.loc 1 390 0
 415 0000 028A     		ldrh	r2, [r0, #16]	@, USARTx_2(D)->CR2
 416 0002 93B2     		uxth	r3, r2	@ D.6212, USARTx_2(D)->CR2
 417              	.LVL43:
 391:stm32f4xx_usart.c ****   /* Clear CLKEN, CPOL, CPHA and LBCL bits */
 392:stm32f4xx_usart.c ****   tmpreg &= (uint32_t)~((uint32_t)CR2_CLOCK_CLEAR_MASK);
 418              		.loc 1 392 0
 419 0004 23F47062 		bic	r2, r3, #3840	@ tmpreg, D.6212,
 420              	.LVL44:
 380:stm32f4xx_usart.c **** {
 421              		.loc 1 380 0
 422 0008 10B5     		push	{r4, lr}	@
 423              	.LCFI3:
 424              		.cfi_def_cfa_offset 8
 425              		.cfi_offset 4, -8
 426              		.cfi_offset 14, -4
 393:stm32f4xx_usart.c ****   /* Configure the USART Clock, CPOL, CPHA and LastBit ------------*/
 394:stm32f4xx_usart.c ****   /* Set CLKEN bit according to USART_Clock value */
 395:stm32f4xx_usart.c ****   /* Set CPOL bit according to USART_CPOL value */
 396:stm32f4xx_usart.c ****   /* Set CPHA bit according to USART_CPHA value */
 397:stm32f4xx_usart.c ****   /* Set LBCL bit according to USART_LastBit value */
 398:stm32f4xx_usart.c ****   tmpreg |= (uint32_t)USART_ClockInitStruct->USART_Clock | USART_ClockInitStruct->USART_CPOL | 
 399:stm32f4xx_usart.c ****                  USART_ClockInitStruct->USART_CPHA | USART_ClockInitStruct->USART_LastBit;
 427              		.loc 1 399 0
 428 000a 0B88     		ldrh	r3, [r1, #0]	@, USART_ClockInitStruct_6(D)->USART_Clock
 429 000c 4C88     		ldrh	r4, [r1, #2]	@, USART_ClockInitStruct_6(D)->USART_CPOL
 430 000e 2343     		orrs	r3, r3, r4	@, tmp153, USART_ClockInitStruct_6(D)->USART_Clock, USART_ClockInitStruct_6(D)->US
 431 0010 8C88     		ldrh	r4, [r1, #4]	@, USART_ClockInitStruct_6(D)->USART_CPHA
ARM GAS  /tmp/ccyhuBN5.s 			page 16


 432 0012 C988     		ldrh	r1, [r1, #6]	@, USART_ClockInitStruct_6(D)->USART_LastBit
 433              	.LVL45:
 434 0014 2343     		orrs	r3, r3, r4	@, tmp156, tmp153, USART_ClockInitStruct_6(D)->USART_CPHA
 435 0016 0B43     		orrs	r3, r3, r1	@, tmp159, tmp156, USART_ClockInitStruct_6(D)->USART_LastBit
 436 0018 9BB2     		uxth	r3, r3	@ tmp160, tmp159
 400:stm32f4xx_usart.c ****   /* Write to USART CR2 */
 401:stm32f4xx_usart.c ****   USARTx->CR2 = (uint16_t)tmpreg;
 437              		.loc 1 401 0
 438 001a 1343     		orrs	r3, r3, r2	@, D.6221, tmp160, tmpreg
 439 001c 0382     		strh	r3, [r0, #16]	@ movhi	@ D.6221, USARTx_2(D)->CR2
 440 001e 10BD     		pop	{r4, pc}	@
 441              		.cfi_endproc
 442              	.LFE113:
 443              		.size	USART_ClockInit, .-USART_ClockInit
 444              		.section	.text.USART_ClockStructInit,"ax",%progbits
 445              		.align	1
 446              		.global	USART_ClockStructInit
 447              		.thumb
 448              		.thumb_func
 449              		.type	USART_ClockStructInit, %function
 450              	USART_ClockStructInit:
 451              	.LFB114:
 402:stm32f4xx_usart.c **** }
 403:stm32f4xx_usart.c **** 
 404:stm32f4xx_usart.c **** /**
 405:stm32f4xx_usart.c ****   * @brief  Fills each USART_ClockInitStruct member with its default value.
 406:stm32f4xx_usart.c ****   * @param  USART_ClockInitStruct: pointer to a USART_ClockInitTypeDef structure
 407:stm32f4xx_usart.c ****   *         which will be initialized.
 408:stm32f4xx_usart.c ****   * @retval None
 409:stm32f4xx_usart.c ****   */
 410:stm32f4xx_usart.c **** void USART_ClockStructInit(USART_ClockInitTypeDef* USART_ClockInitStruct)
 411:stm32f4xx_usart.c **** {
 452              		.loc 1 411 0
 453              		.cfi_startproc
 454              		@ args = 0, pretend = 0, frame = 0
 455              		@ frame_needed = 0, uses_anonymous_args = 0
 456              		@ link register save eliminated.
 457              	.LVL46:
 412:stm32f4xx_usart.c ****   /* USART_ClockInitStruct members default value */
 413:stm32f4xx_usart.c ****   USART_ClockInitStruct->USART_Clock = USART_Clock_Disable;
 458              		.loc 1 413 0
 459 0000 0023     		movs	r3, #0	@ tmp136,
 460 0002 0380     		strh	r3, [r0, #0]	@ movhi	@ tmp136, USART_ClockInitStruct_1(D)->USART_Clock
 414:stm32f4xx_usart.c ****   USART_ClockInitStruct->USART_CPOL = USART_CPOL_Low;
 461              		.loc 1 414 0
 462 0004 4380     		strh	r3, [r0, #2]	@ movhi	@ tmp136, USART_ClockInitStruct_1(D)->USART_CPOL
 415:stm32f4xx_usart.c ****   USART_ClockInitStruct->USART_CPHA = USART_CPHA_1Edge;
 463              		.loc 1 415 0
 464 0006 8380     		strh	r3, [r0, #4]	@ movhi	@ tmp136, USART_ClockInitStruct_1(D)->USART_CPHA
 416:stm32f4xx_usart.c ****   USART_ClockInitStruct->USART_LastBit = USART_LastBit_Disable;
 465              		.loc 1 416 0
 466 0008 C380     		strh	r3, [r0, #6]	@ movhi	@ tmp136, USART_ClockInitStruct_1(D)->USART_LastBit
 467 000a 7047     		bx	lr	@
 468              		.cfi_endproc
 469              	.LFE114:
 470              		.size	USART_ClockStructInit, .-USART_ClockStructInit
 471              		.section	.text.USART_Cmd,"ax",%progbits
ARM GAS  /tmp/ccyhuBN5.s 			page 17


 472              		.align	1
 473              		.global	USART_Cmd
 474              		.thumb
 475              		.thumb_func
 476              		.type	USART_Cmd, %function
 477              	USART_Cmd:
 478              	.LFB115:
 417:stm32f4xx_usart.c **** }
 418:stm32f4xx_usart.c **** 
 419:stm32f4xx_usart.c **** /**
 420:stm32f4xx_usart.c ****   * @brief  Enables or disables the specified USART peripheral.
 421:stm32f4xx_usart.c ****   * @param  USARTx: where x can be 1, 2, 3, 4, 5, 6, 7 or 8 to select the USART or 
 422:stm32f4xx_usart.c ****   *         UART peripheral.
 423:stm32f4xx_usart.c ****   * @param  NewState: new state of the USARTx peripheral.
 424:stm32f4xx_usart.c ****   *          This parameter can be: ENABLE or DISABLE.
 425:stm32f4xx_usart.c ****   * @retval None
 426:stm32f4xx_usart.c ****   */
 427:stm32f4xx_usart.c **** void USART_Cmd(USART_TypeDef* USARTx, FunctionalState NewState)
 428:stm32f4xx_usart.c **** {
 479              		.loc 1 428 0
 480              		.cfi_startproc
 481              		@ args = 0, pretend = 0, frame = 0
 482              		@ frame_needed = 0, uses_anonymous_args = 0
 483              		@ link register save eliminated.
 484              	.LVL47:
 429:stm32f4xx_usart.c ****   /* Check the parameters */
 430:stm32f4xx_usart.c ****   assert_param(IS_USART_ALL_PERIPH(USARTx));
 431:stm32f4xx_usart.c ****   assert_param(IS_FUNCTIONAL_STATE(NewState));
 432:stm32f4xx_usart.c ****   
 433:stm32f4xx_usart.c ****   if (NewState != DISABLE)
 434:stm32f4xx_usart.c ****   {
 435:stm32f4xx_usart.c ****     /* Enable the selected USART by setting the UE bit in the CR1 register */
 436:stm32f4xx_usart.c ****     USARTx->CR1 |= USART_CR1_UE;
 485              		.loc 1 436 0
 486 0000 8389     		ldrh	r3, [r0, #12]	@,
 433:stm32f4xx_usart.c ****   if (NewState != DISABLE)
 487              		.loc 1 433 0
 488 0002 19B1     		cbz	r1, .L29	@ NewState,
 489              		.loc 1 436 0
 490 0004 99B2     		uxth	r1, r3	@ D.6207, USARTx_2(D)->CR1
 491              	.LVL48:
 492 0006 41F40053 		orr	r3, r1, #8192	@ D.6208, D.6207,
 493 000a 03E0     		b	.L31	@
 494              	.LVL49:
 495              	.L29:
 437:stm32f4xx_usart.c ****   }
 438:stm32f4xx_usart.c ****   else
 439:stm32f4xx_usart.c ****   {
 440:stm32f4xx_usart.c ****     /* Disable the selected USART by clearing the UE bit in the CR1 register */
 441:stm32f4xx_usart.c ****     USARTx->CR1 &= (uint16_t)~((uint16_t)USART_CR1_UE);
 496              		.loc 1 441 0
 497 000c 23F40051 		bic	r1, r3, #8192	@ D.6211, USARTx_2(D)->CR1,
 498              	.LVL50:
 499 0010 0A04     		lsls	r2, r1, #16	@ D.6211, D.6211,
 500 0012 130C     		lsrs	r3, r2, #16	@ D.6211, D.6211,
 501              	.L31:
 502 0014 8381     		strh	r3, [r0, #12]	@ movhi	@ D.6211,
ARM GAS  /tmp/ccyhuBN5.s 			page 18


 503 0016 7047     		bx	lr	@
 504              		.cfi_endproc
 505              	.LFE115:
 506              		.size	USART_Cmd, .-USART_Cmd
 507              		.section	.text.USART_SetPrescaler,"ax",%progbits
 508              		.align	1
 509              		.global	USART_SetPrescaler
 510              		.thumb
 511              		.thumb_func
 512              		.type	USART_SetPrescaler, %function
 513              	USART_SetPrescaler:
 514              	.LFB116:
 442:stm32f4xx_usart.c ****   }
 443:stm32f4xx_usart.c **** }
 444:stm32f4xx_usart.c **** 
 445:stm32f4xx_usart.c **** /**
 446:stm32f4xx_usart.c ****   * @brief  Sets the system clock prescaler.
 447:stm32f4xx_usart.c ****   * @param  USARTx: where x can be 1, 2, 3, 4, 5, 6, 7 or 8 to select the USART or 
 448:stm32f4xx_usart.c ****   *         UART peripheral.
 449:stm32f4xx_usart.c ****   * @param  USART_Prescaler: specifies the prescaler clock. 
 450:stm32f4xx_usart.c ****   * @note   The function is used for IrDA mode with UART4 and UART5.   
 451:stm32f4xx_usart.c ****   * @retval None
 452:stm32f4xx_usart.c ****   */
 453:stm32f4xx_usart.c **** void USART_SetPrescaler(USART_TypeDef* USARTx, uint8_t USART_Prescaler)
 454:stm32f4xx_usart.c **** { 
 515              		.loc 1 454 0
 516              		.cfi_startproc
 517              		@ args = 0, pretend = 0, frame = 0
 518              		@ frame_needed = 0, uses_anonymous_args = 0
 519              		@ link register save eliminated.
 520              	.LVL51:
 455:stm32f4xx_usart.c ****   /* Check the parameters */
 456:stm32f4xx_usart.c ****   assert_param(IS_USART_ALL_PERIPH(USARTx));
 457:stm32f4xx_usart.c ****   
 458:stm32f4xx_usart.c ****   /* Clear the USART prescaler */
 459:stm32f4xx_usart.c ****   USARTx->GTPR &= USART_GTPR_GT;
 521              		.loc 1 459 0
 522 0000 038B     		ldrh	r3, [r0, #24]	@, USARTx_1(D)->GTPR
 523 0002 03F47F42 		and	r2, r3, #65280	@ D.6201, USARTx_1(D)->GTPR,
 524 0006 0283     		strh	r2, [r0, #24]	@ movhi	@ D.6201, USARTx_1(D)->GTPR
 460:stm32f4xx_usart.c ****   /* Set the USART prescaler */
 461:stm32f4xx_usart.c ****   USARTx->GTPR |= USART_Prescaler;
 525              		.loc 1 461 0
 526 0008 038B     		ldrh	r3, [r0, #24]	@, USARTx_1(D)->GTPR
 527 000a 9AB2     		uxth	r2, r3	@ D.6202, USARTx_1(D)->GTPR
 528 000c 1143     		orrs	r1, r1, r2	@, D.6204, USART_Prescaler, D.6202
 529              	.LVL52:
 530 000e 0183     		strh	r1, [r0, #24]	@ movhi	@ D.6204, USARTx_1(D)->GTPR
 531 0010 7047     		bx	lr	@
 532              		.cfi_endproc
 533              	.LFE116:
 534              		.size	USART_SetPrescaler, .-USART_SetPrescaler
 535              		.section	.text.USART_OverSampling8Cmd,"ax",%progbits
 536              		.align	1
 537              		.global	USART_OverSampling8Cmd
 538              		.thumb
 539              		.thumb_func
ARM GAS  /tmp/ccyhuBN5.s 			page 19


 540              		.type	USART_OverSampling8Cmd, %function
 541              	USART_OverSampling8Cmd:
 542              	.LFB117:
 462:stm32f4xx_usart.c **** }
 463:stm32f4xx_usart.c **** 
 464:stm32f4xx_usart.c **** /**
 465:stm32f4xx_usart.c ****   * @brief  Enables or disables the USART's 8x oversampling mode.
 466:stm32f4xx_usart.c ****   * @note   This function has to be called before calling USART_Init() function
 467:stm32f4xx_usart.c ****   *         in order to have correct baudrate Divider value.
 468:stm32f4xx_usart.c ****   * @param  USARTx: where x can be 1, 2, 3, 4, 5, 6, 7 or 8 to select the USART or 
 469:stm32f4xx_usart.c ****   *         UART peripheral.
 470:stm32f4xx_usart.c ****   * @param  NewState: new state of the USART 8x oversampling mode.
 471:stm32f4xx_usart.c ****   *          This parameter can be: ENABLE or DISABLE.
 472:stm32f4xx_usart.c ****   * @retval None
 473:stm32f4xx_usart.c ****   */
 474:stm32f4xx_usart.c **** void USART_OverSampling8Cmd(USART_TypeDef* USARTx, FunctionalState NewState)
 475:stm32f4xx_usart.c **** {
 543              		.loc 1 475 0
 544              		.cfi_startproc
 545              		@ args = 0, pretend = 0, frame = 0
 546              		@ frame_needed = 0, uses_anonymous_args = 0
 547              		@ link register save eliminated.
 548              	.LVL53:
 476:stm32f4xx_usart.c ****   /* Check the parameters */
 477:stm32f4xx_usart.c ****   assert_param(IS_USART_ALL_PERIPH(USARTx));
 478:stm32f4xx_usart.c ****   assert_param(IS_FUNCTIONAL_STATE(NewState));
 479:stm32f4xx_usart.c ****   
 480:stm32f4xx_usart.c ****   if (NewState != DISABLE)
 481:stm32f4xx_usart.c ****   {
 482:stm32f4xx_usart.c ****     /* Enable the 8x Oversampling mode by setting the OVER8 bit in the CR1 register */
 483:stm32f4xx_usart.c ****     USARTx->CR1 |= USART_CR1_OVER8;
 549              		.loc 1 483 0
 550 0000 8389     		ldrh	r3, [r0, #12]	@,
 480:stm32f4xx_usart.c ****   if (NewState != DISABLE)
 551              		.loc 1 480 0
 552 0002 29B1     		cbz	r1, .L34	@ NewState,
 553              		.loc 1 483 0
 554 0004 6FEA4343 		mvn	r3, r3, lsl #17	@ tmp142, USARTx_2(D)->CR1,
 555 0008 6FEA5341 		mvn	r1, r3, lsr #17	@ tmp142, tmp142,
 556              	.LVL54:
 557 000c 8AB2     		uxth	r2, r1	@ D.6196, tmp142
 558 000e 01E0     		b	.L36	@
 559              	.LVL55:
 560              	.L34:
 484:stm32f4xx_usart.c ****   }
 485:stm32f4xx_usart.c ****   else
 486:stm32f4xx_usart.c ****   {
 487:stm32f4xx_usart.c ****     /* Disable the 8x Oversampling mode by clearing the OVER8 bit in the CR1 register */
 488:stm32f4xx_usart.c ****     USARTx->CR1 &= (uint16_t)~((uint16_t)USART_CR1_OVER8);
 561              		.loc 1 488 0
 562 0010 5904     		lsls	r1, r3, #17	@ tmp148, USARTx_2(D)->CR1,
 563              	.LVL56:
 564 0012 4A0C     		lsrs	r2, r1, #17	@ D.6199, tmp148,
 565              	.L36:
 566 0014 8281     		strh	r2, [r0, #12]	@ movhi	@ D.6199,
 567 0016 7047     		bx	lr	@
 568              		.cfi_endproc
ARM GAS  /tmp/ccyhuBN5.s 			page 20


 569              	.LFE117:
 570              		.size	USART_OverSampling8Cmd, .-USART_OverSampling8Cmd
 571              		.section	.text.USART_OneBitMethodCmd,"ax",%progbits
 572              		.align	1
 573              		.global	USART_OneBitMethodCmd
 574              		.thumb
 575              		.thumb_func
 576              		.type	USART_OneBitMethodCmd, %function
 577              	USART_OneBitMethodCmd:
 578              	.LFB118:
 489:stm32f4xx_usart.c ****   }
 490:stm32f4xx_usart.c **** }  
 491:stm32f4xx_usart.c **** 
 492:stm32f4xx_usart.c **** /**
 493:stm32f4xx_usart.c ****   * @brief  Enables or disables the USART's one bit sampling method.
 494:stm32f4xx_usart.c ****   * @param  USARTx: where x can be 1, 2, 3, 4, 5, 6, 7 or 8 to select the USART or 
 495:stm32f4xx_usart.c ****   *         UART peripheral.
 496:stm32f4xx_usart.c ****   * @param  NewState: new state of the USART one bit sampling method.
 497:stm32f4xx_usart.c ****   *          This parameter can be: ENABLE or DISABLE.
 498:stm32f4xx_usart.c ****   * @retval None
 499:stm32f4xx_usart.c ****   */
 500:stm32f4xx_usart.c **** void USART_OneBitMethodCmd(USART_TypeDef* USARTx, FunctionalState NewState)
 501:stm32f4xx_usart.c **** {
 579              		.loc 1 501 0
 580              		.cfi_startproc
 581              		@ args = 0, pretend = 0, frame = 0
 582              		@ frame_needed = 0, uses_anonymous_args = 0
 583              		@ link register save eliminated.
 584              	.LVL57:
 502:stm32f4xx_usart.c ****   /* Check the parameters */
 503:stm32f4xx_usart.c ****   assert_param(IS_USART_ALL_PERIPH(USARTx));
 504:stm32f4xx_usart.c ****   assert_param(IS_FUNCTIONAL_STATE(NewState));
 505:stm32f4xx_usart.c ****   
 506:stm32f4xx_usart.c ****   if (NewState != DISABLE)
 507:stm32f4xx_usart.c ****   {
 508:stm32f4xx_usart.c ****     /* Enable the one bit method by setting the ONEBITE bit in the CR3 register */
 509:stm32f4xx_usart.c ****     USARTx->CR3 |= USART_CR3_ONEBIT;
 585              		.loc 1 509 0
 586 0000 838A     		ldrh	r3, [r0, #20]	@,
 506:stm32f4xx_usart.c ****   if (NewState != DISABLE)
 587              		.loc 1 506 0
 588 0002 19B1     		cbz	r1, .L38	@ NewState,
 589              		.loc 1 509 0
 590 0004 99B2     		uxth	r1, r3	@ D.6188, USARTx_2(D)->CR3
 591              	.LVL58:
 592 0006 41F40063 		orr	r3, r1, #2048	@ D.6189, D.6188,
 593 000a 03E0     		b	.L40	@
 594              	.LVL59:
 595              	.L38:
 510:stm32f4xx_usart.c ****   }
 511:stm32f4xx_usart.c ****   else
 512:stm32f4xx_usart.c ****   {
 513:stm32f4xx_usart.c ****     /* Disable the one bit method by clearing the ONEBITE bit in the CR3 register */
 514:stm32f4xx_usart.c ****     USARTx->CR3 &= (uint16_t)~((uint16_t)USART_CR3_ONEBIT);
 596              		.loc 1 514 0
 597 000c 23F40061 		bic	r1, r3, #2048	@ D.6192, USARTx_2(D)->CR3,
 598              	.LVL60:
ARM GAS  /tmp/ccyhuBN5.s 			page 21


 599 0010 0A04     		lsls	r2, r1, #16	@ D.6192, D.6192,
 600 0012 130C     		lsrs	r3, r2, #16	@ D.6192, D.6192,
 601              	.L40:
 602 0014 8382     		strh	r3, [r0, #20]	@ movhi	@ D.6192,
 603 0016 7047     		bx	lr	@
 604              		.cfi_endproc
 605              	.LFE118:
 606              		.size	USART_OneBitMethodCmd, .-USART_OneBitMethodCmd
 607              		.section	.text.USART_SendData,"ax",%progbits
 608              		.align	1
 609              		.global	USART_SendData
 610              		.thumb
 611              		.thumb_func
 612              		.type	USART_SendData, %function
 613              	USART_SendData:
 614              	.LFB119:
 515:stm32f4xx_usart.c ****   }
 516:stm32f4xx_usart.c **** }
 517:stm32f4xx_usart.c **** 
 518:stm32f4xx_usart.c **** /**
 519:stm32f4xx_usart.c ****   * @}
 520:stm32f4xx_usart.c ****   */
 521:stm32f4xx_usart.c **** 
 522:stm32f4xx_usart.c **** /** @defgroup USART_Group2 Data transfers functions
 523:stm32f4xx_usart.c ****  *  @brief   Data transfers functions 
 524:stm32f4xx_usart.c ****  *
 525:stm32f4xx_usart.c **** @verbatim   
 526:stm32f4xx_usart.c ****  ===============================================================================
 527:stm32f4xx_usart.c ****                       ##### Data transfers functions #####
 528:stm32f4xx_usart.c ****  ===============================================================================  
 529:stm32f4xx_usart.c ****     [..]
 530:stm32f4xx_usart.c ****     This subsection provides a set of functions allowing to manage the USART data 
 531:stm32f4xx_usart.c ****     transfers.
 532:stm32f4xx_usart.c ****     [..]
 533:stm32f4xx_usart.c ****     During an USART reception, data shifts in least significant bit first through 
 534:stm32f4xx_usart.c ****     the RX pin. In this mode, the USART_DR register consists of a buffer (RDR) 
 535:stm32f4xx_usart.c ****     between the internal bus and the received shift register.
 536:stm32f4xx_usart.c ****     [..]
 537:stm32f4xx_usart.c ****     When a transmission is taking place, a write instruction to the USART_DR register 
 538:stm32f4xx_usart.c ****     stores the data in the TDR register and which is copied in the shift register 
 539:stm32f4xx_usart.c ****     at the end of the current transmission.
 540:stm32f4xx_usart.c ****     [..]
 541:stm32f4xx_usart.c ****     The read access of the USART_DR register can be done using the USART_ReceiveData()
 542:stm32f4xx_usart.c ****     function and returns the RDR buffered value. Whereas a write access to the USART_DR 
 543:stm32f4xx_usart.c ****     can be done using USART_SendData() function and stores the written data into 
 544:stm32f4xx_usart.c ****     TDR buffer.
 545:stm32f4xx_usart.c **** 
 546:stm32f4xx_usart.c **** @endverbatim
 547:stm32f4xx_usart.c ****   * @{
 548:stm32f4xx_usart.c ****   */
 549:stm32f4xx_usart.c **** 
 550:stm32f4xx_usart.c **** /**
 551:stm32f4xx_usart.c ****   * @brief  Transmits single data through the USARTx peripheral.
 552:stm32f4xx_usart.c ****   * @param  USARTx: where x can be 1, 2, 3, 4, 5, 6, 7 or 8 to select the USART or 
 553:stm32f4xx_usart.c ****   *         UART peripheral.
 554:stm32f4xx_usart.c ****   * @param  Data: the data to transmit.
 555:stm32f4xx_usart.c ****   * @retval None
ARM GAS  /tmp/ccyhuBN5.s 			page 22


 556:stm32f4xx_usart.c ****   */
 557:stm32f4xx_usart.c **** void USART_SendData(USART_TypeDef* USARTx, uint16_t Data)
 558:stm32f4xx_usart.c **** {
 615              		.loc 1 558 0
 616              		.cfi_startproc
 617              		@ args = 0, pretend = 0, frame = 0
 618              		@ frame_needed = 0, uses_anonymous_args = 0
 619              		@ link register save eliminated.
 620              	.LVL61:
 559:stm32f4xx_usart.c ****   /* Check the parameters */
 560:stm32f4xx_usart.c ****   assert_param(IS_USART_ALL_PERIPH(USARTx));
 561:stm32f4xx_usart.c ****   assert_param(IS_USART_DATA(Data)); 
 562:stm32f4xx_usart.c ****     
 563:stm32f4xx_usart.c ****   /* Transmit Data */
 564:stm32f4xx_usart.c ****   USARTx->DR = (Data & (uint16_t)0x01FF);
 621              		.loc 1 564 0
 622 0000 C905     		lsls	r1, r1, #23	@ tmp138, Data,
 623              	.LVL62:
 624 0002 CA0D     		lsrs	r2, r1, #23	@ D.6185, tmp138,
 625 0004 8280     		strh	r2, [r0, #4]	@ movhi	@ D.6185, USARTx_3(D)->DR
 626 0006 7047     		bx	lr	@
 627              		.cfi_endproc
 628              	.LFE119:
 629              		.size	USART_SendData, .-USART_SendData
 630              		.section	.text.USART_ReceiveData,"ax",%progbits
 631              		.align	1
 632              		.global	USART_ReceiveData
 633              		.thumb
 634              		.thumb_func
 635              		.type	USART_ReceiveData, %function
 636              	USART_ReceiveData:
 637              	.LFB120:
 565:stm32f4xx_usart.c **** }
 566:stm32f4xx_usart.c **** 
 567:stm32f4xx_usart.c **** /**
 568:stm32f4xx_usart.c ****   * @brief  Returns the most recent received data by the USARTx peripheral.
 569:stm32f4xx_usart.c ****   * @param  USARTx: where x can be 1, 2, 3, 4, 5, 6, 7 or 8 to select the USART or 
 570:stm32f4xx_usart.c ****   *         UART peripheral.
 571:stm32f4xx_usart.c ****   * @retval The received data.
 572:stm32f4xx_usart.c ****   */
 573:stm32f4xx_usart.c **** uint16_t USART_ReceiveData(USART_TypeDef* USARTx)
 574:stm32f4xx_usart.c **** {
 638              		.loc 1 574 0
 639              		.cfi_startproc
 640              		@ args = 0, pretend = 0, frame = 0
 641              		@ frame_needed = 0, uses_anonymous_args = 0
 642              		@ link register save eliminated.
 643              	.LVL63:
 575:stm32f4xx_usart.c ****   /* Check the parameters */
 576:stm32f4xx_usart.c ****   assert_param(IS_USART_ALL_PERIPH(USARTx));
 577:stm32f4xx_usart.c ****   
 578:stm32f4xx_usart.c ****   /* Receive Data */
 579:stm32f4xx_usart.c ****   return (uint16_t)(USARTx->DR & (uint16_t)0x01FF);
 644              		.loc 1 579 0
 645 0000 8088     		ldrh	r0, [r0, #4]	@, USARTx_1(D)->DR
 646              	.LVL64:
 647 0002 C105     		lsls	r1, r0, #23	@ tmp142, USARTx_1(D)->DR,
ARM GAS  /tmp/ccyhuBN5.s 			page 23


 580:stm32f4xx_usart.c **** }
 648              		.loc 1 580 0
 649 0004 C80D     		lsrs	r0, r1, #23	@, tmp142,
 650 0006 7047     		bx	lr	@
 651              		.cfi_endproc
 652              	.LFE120:
 653              		.size	USART_ReceiveData, .-USART_ReceiveData
 654              		.section	.text.USART_SetAddress,"ax",%progbits
 655              		.align	1
 656              		.global	USART_SetAddress
 657              		.thumb
 658              		.thumb_func
 659              		.type	USART_SetAddress, %function
 660              	USART_SetAddress:
 661              	.LFB121:
 581:stm32f4xx_usart.c **** 
 582:stm32f4xx_usart.c **** /**
 583:stm32f4xx_usart.c ****   * @}
 584:stm32f4xx_usart.c ****   */
 585:stm32f4xx_usart.c **** 
 586:stm32f4xx_usart.c **** /** @defgroup USART_Group3 MultiProcessor Communication functions
 587:stm32f4xx_usart.c ****  *  @brief   Multi-Processor Communication functions 
 588:stm32f4xx_usart.c ****  *
 589:stm32f4xx_usart.c **** @verbatim   
 590:stm32f4xx_usart.c ****  ===============================================================================
 591:stm32f4xx_usart.c ****               ##### Multi-Processor Communication functions #####
 592:stm32f4xx_usart.c ****  ===============================================================================  
 593:stm32f4xx_usart.c ****     [..]
 594:stm32f4xx_usart.c ****     This subsection provides a set of functions allowing to manage the USART 
 595:stm32f4xx_usart.c ****     multiprocessor communication.
 596:stm32f4xx_usart.c ****     [..]
 597:stm32f4xx_usart.c ****     For instance one of the USARTs can be the master, its TX output is connected 
 598:stm32f4xx_usart.c ****     to the RX input of the other USART. The others are slaves, their respective 
 599:stm32f4xx_usart.c ****     TX outputs are logically ANDed together and connected to the RX input of the 
 600:stm32f4xx_usart.c ****     master.
 601:stm32f4xx_usart.c ****     [..]
 602:stm32f4xx_usart.c ****     USART multiprocessor communication is possible through the following procedure:
 603:stm32f4xx_usart.c ****       (#) Program the Baud rate, Word length = 9 bits, Stop bits, Parity, Mode 
 604:stm32f4xx_usart.c ****           transmitter or Mode receiver and hardware flow control values using 
 605:stm32f4xx_usart.c ****           the USART_Init() function.
 606:stm32f4xx_usart.c ****       (#) Configures the USART address using the USART_SetAddress() function.
 607:stm32f4xx_usart.c ****       (#) Configures the wake up method (USART_WakeUp_IdleLine or USART_WakeUp_AddressMark)
 608:stm32f4xx_usart.c ****           using USART_WakeUpConfig() function only for the slaves.
 609:stm32f4xx_usart.c ****       (#) Enable the USART using the USART_Cmd() function.
 610:stm32f4xx_usart.c ****       (#) Enter the USART slaves in mute mode using USART_ReceiverWakeUpCmd() function.
 611:stm32f4xx_usart.c ****     [..]
 612:stm32f4xx_usart.c ****     The USART Slave exit from mute mode when receive the wake up condition.
 613:stm32f4xx_usart.c **** 
 614:stm32f4xx_usart.c **** @endverbatim
 615:stm32f4xx_usart.c ****   * @{
 616:stm32f4xx_usart.c ****   */
 617:stm32f4xx_usart.c **** 
 618:stm32f4xx_usart.c **** /**
 619:stm32f4xx_usart.c ****   * @brief  Sets the address of the USART node.
 620:stm32f4xx_usart.c ****   * @param  USARTx: where x can be 1, 2, 3, 4, 5, 6, 7 or 8 to select the USART or 
 621:stm32f4xx_usart.c ****   *         UART peripheral.
 622:stm32f4xx_usart.c ****   * @param  USART_Address: Indicates the address of the USART node.
ARM GAS  /tmp/ccyhuBN5.s 			page 24


 623:stm32f4xx_usart.c ****   * @retval None
 624:stm32f4xx_usart.c ****   */
 625:stm32f4xx_usart.c **** void USART_SetAddress(USART_TypeDef* USARTx, uint8_t USART_Address)
 626:stm32f4xx_usart.c **** {
 662              		.loc 1 626 0
 663              		.cfi_startproc
 664              		@ args = 0, pretend = 0, frame = 0
 665              		@ frame_needed = 0, uses_anonymous_args = 0
 666              		@ link register save eliminated.
 667              	.LVL65:
 627:stm32f4xx_usart.c ****   /* Check the parameters */
 628:stm32f4xx_usart.c ****   assert_param(IS_USART_ALL_PERIPH(USARTx));
 629:stm32f4xx_usart.c ****   assert_param(IS_USART_ADDRESS(USART_Address)); 
 630:stm32f4xx_usart.c ****     
 631:stm32f4xx_usart.c ****   /* Clear the USART address */
 632:stm32f4xx_usart.c ****   USARTx->CR2 &= (uint16_t)~((uint16_t)USART_CR2_ADD);
 668              		.loc 1 632 0
 669 0000 038A     		ldrh	r3, [r0, #16]	@, USARTx_1(D)->CR2
 670 0002 23F00F02 		bic	r2, r3, #15	@ D.6178, USARTx_1(D)->CR2,
 671 0006 1304     		lsls	r3, r2, #16	@ D.6178, D.6178,
 672 0008 1A0C     		lsrs	r2, r3, #16	@ D.6178, D.6178,
 673 000a 0282     		strh	r2, [r0, #16]	@ movhi	@ D.6178, USARTx_1(D)->CR2
 633:stm32f4xx_usart.c ****   /* Set the USART address node */
 634:stm32f4xx_usart.c ****   USARTx->CR2 |= USART_Address;
 674              		.loc 1 634 0
 675 000c 038A     		ldrh	r3, [r0, #16]	@, USARTx_1(D)->CR2
 676 000e 9AB2     		uxth	r2, r3	@ D.6179, USARTx_1(D)->CR2
 677 0010 1143     		orrs	r1, r1, r2	@, D.6181, USART_Address, D.6179
 678              	.LVL66:
 679 0012 0182     		strh	r1, [r0, #16]	@ movhi	@ D.6181, USARTx_1(D)->CR2
 680 0014 7047     		bx	lr	@
 681              		.cfi_endproc
 682              	.LFE121:
 683              		.size	USART_SetAddress, .-USART_SetAddress
 684              		.section	.text.USART_ReceiverWakeUpCmd,"ax",%progbits
 685              		.align	1
 686              		.global	USART_ReceiverWakeUpCmd
 687              		.thumb
 688              		.thumb_func
 689              		.type	USART_ReceiverWakeUpCmd, %function
 690              	USART_ReceiverWakeUpCmd:
 691              	.LFB122:
 635:stm32f4xx_usart.c **** }
 636:stm32f4xx_usart.c **** 
 637:stm32f4xx_usart.c **** /**
 638:stm32f4xx_usart.c ****   * @brief  Determines if the USART is in mute mode or not.
 639:stm32f4xx_usart.c ****   * @param  USARTx: where x can be 1, 2, 3, 4, 5, 6, 7 or 8 to select the USART or 
 640:stm32f4xx_usart.c ****   *         UART peripheral.
 641:stm32f4xx_usart.c ****   * @param  NewState: new state of the USART mute mode.
 642:stm32f4xx_usart.c ****   *          This parameter can be: ENABLE or DISABLE.
 643:stm32f4xx_usart.c ****   * @retval None
 644:stm32f4xx_usart.c ****   */
 645:stm32f4xx_usart.c **** void USART_ReceiverWakeUpCmd(USART_TypeDef* USARTx, FunctionalState NewState)
 646:stm32f4xx_usart.c **** {
 692              		.loc 1 646 0
 693              		.cfi_startproc
 694              		@ args = 0, pretend = 0, frame = 0
ARM GAS  /tmp/ccyhuBN5.s 			page 25


 695              		@ frame_needed = 0, uses_anonymous_args = 0
 696              		@ link register save eliminated.
 697              	.LVL67:
 647:stm32f4xx_usart.c ****   /* Check the parameters */
 648:stm32f4xx_usart.c ****   assert_param(IS_USART_ALL_PERIPH(USARTx));
 649:stm32f4xx_usart.c ****   assert_param(IS_FUNCTIONAL_STATE(NewState)); 
 650:stm32f4xx_usart.c ****   
 651:stm32f4xx_usart.c ****   if (NewState != DISABLE)
 652:stm32f4xx_usart.c ****   {
 653:stm32f4xx_usart.c ****     /* Enable the USART mute mode  by setting the RWU bit in the CR1 register */
 654:stm32f4xx_usart.c ****     USARTx->CR1 |= USART_CR1_RWU;
 698              		.loc 1 654 0
 699 0000 8389     		ldrh	r3, [r0, #12]	@,
 651:stm32f4xx_usart.c ****   if (NewState != DISABLE)
 700              		.loc 1 651 0
 701 0002 19B1     		cbz	r1, .L45	@ NewState,
 702              		.loc 1 654 0
 703 0004 99B2     		uxth	r1, r3	@ D.6172, USARTx_2(D)->CR1
 704              	.LVL68:
 705 0006 41F00203 		orr	r3, r1, #2	@ D.6173, D.6172,
 706 000a 03E0     		b	.L47	@
 707              	.LVL69:
 708              	.L45:
 655:stm32f4xx_usart.c ****   }
 656:stm32f4xx_usart.c ****   else
 657:stm32f4xx_usart.c ****   {
 658:stm32f4xx_usart.c ****     /* Disable the USART mute mode by clearing the RWU bit in the CR1 register */
 659:stm32f4xx_usart.c ****     USARTx->CR1 &= (uint16_t)~((uint16_t)USART_CR1_RWU);
 709              		.loc 1 659 0
 710 000c 23F00201 		bic	r1, r3, #2	@ D.6176, USARTx_2(D)->CR1,
 711              	.LVL70:
 712 0010 0A04     		lsls	r2, r1, #16	@ D.6176, D.6176,
 713 0012 130C     		lsrs	r3, r2, #16	@ D.6176, D.6176,
 714              	.L47:
 715 0014 8381     		strh	r3, [r0, #12]	@ movhi	@ D.6176,
 716 0016 7047     		bx	lr	@
 717              		.cfi_endproc
 718              	.LFE122:
 719              		.size	USART_ReceiverWakeUpCmd, .-USART_ReceiverWakeUpCmd
 720              		.section	.text.USART_WakeUpConfig,"ax",%progbits
 721              		.align	1
 722              		.global	USART_WakeUpConfig
 723              		.thumb
 724              		.thumb_func
 725              		.type	USART_WakeUpConfig, %function
 726              	USART_WakeUpConfig:
 727              	.LFB123:
 660:stm32f4xx_usart.c ****   }
 661:stm32f4xx_usart.c **** }
 662:stm32f4xx_usart.c **** /**
 663:stm32f4xx_usart.c ****   * @brief  Selects the USART WakeUp method.
 664:stm32f4xx_usart.c ****   * @param  USARTx: where x can be 1, 2, 3, 4, 5, 6, 7 or 8 to select the USART or 
 665:stm32f4xx_usart.c ****   *         UART peripheral.
 666:stm32f4xx_usart.c ****   * @param  USART_WakeUp: specifies the USART wakeup method.
 667:stm32f4xx_usart.c ****   *          This parameter can be one of the following values:
 668:stm32f4xx_usart.c ****   *            @arg USART_WakeUp_IdleLine: WakeUp by an idle line detection
 669:stm32f4xx_usart.c ****   *            @arg USART_WakeUp_AddressMark: WakeUp by an address mark
ARM GAS  /tmp/ccyhuBN5.s 			page 26


 670:stm32f4xx_usart.c ****   * @retval None
 671:stm32f4xx_usart.c ****   */
 672:stm32f4xx_usart.c **** void USART_WakeUpConfig(USART_TypeDef* USARTx, uint16_t USART_WakeUp)
 673:stm32f4xx_usart.c **** {
 728              		.loc 1 673 0
 729              		.cfi_startproc
 730              		@ args = 0, pretend = 0, frame = 0
 731              		@ frame_needed = 0, uses_anonymous_args = 0
 732              		@ link register save eliminated.
 733              	.LVL71:
 674:stm32f4xx_usart.c ****   /* Check the parameters */
 675:stm32f4xx_usart.c ****   assert_param(IS_USART_ALL_PERIPH(USARTx));
 676:stm32f4xx_usart.c ****   assert_param(IS_USART_WAKEUP(USART_WakeUp));
 677:stm32f4xx_usart.c ****   
 678:stm32f4xx_usart.c ****   USARTx->CR1 &= (uint16_t)~((uint16_t)USART_CR1_WAKE);
 734              		.loc 1 678 0
 735 0000 8389     		ldrh	r3, [r0, #12]	@, USARTx_1(D)->CR1
 736 0002 23F40062 		bic	r2, r3, #2048	@ D.6167, USARTx_1(D)->CR1,
 737 0006 1304     		lsls	r3, r2, #16	@ D.6167, D.6167,
 738 0008 1A0C     		lsrs	r2, r3, #16	@ D.6167, D.6167,
 739 000a 8281     		strh	r2, [r0, #12]	@ movhi	@ D.6167, USARTx_1(D)->CR1
 679:stm32f4xx_usart.c ****   USARTx->CR1 |= USART_WakeUp;
 740              		.loc 1 679 0
 741 000c 8389     		ldrh	r3, [r0, #12]	@, USARTx_1(D)->CR1
 742 000e 9AB2     		uxth	r2, r3	@ D.6168, USARTx_1(D)->CR1
 743 0010 1143     		orrs	r1, r1, r2	@, D.6169, USART_WakeUp, D.6168
 744              	.LVL72:
 745 0012 8181     		strh	r1, [r0, #12]	@ movhi	@ D.6169, USARTx_1(D)->CR1
 746 0014 7047     		bx	lr	@
 747              		.cfi_endproc
 748              	.LFE123:
 749              		.size	USART_WakeUpConfig, .-USART_WakeUpConfig
 750              		.section	.text.USART_LINBreakDetectLengthConfig,"ax",%progbits
 751              		.align	1
 752              		.global	USART_LINBreakDetectLengthConfig
 753              		.thumb
 754              		.thumb_func
 755              		.type	USART_LINBreakDetectLengthConfig, %function
 756              	USART_LINBreakDetectLengthConfig:
 757              	.LFB124:
 680:stm32f4xx_usart.c **** }
 681:stm32f4xx_usart.c **** 
 682:stm32f4xx_usart.c **** /**
 683:stm32f4xx_usart.c ****   * @}
 684:stm32f4xx_usart.c ****   */
 685:stm32f4xx_usart.c **** 
 686:stm32f4xx_usart.c **** /** @defgroup USART_Group4 LIN mode functions
 687:stm32f4xx_usart.c ****  *  @brief   LIN mode functions 
 688:stm32f4xx_usart.c ****  *
 689:stm32f4xx_usart.c **** @verbatim   
 690:stm32f4xx_usart.c ****  ===============================================================================
 691:stm32f4xx_usart.c ****                         ##### LIN mode functions #####
 692:stm32f4xx_usart.c ****  ===============================================================================  
 693:stm32f4xx_usart.c ****     [..]
 694:stm32f4xx_usart.c ****     This subsection provides a set of functions allowing to manage the USART LIN 
 695:stm32f4xx_usart.c ****     Mode communication.
 696:stm32f4xx_usart.c ****     [..]
ARM GAS  /tmp/ccyhuBN5.s 			page 27


 697:stm32f4xx_usart.c ****     In LIN mode, 8-bit data format with 1 stop bit is required in accordance with 
 698:stm32f4xx_usart.c ****     the LIN standard.
 699:stm32f4xx_usart.c ****     [..]
 700:stm32f4xx_usart.c ****     Only this LIN Feature is supported by the USART IP:
 701:stm32f4xx_usart.c ****       (+) LIN Master Synchronous Break send capability and LIN slave break detection
 702:stm32f4xx_usart.c ****           capability :  13-bit break generation and 10/11 bit break detection
 703:stm32f4xx_usart.c **** 
 704:stm32f4xx_usart.c ****     [..]
 705:stm32f4xx_usart.c ****     USART LIN Master transmitter communication is possible through the following 
 706:stm32f4xx_usart.c ****     procedure:
 707:stm32f4xx_usart.c ****       (#) Program the Baud rate, Word length = 8bits, Stop bits = 1bit, Parity, 
 708:stm32f4xx_usart.c ****         Mode transmitter or Mode receiver and hardware flow control values using 
 709:stm32f4xx_usart.c ****         the USART_Init() function.
 710:stm32f4xx_usart.c ****       (#) Enable the USART using the USART_Cmd() function.
 711:stm32f4xx_usart.c ****       (#) Enable the LIN mode using the USART_LINCmd() function.
 712:stm32f4xx_usart.c ****       (#) Send the break character using USART_SendBreak() function.
 713:stm32f4xx_usart.c ****     [..]
 714:stm32f4xx_usart.c ****     USART LIN Master receiver communication is possible through the following procedure:
 715:stm32f4xx_usart.c ****       (#) Program the Baud rate, Word length = 8bits, Stop bits = 1bit, Parity, 
 716:stm32f4xx_usart.c ****           Mode transmitter or Mode receiver and hardware flow control values using 
 717:stm32f4xx_usart.c ****           the USART_Init() function.
 718:stm32f4xx_usart.c ****       (#) Enable the USART using the USART_Cmd() function.
 719:stm32f4xx_usart.c ****       (#) Configures the break detection length using the USART_LINBreakDetectLengthConfig()
 720:stm32f4xx_usart.c ****           function.
 721:stm32f4xx_usart.c ****       (#) Enable the LIN mode using the USART_LINCmd() function.
 722:stm32f4xx_usart.c **** 
 723:stm32f4xx_usart.c ****       -@- In LIN mode, the following bits must be kept cleared:
 724:stm32f4xx_usart.c ****        (+@) CLKEN in the USART_CR2 register,
 725:stm32f4xx_usart.c ****        (+@) STOP[1:0], SCEN, HDSEL and IREN in the USART_CR3 register.
 726:stm32f4xx_usart.c **** 
 727:stm32f4xx_usart.c **** @endverbatim
 728:stm32f4xx_usart.c ****   * @{
 729:stm32f4xx_usart.c ****   */
 730:stm32f4xx_usart.c **** 
 731:stm32f4xx_usart.c **** /**
 732:stm32f4xx_usart.c ****   * @brief  Sets the USART LIN Break detection length.
 733:stm32f4xx_usart.c ****   * @param  USARTx: where x can be 1, 2, 3, 4, 5, 6, 7 or 8 to select the USART or 
 734:stm32f4xx_usart.c ****   *         UART peripheral.
 735:stm32f4xx_usart.c ****   * @param  USART_LINBreakDetectLength: specifies the LIN break detection length.
 736:stm32f4xx_usart.c ****   *          This parameter can be one of the following values:
 737:stm32f4xx_usart.c ****   *            @arg USART_LINBreakDetectLength_10b: 10-bit break detection
 738:stm32f4xx_usart.c ****   *            @arg USART_LINBreakDetectLength_11b: 11-bit break detection
 739:stm32f4xx_usart.c ****   * @retval None
 740:stm32f4xx_usart.c ****   */
 741:stm32f4xx_usart.c **** void USART_LINBreakDetectLengthConfig(USART_TypeDef* USARTx, uint16_t USART_LINBreakDetectLength)
 742:stm32f4xx_usart.c **** {
 758              		.loc 1 742 0
 759              		.cfi_startproc
 760              		@ args = 0, pretend = 0, frame = 0
 761              		@ frame_needed = 0, uses_anonymous_args = 0
 762              		@ link register save eliminated.
 763              	.LVL73:
 743:stm32f4xx_usart.c ****   /* Check the parameters */
 744:stm32f4xx_usart.c ****   assert_param(IS_USART_ALL_PERIPH(USARTx));
 745:stm32f4xx_usart.c ****   assert_param(IS_USART_LIN_BREAK_DETECT_LENGTH(USART_LINBreakDetectLength));
 746:stm32f4xx_usart.c ****   
 747:stm32f4xx_usart.c ****   USARTx->CR2 &= (uint16_t)~((uint16_t)USART_CR2_LBDL);
ARM GAS  /tmp/ccyhuBN5.s 			page 28


 764              		.loc 1 747 0
 765 0000 038A     		ldrh	r3, [r0, #16]	@, USARTx_1(D)->CR2
 766 0002 23F02002 		bic	r2, r3, #32	@ D.6163, USARTx_1(D)->CR2,
 767 0006 1304     		lsls	r3, r2, #16	@ D.6163, D.6163,
 768 0008 1A0C     		lsrs	r2, r3, #16	@ D.6163, D.6163,
 769 000a 0282     		strh	r2, [r0, #16]	@ movhi	@ D.6163, USARTx_1(D)->CR2
 748:stm32f4xx_usart.c ****   USARTx->CR2 |= USART_LINBreakDetectLength;  
 770              		.loc 1 748 0
 771 000c 038A     		ldrh	r3, [r0, #16]	@, USARTx_1(D)->CR2
 772 000e 9AB2     		uxth	r2, r3	@ D.6164, USARTx_1(D)->CR2
 773 0010 1143     		orrs	r1, r1, r2	@, D.6165, USART_LINBreakDetectLength, D.6164
 774              	.LVL74:
 775 0012 0182     		strh	r1, [r0, #16]	@ movhi	@ D.6165, USARTx_1(D)->CR2
 776 0014 7047     		bx	lr	@
 777              		.cfi_endproc
 778              	.LFE124:
 779              		.size	USART_LINBreakDetectLengthConfig, .-USART_LINBreakDetectLengthConfig
 780              		.section	.text.USART_LINCmd,"ax",%progbits
 781              		.align	1
 782              		.global	USART_LINCmd
 783              		.thumb
 784              		.thumb_func
 785              		.type	USART_LINCmd, %function
 786              	USART_LINCmd:
 787              	.LFB125:
 749:stm32f4xx_usart.c **** }
 750:stm32f4xx_usart.c **** 
 751:stm32f4xx_usart.c **** /**
 752:stm32f4xx_usart.c ****   * @brief  Enables or disables the USART's LIN mode.
 753:stm32f4xx_usart.c ****   * @param  USARTx: where x can be 1, 2, 3, 4, 5, 6, 7 or 8 to select the USART or 
 754:stm32f4xx_usart.c ****   *         UART peripheral.
 755:stm32f4xx_usart.c ****   * @param  NewState: new state of the USART LIN mode.
 756:stm32f4xx_usart.c ****   *          This parameter can be: ENABLE or DISABLE.
 757:stm32f4xx_usart.c ****   * @retval None
 758:stm32f4xx_usart.c ****   */
 759:stm32f4xx_usart.c **** void USART_LINCmd(USART_TypeDef* USARTx, FunctionalState NewState)
 760:stm32f4xx_usart.c **** {
 788              		.loc 1 760 0
 789              		.cfi_startproc
 790              		@ args = 0, pretend = 0, frame = 0
 791              		@ frame_needed = 0, uses_anonymous_args = 0
 792              		@ link register save eliminated.
 793              	.LVL75:
 761:stm32f4xx_usart.c ****   /* Check the parameters */
 762:stm32f4xx_usart.c ****   assert_param(IS_USART_ALL_PERIPH(USARTx));
 763:stm32f4xx_usart.c ****   assert_param(IS_FUNCTIONAL_STATE(NewState));
 764:stm32f4xx_usart.c ****   
 765:stm32f4xx_usart.c ****   if (NewState != DISABLE)
 766:stm32f4xx_usart.c ****   {
 767:stm32f4xx_usart.c ****     /* Enable the LIN mode by setting the LINEN bit in the CR2 register */
 768:stm32f4xx_usart.c ****     USARTx->CR2 |= USART_CR2_LINEN;
 794              		.loc 1 768 0
 795 0000 038A     		ldrh	r3, [r0, #16]	@,
 765:stm32f4xx_usart.c ****   if (NewState != DISABLE)
 796              		.loc 1 765 0
 797 0002 19B1     		cbz	r1, .L51	@ NewState,
 798              		.loc 1 768 0
ARM GAS  /tmp/ccyhuBN5.s 			page 29


 799 0004 99B2     		uxth	r1, r3	@ D.6157, USARTx_2(D)->CR2
 800              	.LVL76:
 801 0006 41F48043 		orr	r3, r1, #16384	@ D.6158, D.6157,
 802 000a 03E0     		b	.L53	@
 803              	.LVL77:
 804              	.L51:
 769:stm32f4xx_usart.c ****   }
 770:stm32f4xx_usart.c ****   else
 771:stm32f4xx_usart.c ****   {
 772:stm32f4xx_usart.c ****     /* Disable the LIN mode by clearing the LINEN bit in the CR2 register */
 773:stm32f4xx_usart.c ****     USARTx->CR2 &= (uint16_t)~((uint16_t)USART_CR2_LINEN);
 805              		.loc 1 773 0
 806 000c 23F48041 		bic	r1, r3, #16384	@ D.6161, USARTx_2(D)->CR2,
 807              	.LVL78:
 808 0010 0A04     		lsls	r2, r1, #16	@ D.6161, D.6161,
 809 0012 130C     		lsrs	r3, r2, #16	@ D.6161, D.6161,
 810              	.L53:
 811 0014 0382     		strh	r3, [r0, #16]	@ movhi	@ D.6161,
 812 0016 7047     		bx	lr	@
 813              		.cfi_endproc
 814              	.LFE125:
 815              		.size	USART_LINCmd, .-USART_LINCmd
 816              		.section	.text.USART_SendBreak,"ax",%progbits
 817              		.align	1
 818              		.global	USART_SendBreak
 819              		.thumb
 820              		.thumb_func
 821              		.type	USART_SendBreak, %function
 822              	USART_SendBreak:
 823              	.LFB126:
 774:stm32f4xx_usart.c ****   }
 775:stm32f4xx_usart.c **** }
 776:stm32f4xx_usart.c **** 
 777:stm32f4xx_usart.c **** /**
 778:stm32f4xx_usart.c ****   * @brief  Transmits break characters.
 779:stm32f4xx_usart.c ****   * @param  USARTx: where x can be 1, 2, 3, 4, 5, 6, 7 or 8 to select the USART or 
 780:stm32f4xx_usart.c ****   *         UART peripheral.
 781:stm32f4xx_usart.c ****   * @retval None
 782:stm32f4xx_usart.c ****   */
 783:stm32f4xx_usart.c **** void USART_SendBreak(USART_TypeDef* USARTx)
 784:stm32f4xx_usart.c **** {
 824              		.loc 1 784 0
 825              		.cfi_startproc
 826              		@ args = 0, pretend = 0, frame = 0
 827              		@ frame_needed = 0, uses_anonymous_args = 0
 828              		@ link register save eliminated.
 829              	.LVL79:
 785:stm32f4xx_usart.c ****   /* Check the parameters */
 786:stm32f4xx_usart.c ****   assert_param(IS_USART_ALL_PERIPH(USARTx));
 787:stm32f4xx_usart.c ****   
 788:stm32f4xx_usart.c ****   /* Send break characters */
 789:stm32f4xx_usart.c ****   USARTx->CR1 |= USART_CR1_SBK;
 830              		.loc 1 789 0
 831 0000 8389     		ldrh	r3, [r0, #12]	@, USARTx_1(D)->CR1
 832 0002 99B2     		uxth	r1, r3	@ D.6153, USARTx_1(D)->CR1
 833 0004 41F00102 		orr	r2, r1, #1	@ D.6154, D.6153,
 834 0008 8281     		strh	r2, [r0, #12]	@ movhi	@ D.6154, USARTx_1(D)->CR1
ARM GAS  /tmp/ccyhuBN5.s 			page 30


 835 000a 7047     		bx	lr	@
 836              		.cfi_endproc
 837              	.LFE126:
 838              		.size	USART_SendBreak, .-USART_SendBreak
 839              		.section	.text.USART_HalfDuplexCmd,"ax",%progbits
 840              		.align	1
 841              		.global	USART_HalfDuplexCmd
 842              		.thumb
 843              		.thumb_func
 844              		.type	USART_HalfDuplexCmd, %function
 845              	USART_HalfDuplexCmd:
 846              	.LFB127:
 790:stm32f4xx_usart.c **** }
 791:stm32f4xx_usart.c **** 
 792:stm32f4xx_usart.c **** /**
 793:stm32f4xx_usart.c ****   * @}
 794:stm32f4xx_usart.c ****   */
 795:stm32f4xx_usart.c **** 
 796:stm32f4xx_usart.c **** /** @defgroup USART_Group5 Halfduplex mode function
 797:stm32f4xx_usart.c ****  *  @brief   Half-duplex mode function 
 798:stm32f4xx_usart.c ****  *
 799:stm32f4xx_usart.c **** @verbatim   
 800:stm32f4xx_usart.c ****  ===============================================================================
 801:stm32f4xx_usart.c ****                     ##### Half-duplex mode function #####
 802:stm32f4xx_usart.c ****  ===============================================================================  
 803:stm32f4xx_usart.c ****     [..]
 804:stm32f4xx_usart.c ****     This subsection provides a set of functions allowing to manage the USART 
 805:stm32f4xx_usart.c ****     Half-duplex communication.
 806:stm32f4xx_usart.c ****     [..]
 807:stm32f4xx_usart.c ****     The USART can be configured to follow a single-wire half-duplex protocol where 
 808:stm32f4xx_usart.c ****     the TX and RX lines are internally connected.
 809:stm32f4xx_usart.c ****     [..]
 810:stm32f4xx_usart.c ****     USART Half duplex communication is possible through the following procedure:
 811:stm32f4xx_usart.c ****       (#) Program the Baud rate, Word length, Stop bits, Parity, Mode transmitter 
 812:stm32f4xx_usart.c ****           or Mode receiver and hardware flow control values using the USART_Init()
 813:stm32f4xx_usart.c ****           function.
 814:stm32f4xx_usart.c ****       (#) Configures the USART address using the USART_SetAddress() function.
 815:stm32f4xx_usart.c ****       (#) Enable the USART using the USART_Cmd() function.
 816:stm32f4xx_usart.c ****       (#) Enable the half duplex mode using USART_HalfDuplexCmd() function.
 817:stm32f4xx_usart.c **** 
 818:stm32f4xx_usart.c **** 
 819:stm32f4xx_usart.c ****     -@- The RX pin is no longer used
 820:stm32f4xx_usart.c ****     -@- In Half-duplex mode the following bits must be kept cleared:
 821:stm32f4xx_usart.c ****       (+@) LINEN and CLKEN bits in the USART_CR2 register.
 822:stm32f4xx_usart.c ****       (+@) SCEN and IREN bits in the USART_CR3 register.
 823:stm32f4xx_usart.c **** 
 824:stm32f4xx_usart.c **** @endverbatim
 825:stm32f4xx_usart.c ****   * @{
 826:stm32f4xx_usart.c ****   */
 827:stm32f4xx_usart.c **** 
 828:stm32f4xx_usart.c **** /**
 829:stm32f4xx_usart.c ****   * @brief  Enables or disables the USART's Half Duplex communication.
 830:stm32f4xx_usart.c ****   * @param  USARTx: where x can be 1, 2, 3, 4, 5, 6, 7 or 8 to select the USART or 
 831:stm32f4xx_usart.c ****   *         UART peripheral.
 832:stm32f4xx_usart.c ****   * @param  NewState: new state of the USART Communication.
 833:stm32f4xx_usart.c ****   *          This parameter can be: ENABLE or DISABLE.
 834:stm32f4xx_usart.c ****   * @retval None
ARM GAS  /tmp/ccyhuBN5.s 			page 31


 835:stm32f4xx_usart.c ****   */
 836:stm32f4xx_usart.c **** void USART_HalfDuplexCmd(USART_TypeDef* USARTx, FunctionalState NewState)
 837:stm32f4xx_usart.c **** {
 847              		.loc 1 837 0
 848              		.cfi_startproc
 849              		@ args = 0, pretend = 0, frame = 0
 850              		@ frame_needed = 0, uses_anonymous_args = 0
 851              		@ link register save eliminated.
 852              	.LVL80:
 838:stm32f4xx_usart.c ****   /* Check the parameters */
 839:stm32f4xx_usart.c ****   assert_param(IS_USART_ALL_PERIPH(USARTx));
 840:stm32f4xx_usart.c ****   assert_param(IS_FUNCTIONAL_STATE(NewState));
 841:stm32f4xx_usart.c ****   
 842:stm32f4xx_usart.c ****   if (NewState != DISABLE)
 843:stm32f4xx_usart.c ****   {
 844:stm32f4xx_usart.c ****     /* Enable the Half-Duplex mode by setting the HDSEL bit in the CR3 register */
 845:stm32f4xx_usart.c ****     USARTx->CR3 |= USART_CR3_HDSEL;
 853              		.loc 1 845 0
 854 0000 838A     		ldrh	r3, [r0, #20]	@,
 842:stm32f4xx_usart.c ****   if (NewState != DISABLE)
 855              		.loc 1 842 0
 856 0002 19B1     		cbz	r1, .L56	@ NewState,
 857              		.loc 1 845 0
 858 0004 99B2     		uxth	r1, r3	@ D.6148, USARTx_2(D)->CR3
 859              	.LVL81:
 860 0006 41F00803 		orr	r3, r1, #8	@ D.6149, D.6148,
 861 000a 03E0     		b	.L58	@
 862              	.LVL82:
 863              	.L56:
 846:stm32f4xx_usart.c ****   }
 847:stm32f4xx_usart.c ****   else
 848:stm32f4xx_usart.c ****   {
 849:stm32f4xx_usart.c ****     /* Disable the Half-Duplex mode by clearing the HDSEL bit in the CR3 register */
 850:stm32f4xx_usart.c ****     USARTx->CR3 &= (uint16_t)~((uint16_t)USART_CR3_HDSEL);
 864              		.loc 1 850 0
 865 000c 23F00801 		bic	r1, r3, #8	@ D.6152, USARTx_2(D)->CR3,
 866              	.LVL83:
 867 0010 0A04     		lsls	r2, r1, #16	@ D.6152, D.6152,
 868 0012 130C     		lsrs	r3, r2, #16	@ D.6152, D.6152,
 869              	.L58:
 870 0014 8382     		strh	r3, [r0, #20]	@ movhi	@ D.6152,
 871 0016 7047     		bx	lr	@
 872              		.cfi_endproc
 873              	.LFE127:
 874              		.size	USART_HalfDuplexCmd, .-USART_HalfDuplexCmd
 875              		.section	.text.USART_SetGuardTime,"ax",%progbits
 876              		.align	1
 877              		.global	USART_SetGuardTime
 878              		.thumb
 879              		.thumb_func
 880              		.type	USART_SetGuardTime, %function
 881              	USART_SetGuardTime:
 882              	.LFB128:
 851:stm32f4xx_usart.c ****   }
 852:stm32f4xx_usart.c **** }
 853:stm32f4xx_usart.c **** 
 854:stm32f4xx_usart.c **** /**
ARM GAS  /tmp/ccyhuBN5.s 			page 32


 855:stm32f4xx_usart.c ****   * @}
 856:stm32f4xx_usart.c ****   */
 857:stm32f4xx_usart.c **** 
 858:stm32f4xx_usart.c **** 
 859:stm32f4xx_usart.c **** /** @defgroup USART_Group6 Smartcard mode functions
 860:stm32f4xx_usart.c ****  *  @brief   Smartcard mode functions 
 861:stm32f4xx_usart.c ****  *
 862:stm32f4xx_usart.c **** @verbatim   
 863:stm32f4xx_usart.c ****  ===============================================================================
 864:stm32f4xx_usart.c ****                               ##### Smartcard mode functions #####
 865:stm32f4xx_usart.c ****  ===============================================================================  
 866:stm32f4xx_usart.c ****     [..]
 867:stm32f4xx_usart.c ****     This subsection provides a set of functions allowing to manage the USART 
 868:stm32f4xx_usart.c ****     Smartcard communication.
 869:stm32f4xx_usart.c ****     [..]
 870:stm32f4xx_usart.c ****     The Smartcard interface is designed to support asynchronous protocol Smartcards as
 871:stm32f4xx_usart.c ****     defined in the ISO 7816-3 standard.
 872:stm32f4xx_usart.c ****     [..]
 873:stm32f4xx_usart.c ****     The USART can provide a clock to the smartcard through the SCLK output.
 874:stm32f4xx_usart.c ****     In smartcard mode, SCLK is not associated to the communication but is simply derived 
 875:stm32f4xx_usart.c ****     from the internal peripheral input clock through a 5-bit prescaler.
 876:stm32f4xx_usart.c ****     [..]
 877:stm32f4xx_usart.c ****     Smartcard communication is possible through the following procedure:
 878:stm32f4xx_usart.c ****       (#) Configures the Smartcard Prescaler using the USART_SetPrescaler() function.
 879:stm32f4xx_usart.c ****       (#) Configures the Smartcard Guard Time using the USART_SetGuardTime() function.
 880:stm32f4xx_usart.c ****       (#) Program the USART clock using the USART_ClockInit() function as following:
 881:stm32f4xx_usart.c ****         (++) USART Clock enabled
 882:stm32f4xx_usart.c ****         (++) USART CPOL Low
 883:stm32f4xx_usart.c ****         (++) USART CPHA on first edge
 884:stm32f4xx_usart.c ****         (++) USART Last Bit Clock Enabled
 885:stm32f4xx_usart.c ****       (#) Program the Smartcard interface using the USART_Init() function as following:
 886:stm32f4xx_usart.c ****         (++) Word Length = 9 Bits
 887:stm32f4xx_usart.c ****         (++) 1.5 Stop Bit
 888:stm32f4xx_usart.c ****         (++) Even parity
 889:stm32f4xx_usart.c ****         (++) BaudRate = 12096 baud
 890:stm32f4xx_usart.c ****         (++) Hardware flow control disabled (RTS and CTS signals)
 891:stm32f4xx_usart.c ****         (++) Tx and Rx enabled
 892:stm32f4xx_usart.c ****       (#) POptionally you can enable the parity error interrupt using the USART_ITConfig()
 893:stm32f4xx_usart.c ****           function
 894:stm32f4xx_usart.c ****       (#) PEnable the USART using the USART_Cmd() function.
 895:stm32f4xx_usart.c ****       (#) PEnable the Smartcard NACK using the USART_SmartCardNACKCmd() function.
 896:stm32f4xx_usart.c ****       (#) PEnable the Smartcard interface using the USART_SmartCardCmd() function.
 897:stm32f4xx_usart.c **** 
 898:stm32f4xx_usart.c ****     Please refer to the ISO 7816-3 specification for more details.
 899:stm32f4xx_usart.c **** 
 900:stm32f4xx_usart.c ****       -@- It is also possible to choose 0.5 stop bit for receiving but it is recommended 
 901:stm32f4xx_usart.c ****           to use 1.5 stop bits for both transmitting and receiving to avoid switching 
 902:stm32f4xx_usart.c ****           between the two configurations.
 903:stm32f4xx_usart.c ****       -@- In smartcard mode, the following bits must be kept cleared:
 904:stm32f4xx_usart.c ****         (+@) LINEN bit in the USART_CR2 register.
 905:stm32f4xx_usart.c ****         (+@) HDSEL and IREN bits in the USART_CR3 register.
 906:stm32f4xx_usart.c ****       -@- Smartcard mode is available on USART peripherals only (not available on UART4 
 907:stm32f4xx_usart.c ****           and UART5 peripherals).
 908:stm32f4xx_usart.c **** 
 909:stm32f4xx_usart.c **** @endverbatim
 910:stm32f4xx_usart.c ****   * @{
 911:stm32f4xx_usart.c ****   */
ARM GAS  /tmp/ccyhuBN5.s 			page 33


 912:stm32f4xx_usart.c **** 
 913:stm32f4xx_usart.c **** /**
 914:stm32f4xx_usart.c ****   * @brief  Sets the specified USART guard time.
 915:stm32f4xx_usart.c ****   * @param  USARTx: where x can be 1, 2, 3 or 6 to select the USART or 
 916:stm32f4xx_usart.c ****   *         UART peripheral.
 917:stm32f4xx_usart.c ****   * @param  USART_GuardTime: specifies the guard time.   
 918:stm32f4xx_usart.c ****   * @retval None
 919:stm32f4xx_usart.c ****   */
 920:stm32f4xx_usart.c **** void USART_SetGuardTime(USART_TypeDef* USARTx, uint8_t USART_GuardTime)
 921:stm32f4xx_usart.c **** {    
 883              		.loc 1 921 0
 884              		.cfi_startproc
 885              		@ args = 0, pretend = 0, frame = 0
 886              		@ frame_needed = 0, uses_anonymous_args = 0
 887              		@ link register save eliminated.
 888              	.LVL84:
 922:stm32f4xx_usart.c ****   /* Check the parameters */
 923:stm32f4xx_usart.c ****   assert_param(IS_USART_1236_PERIPH(USARTx));
 924:stm32f4xx_usart.c ****   
 925:stm32f4xx_usart.c ****   /* Clear the USART Guard time */
 926:stm32f4xx_usart.c ****   USARTx->GTPR &= USART_GTPR_PSC;
 889              		.loc 1 926 0
 890 0000 038B     		ldrh	r3, [r0, #24]	@, USARTx_1(D)->GTPR
 891 0002 DAB2     		uxtb	r2, r3	@ D.6141, USARTx_1(D)->GTPR
 892 0004 0283     		strh	r2, [r0, #24]	@ movhi	@ D.6141, USARTx_1(D)->GTPR
 927:stm32f4xx_usart.c ****   /* Set the USART guard time */
 928:stm32f4xx_usart.c ****   USARTx->GTPR |= (uint16_t)((uint16_t)USART_GuardTime << 0x08);
 893              		.loc 1 928 0
 894 0006 038B     		ldrh	r3, [r0, #24]	@, USARTx_1(D)->GTPR
 895 0008 9AB2     		uxth	r2, r3	@ D.6142, USARTx_1(D)->GTPR
 896 000a 42EA0121 		orr	r1, r2, r1, lsl #8	@, D.6145, D.6142, USART_GuardTime,
 897              	.LVL85:
 898 000e 0183     		strh	r1, [r0, #24]	@ movhi	@ D.6145, USARTx_1(D)->GTPR
 899 0010 7047     		bx	lr	@
 900              		.cfi_endproc
 901              	.LFE128:
 902              		.size	USART_SetGuardTime, .-USART_SetGuardTime
 903              		.section	.text.USART_SmartCardCmd,"ax",%progbits
 904              		.align	1
 905              		.global	USART_SmartCardCmd
 906              		.thumb
 907              		.thumb_func
 908              		.type	USART_SmartCardCmd, %function
 909              	USART_SmartCardCmd:
 910              	.LFB129:
 929:stm32f4xx_usart.c **** }
 930:stm32f4xx_usart.c **** 
 931:stm32f4xx_usart.c **** /**
 932:stm32f4xx_usart.c ****   * @brief  Enables or disables the USART's Smart Card mode.
 933:stm32f4xx_usart.c ****   * @param  USARTx: where x can be 1, 2, 3 or 6 to select the USART or 
 934:stm32f4xx_usart.c ****   *         UART peripheral.
 935:stm32f4xx_usart.c ****   * @param  NewState: new state of the Smart Card mode.
 936:stm32f4xx_usart.c ****   *          This parameter can be: ENABLE or DISABLE.      
 937:stm32f4xx_usart.c ****   * @retval None
 938:stm32f4xx_usart.c ****   */
 939:stm32f4xx_usart.c **** void USART_SmartCardCmd(USART_TypeDef* USARTx, FunctionalState NewState)
 940:stm32f4xx_usart.c **** {
ARM GAS  /tmp/ccyhuBN5.s 			page 34


 911              		.loc 1 940 0
 912              		.cfi_startproc
 913              		@ args = 0, pretend = 0, frame = 0
 914              		@ frame_needed = 0, uses_anonymous_args = 0
 915              		@ link register save eliminated.
 916              	.LVL86:
 941:stm32f4xx_usart.c ****   /* Check the parameters */
 942:stm32f4xx_usart.c ****   assert_param(IS_USART_1236_PERIPH(USARTx));
 943:stm32f4xx_usart.c ****   assert_param(IS_FUNCTIONAL_STATE(NewState));
 944:stm32f4xx_usart.c ****   if (NewState != DISABLE)
 945:stm32f4xx_usart.c ****   {
 946:stm32f4xx_usart.c ****     /* Enable the SC mode by setting the SCEN bit in the CR3 register */
 947:stm32f4xx_usart.c ****     USARTx->CR3 |= USART_CR3_SCEN;
 917              		.loc 1 947 0
 918 0000 838A     		ldrh	r3, [r0, #20]	@,
 944:stm32f4xx_usart.c ****   if (NewState != DISABLE)
 919              		.loc 1 944 0
 920 0002 19B1     		cbz	r1, .L61	@ NewState,
 921              		.loc 1 947 0
 922 0004 99B2     		uxth	r1, r3	@ D.6135, USARTx_2(D)->CR3
 923              	.LVL87:
 924 0006 41F02003 		orr	r3, r1, #32	@ D.6136, D.6135,
 925 000a 03E0     		b	.L63	@
 926              	.LVL88:
 927              	.L61:
 948:stm32f4xx_usart.c ****   }
 949:stm32f4xx_usart.c ****   else
 950:stm32f4xx_usart.c ****   {
 951:stm32f4xx_usart.c ****     /* Disable the SC mode by clearing the SCEN bit in the CR3 register */
 952:stm32f4xx_usart.c ****     USARTx->CR3 &= (uint16_t)~((uint16_t)USART_CR3_SCEN);
 928              		.loc 1 952 0
 929 000c 23F02001 		bic	r1, r3, #32	@ D.6139, USARTx_2(D)->CR3,
 930              	.LVL89:
 931 0010 0A04     		lsls	r2, r1, #16	@ D.6139, D.6139,
 932 0012 130C     		lsrs	r3, r2, #16	@ D.6139, D.6139,
 933              	.L63:
 934 0014 8382     		strh	r3, [r0, #20]	@ movhi	@ D.6139,
 935 0016 7047     		bx	lr	@
 936              		.cfi_endproc
 937              	.LFE129:
 938              		.size	USART_SmartCardCmd, .-USART_SmartCardCmd
 939              		.section	.text.USART_SmartCardNACKCmd,"ax",%progbits
 940              		.align	1
 941              		.global	USART_SmartCardNACKCmd
 942              		.thumb
 943              		.thumb_func
 944              		.type	USART_SmartCardNACKCmd, %function
 945              	USART_SmartCardNACKCmd:
 946              	.LFB130:
 953:stm32f4xx_usart.c ****   }
 954:stm32f4xx_usart.c **** }
 955:stm32f4xx_usart.c **** 
 956:stm32f4xx_usart.c **** /**
 957:stm32f4xx_usart.c ****   * @brief  Enables or disables NACK transmission.
 958:stm32f4xx_usart.c ****   * @param  USARTx: where x can be 1, 2, 3 or 6 to select the USART or 
 959:stm32f4xx_usart.c ****   *         UART peripheral.
 960:stm32f4xx_usart.c ****   * @param  NewState: new state of the NACK transmission.
ARM GAS  /tmp/ccyhuBN5.s 			page 35


 961:stm32f4xx_usart.c ****   *          This parameter can be: ENABLE or DISABLE.  
 962:stm32f4xx_usart.c ****   * @retval None
 963:stm32f4xx_usart.c ****   */
 964:stm32f4xx_usart.c **** void USART_SmartCardNACKCmd(USART_TypeDef* USARTx, FunctionalState NewState)
 965:stm32f4xx_usart.c **** {
 947              		.loc 1 965 0
 948              		.cfi_startproc
 949              		@ args = 0, pretend = 0, frame = 0
 950              		@ frame_needed = 0, uses_anonymous_args = 0
 951              		@ link register save eliminated.
 952              	.LVL90:
 966:stm32f4xx_usart.c ****   /* Check the parameters */
 967:stm32f4xx_usart.c ****   assert_param(IS_USART_1236_PERIPH(USARTx)); 
 968:stm32f4xx_usart.c ****   assert_param(IS_FUNCTIONAL_STATE(NewState));
 969:stm32f4xx_usart.c ****   if (NewState != DISABLE)
 970:stm32f4xx_usart.c ****   {
 971:stm32f4xx_usart.c ****     /* Enable the NACK transmission by setting the NACK bit in the CR3 register */
 972:stm32f4xx_usart.c ****     USARTx->CR3 |= USART_CR3_NACK;
 953              		.loc 1 972 0
 954 0000 838A     		ldrh	r3, [r0, #20]	@,
 969:stm32f4xx_usart.c ****   if (NewState != DISABLE)
 955              		.loc 1 969 0
 956 0002 19B1     		cbz	r1, .L65	@ NewState,
 957              		.loc 1 972 0
 958 0004 99B2     		uxth	r1, r3	@ D.6128, USARTx_2(D)->CR3
 959              	.LVL91:
 960 0006 41F01003 		orr	r3, r1, #16	@ D.6129, D.6128,
 961 000a 03E0     		b	.L67	@
 962              	.LVL92:
 963              	.L65:
 973:stm32f4xx_usart.c ****   }
 974:stm32f4xx_usart.c ****   else
 975:stm32f4xx_usart.c ****   {
 976:stm32f4xx_usart.c ****     /* Disable the NACK transmission by clearing the NACK bit in the CR3 register */
 977:stm32f4xx_usart.c ****     USARTx->CR3 &= (uint16_t)~((uint16_t)USART_CR3_NACK);
 964              		.loc 1 977 0
 965 000c 23F01001 		bic	r1, r3, #16	@ D.6132, USARTx_2(D)->CR3,
 966              	.LVL93:
 967 0010 0A04     		lsls	r2, r1, #16	@ D.6132, D.6132,
 968 0012 130C     		lsrs	r3, r2, #16	@ D.6132, D.6132,
 969              	.L67:
 970 0014 8382     		strh	r3, [r0, #20]	@ movhi	@ D.6132,
 971 0016 7047     		bx	lr	@
 972              		.cfi_endproc
 973              	.LFE130:
 974              		.size	USART_SmartCardNACKCmd, .-USART_SmartCardNACKCmd
 975              		.section	.text.USART_IrDAConfig,"ax",%progbits
 976              		.align	1
 977              		.global	USART_IrDAConfig
 978              		.thumb
 979              		.thumb_func
 980              		.type	USART_IrDAConfig, %function
 981              	USART_IrDAConfig:
 982              	.LFB131:
 978:stm32f4xx_usart.c ****   }
 979:stm32f4xx_usart.c **** }
 980:stm32f4xx_usart.c **** 
ARM GAS  /tmp/ccyhuBN5.s 			page 36


 981:stm32f4xx_usart.c **** /**
 982:stm32f4xx_usart.c ****   * @}
 983:stm32f4xx_usart.c ****   */
 984:stm32f4xx_usart.c **** 
 985:stm32f4xx_usart.c **** /** @defgroup USART_Group7 IrDA mode functions
 986:stm32f4xx_usart.c ****  *  @brief   IrDA mode functions 
 987:stm32f4xx_usart.c ****  *
 988:stm32f4xx_usart.c **** @verbatim   
 989:stm32f4xx_usart.c ****  ===============================================================================
 990:stm32f4xx_usart.c ****                         ##### IrDA mode functions #####
 991:stm32f4xx_usart.c ****  ===============================================================================  
 992:stm32f4xx_usart.c ****     [..]
 993:stm32f4xx_usart.c ****     This subsection provides a set of functions allowing to manage the USART 
 994:stm32f4xx_usart.c ****     IrDA communication.
 995:stm32f4xx_usart.c ****     [..]
 996:stm32f4xx_usart.c ****     IrDA is a half duplex communication protocol. If the Transmitter is busy, any data
 997:stm32f4xx_usart.c ****     on the IrDA receive line will be ignored by the IrDA decoder and if the Receiver 
 998:stm32f4xx_usart.c ****     is busy, data on the TX from the USART to IrDA will not be encoded by IrDA.
 999:stm32f4xx_usart.c ****     While receiving data, transmission should be avoided as the data to be transmitted
1000:stm32f4xx_usart.c ****     could be corrupted.
1001:stm32f4xx_usart.c ****     [..]
1002:stm32f4xx_usart.c ****     IrDA communication is possible through the following procedure:
1003:stm32f4xx_usart.c ****       (#) Program the Baud rate, Word length = 8 bits, Stop bits, Parity, Transmitter/Receiver 
1004:stm32f4xx_usart.c ****           modes and hardware flow control values using the USART_Init() function.
1005:stm32f4xx_usart.c ****       (#) Enable the USART using the USART_Cmd() function.
1006:stm32f4xx_usart.c ****       (#) Configures the IrDA pulse width by configuring the prescaler using  
1007:stm32f4xx_usart.c ****           the USART_SetPrescaler() function.
1008:stm32f4xx_usart.c ****       (#) Configures the IrDA  USART_IrDAMode_LowPower or USART_IrDAMode_Normal mode
1009:stm32f4xx_usart.c ****           using the USART_IrDAConfig() function.
1010:stm32f4xx_usart.c ****       (#) Enable the IrDA using the USART_IrDACmd() function.
1011:stm32f4xx_usart.c **** 
1012:stm32f4xx_usart.c ****       -@- A pulse of width less than two and greater than one PSC period(s) may or may
1013:stm32f4xx_usart.c ****           not be rejected.
1014:stm32f4xx_usart.c ****       -@- The receiver set up time should be managed by software. The IrDA physical layer
1015:stm32f4xx_usart.c ****           specification specifies a minimum of 10 ms delay between transmission and 
1016:stm32f4xx_usart.c ****           reception (IrDA is a half duplex protocol).
1017:stm32f4xx_usart.c ****       -@- In IrDA mode, the following bits must be kept cleared:
1018:stm32f4xx_usart.c ****         (+@) LINEN, STOP and CLKEN bits in the USART_CR2 register.
1019:stm32f4xx_usart.c ****         (+@) SCEN and HDSEL bits in the USART_CR3 register.
1020:stm32f4xx_usart.c **** 
1021:stm32f4xx_usart.c **** @endverbatim
1022:stm32f4xx_usart.c ****   * @{
1023:stm32f4xx_usart.c ****   */
1024:stm32f4xx_usart.c **** 
1025:stm32f4xx_usart.c **** /**
1026:stm32f4xx_usart.c ****   * @brief  Configures the USART's IrDA interface.
1027:stm32f4xx_usart.c ****   * @param  USARTx: where x can be 1, 2, 3, 4, 5, 6, 7 or 8 to select the USART or 
1028:stm32f4xx_usart.c ****   *         UART peripheral.
1029:stm32f4xx_usart.c ****   * @param  USART_IrDAMode: specifies the IrDA mode.
1030:stm32f4xx_usart.c ****   *          This parameter can be one of the following values:
1031:stm32f4xx_usart.c ****   *            @arg USART_IrDAMode_LowPower
1032:stm32f4xx_usart.c ****   *            @arg USART_IrDAMode_Normal
1033:stm32f4xx_usart.c ****   * @retval None
1034:stm32f4xx_usart.c ****   */
1035:stm32f4xx_usart.c **** void USART_IrDAConfig(USART_TypeDef* USARTx, uint16_t USART_IrDAMode)
1036:stm32f4xx_usart.c **** {
 983              		.loc 1 1036 0
ARM GAS  /tmp/ccyhuBN5.s 			page 37


 984              		.cfi_startproc
 985              		@ args = 0, pretend = 0, frame = 0
 986              		@ frame_needed = 0, uses_anonymous_args = 0
 987              		@ link register save eliminated.
 988              	.LVL94:
1037:stm32f4xx_usart.c ****   /* Check the parameters */
1038:stm32f4xx_usart.c ****   assert_param(IS_USART_ALL_PERIPH(USARTx));
1039:stm32f4xx_usart.c ****   assert_param(IS_USART_IRDA_MODE(USART_IrDAMode));
1040:stm32f4xx_usart.c ****     
1041:stm32f4xx_usart.c ****   USARTx->CR3 &= (uint16_t)~((uint16_t)USART_CR3_IRLP);
 989              		.loc 1 1041 0
 990 0000 838A     		ldrh	r3, [r0, #20]	@, USARTx_1(D)->CR3
 991 0002 23F00402 		bic	r2, r3, #4	@ D.6123, USARTx_1(D)->CR3,
 992 0006 1304     		lsls	r3, r2, #16	@ D.6123, D.6123,
 993 0008 1A0C     		lsrs	r2, r3, #16	@ D.6123, D.6123,
 994 000a 8282     		strh	r2, [r0, #20]	@ movhi	@ D.6123, USARTx_1(D)->CR3
1042:stm32f4xx_usart.c ****   USARTx->CR3 |= USART_IrDAMode;
 995              		.loc 1 1042 0
 996 000c 838A     		ldrh	r3, [r0, #20]	@, USARTx_1(D)->CR3
 997 000e 9AB2     		uxth	r2, r3	@ D.6124, USARTx_1(D)->CR3
 998 0010 1143     		orrs	r1, r1, r2	@, D.6125, USART_IrDAMode, D.6124
 999              	.LVL95:
 1000 0012 8182     		strh	r1, [r0, #20]	@ movhi	@ D.6125, USARTx_1(D)->CR3
 1001 0014 7047     		bx	lr	@
 1002              		.cfi_endproc
 1003              	.LFE131:
 1004              		.size	USART_IrDAConfig, .-USART_IrDAConfig
 1005              		.section	.text.USART_IrDACmd,"ax",%progbits
 1006              		.align	1
 1007              		.global	USART_IrDACmd
 1008              		.thumb
 1009              		.thumb_func
 1010              		.type	USART_IrDACmd, %function
 1011              	USART_IrDACmd:
 1012              	.LFB132:
1043:stm32f4xx_usart.c **** }
1044:stm32f4xx_usart.c **** 
1045:stm32f4xx_usart.c **** /**
1046:stm32f4xx_usart.c ****   * @brief  Enables or disables the USART's IrDA interface.
1047:stm32f4xx_usart.c ****   * @param  USARTx: where x can be 1, 2, 3, 4, 5, 6, 7 or 8 to select the USART or 
1048:stm32f4xx_usart.c ****   *         UART peripheral.
1049:stm32f4xx_usart.c ****   * @param  NewState: new state of the IrDA mode.
1050:stm32f4xx_usart.c ****   *          This parameter can be: ENABLE or DISABLE.
1051:stm32f4xx_usart.c ****   * @retval None
1052:stm32f4xx_usart.c ****   */
1053:stm32f4xx_usart.c **** void USART_IrDACmd(USART_TypeDef* USARTx, FunctionalState NewState)
1054:stm32f4xx_usart.c **** {
 1013              		.loc 1 1054 0
 1014              		.cfi_startproc
 1015              		@ args = 0, pretend = 0, frame = 0
 1016              		@ frame_needed = 0, uses_anonymous_args = 0
 1017              		@ link register save eliminated.
 1018              	.LVL96:
1055:stm32f4xx_usart.c ****   /* Check the parameters */
1056:stm32f4xx_usart.c ****   assert_param(IS_USART_ALL_PERIPH(USARTx));
1057:stm32f4xx_usart.c ****   assert_param(IS_FUNCTIONAL_STATE(NewState));
1058:stm32f4xx_usart.c ****     
ARM GAS  /tmp/ccyhuBN5.s 			page 38


1059:stm32f4xx_usart.c ****   if (NewState != DISABLE)
1060:stm32f4xx_usart.c ****   {
1061:stm32f4xx_usart.c ****     /* Enable the IrDA mode by setting the IREN bit in the CR3 register */
1062:stm32f4xx_usart.c ****     USARTx->CR3 |= USART_CR3_IREN;
 1019              		.loc 1 1062 0
 1020 0000 838A     		ldrh	r3, [r0, #20]	@,
1059:stm32f4xx_usart.c ****   if (NewState != DISABLE)
 1021              		.loc 1 1059 0
 1022 0002 19B1     		cbz	r1, .L70	@ NewState,
 1023              		.loc 1 1062 0
 1024 0004 99B2     		uxth	r1, r3	@ D.6117, USARTx_2(D)->CR3
 1025              	.LVL97:
 1026 0006 41F00203 		orr	r3, r1, #2	@ D.6118, D.6117,
 1027 000a 03E0     		b	.L72	@
 1028              	.LVL98:
 1029              	.L70:
1063:stm32f4xx_usart.c ****   }
1064:stm32f4xx_usart.c ****   else
1065:stm32f4xx_usart.c ****   {
1066:stm32f4xx_usart.c ****     /* Disable the IrDA mode by clearing the IREN bit in the CR3 register */
1067:stm32f4xx_usart.c ****     USARTx->CR3 &= (uint16_t)~((uint16_t)USART_CR3_IREN);
 1030              		.loc 1 1067 0
 1031 000c 23F00201 		bic	r1, r3, #2	@ D.6121, USARTx_2(D)->CR3,
 1032              	.LVL99:
 1033 0010 0A04     		lsls	r2, r1, #16	@ D.6121, D.6121,
 1034 0012 130C     		lsrs	r3, r2, #16	@ D.6121, D.6121,
 1035              	.L72:
 1036 0014 8382     		strh	r3, [r0, #20]	@ movhi	@ D.6121,
 1037 0016 7047     		bx	lr	@
 1038              		.cfi_endproc
 1039              	.LFE132:
 1040              		.size	USART_IrDACmd, .-USART_IrDACmd
 1041              		.section	.text.USART_DMACmd,"ax",%progbits
 1042              		.align	1
 1043              		.global	USART_DMACmd
 1044              		.thumb
 1045              		.thumb_func
 1046              		.type	USART_DMACmd, %function
 1047              	USART_DMACmd:
 1048              	.LFB133:
1068:stm32f4xx_usart.c ****   }
1069:stm32f4xx_usart.c **** }
1070:stm32f4xx_usart.c **** 
1071:stm32f4xx_usart.c **** /**
1072:stm32f4xx_usart.c ****   * @}
1073:stm32f4xx_usart.c ****   */
1074:stm32f4xx_usart.c **** 
1075:stm32f4xx_usart.c **** /** @defgroup USART_Group8 DMA transfers management functions
1076:stm32f4xx_usart.c ****  *  @brief   DMA transfers management functions
1077:stm32f4xx_usart.c ****  *
1078:stm32f4xx_usart.c **** @verbatim   
1079:stm32f4xx_usart.c ****  ===============================================================================
1080:stm32f4xx_usart.c ****               ##### DMA transfers management functions #####
1081:stm32f4xx_usart.c ****  ===============================================================================  
1082:stm32f4xx_usart.c **** 
1083:stm32f4xx_usart.c **** @endverbatim
1084:stm32f4xx_usart.c ****   * @{
ARM GAS  /tmp/ccyhuBN5.s 			page 39


1085:stm32f4xx_usart.c ****   */
1086:stm32f4xx_usart.c ****   
1087:stm32f4xx_usart.c **** /**
1088:stm32f4xx_usart.c ****   * @brief  Enables or disables the USART's DMA interface.
1089:stm32f4xx_usart.c ****   * @param  USARTx: where x can be 1, 2, 3, 4, 5, 6, 7 or 8 to select the USART or 
1090:stm32f4xx_usart.c ****   *         UART peripheral.
1091:stm32f4xx_usart.c ****   * @param  USART_DMAReq: specifies the DMA request.
1092:stm32f4xx_usart.c ****   *          This parameter can be any combination of the following values:
1093:stm32f4xx_usart.c ****   *            @arg USART_DMAReq_Tx: USART DMA transmit request
1094:stm32f4xx_usart.c ****   *            @arg USART_DMAReq_Rx: USART DMA receive request
1095:stm32f4xx_usart.c ****   * @param  NewState: new state of the DMA Request sources.
1096:stm32f4xx_usart.c ****   *          This parameter can be: ENABLE or DISABLE.   
1097:stm32f4xx_usart.c ****   * @retval None
1098:stm32f4xx_usart.c ****   */
1099:stm32f4xx_usart.c **** void USART_DMACmd(USART_TypeDef* USARTx, uint16_t USART_DMAReq, FunctionalState NewState)
1100:stm32f4xx_usart.c **** {
 1049              		.loc 1 1100 0
 1050              		.cfi_startproc
 1051              		@ args = 0, pretend = 0, frame = 0
 1052              		@ frame_needed = 0, uses_anonymous_args = 0
 1053              		@ link register save eliminated.
 1054              	.LVL100:
1101:stm32f4xx_usart.c ****   /* Check the parameters */
1102:stm32f4xx_usart.c ****   assert_param(IS_USART_ALL_PERIPH(USARTx));
1103:stm32f4xx_usart.c ****   assert_param(IS_USART_DMAREQ(USART_DMAReq));  
1104:stm32f4xx_usart.c ****   assert_param(IS_FUNCTIONAL_STATE(NewState)); 
1105:stm32f4xx_usart.c **** 
1106:stm32f4xx_usart.c ****   if (NewState != DISABLE)
1107:stm32f4xx_usart.c ****   {
1108:stm32f4xx_usart.c ****     /* Enable the DMA transfer for selected requests by setting the DMAT and/or
1109:stm32f4xx_usart.c ****        DMAR bits in the USART CR3 register */
1110:stm32f4xx_usart.c ****     USARTx->CR3 |= USART_DMAReq;
 1055              		.loc 1 1110 0
 1056 0000 838A     		ldrh	r3, [r0, #20]	@,
 1057 0002 9BB2     		uxth	r3, r3	@ D.6109, USARTx_2(D)->CR3
1106:stm32f4xx_usart.c ****   if (NewState != DISABLE)
 1058              		.loc 1 1106 0
 1059 0004 0AB1     		cbz	r2, .L74	@ NewState,
 1060              		.loc 1 1110 0
 1061 0006 1943     		orrs	r1, r1, r3	@, D.6110, USART_DMAReq, D.6109
 1062              	.LVL101:
 1063 0008 01E0     		b	.L76	@
 1064              	.LVL102:
 1065              	.L74:
1111:stm32f4xx_usart.c ****   }
1112:stm32f4xx_usart.c ****   else
1113:stm32f4xx_usart.c ****   {
1114:stm32f4xx_usart.c ****     /* Disable the DMA transfer for selected requests by clearing the DMAT and/or
1115:stm32f4xx_usart.c ****        DMAR bits in the USART CR3 register */
1116:stm32f4xx_usart.c ****     USARTx->CR3 &= (uint16_t)~USART_DMAReq;
 1066              		.loc 1 1116 0
 1067 000a 23EA0101 		bic	r1, r3, r1	@ D.6114, D.6112, USART_DMAReq
 1068              	.LVL103:
 1069              	.L76:
 1070 000e 8182     		strh	r1, [r0, #20]	@ movhi	@ D.6114,
 1071 0010 7047     		bx	lr	@
 1072              		.cfi_endproc
ARM GAS  /tmp/ccyhuBN5.s 			page 40


 1073              	.LFE133:
 1074              		.size	USART_DMACmd, .-USART_DMACmd
 1075              		.section	.text.USART_ITConfig,"ax",%progbits
 1076              		.align	1
 1077              		.global	USART_ITConfig
 1078              		.thumb
 1079              		.thumb_func
 1080              		.type	USART_ITConfig, %function
 1081              	USART_ITConfig:
 1082              	.LFB134:
1117:stm32f4xx_usart.c ****   }
1118:stm32f4xx_usart.c **** }
1119:stm32f4xx_usart.c **** 
1120:stm32f4xx_usart.c **** /**
1121:stm32f4xx_usart.c ****   * @}
1122:stm32f4xx_usart.c ****   */
1123:stm32f4xx_usart.c ****   
1124:stm32f4xx_usart.c **** /** @defgroup USART_Group9 Interrupts and flags management functions
1125:stm32f4xx_usart.c ****  *  @brief   Interrupts and flags management functions 
1126:stm32f4xx_usart.c ****  *
1127:stm32f4xx_usart.c **** @verbatim   
1128:stm32f4xx_usart.c ****  ===============================================================================
1129:stm32f4xx_usart.c ****             ##### Interrupts and flags management functions #####
1130:stm32f4xx_usart.c ****  ===============================================================================  
1131:stm32f4xx_usart.c ****     [..]
1132:stm32f4xx_usart.c ****     This subsection provides a set of functions allowing to configure the USART 
1133:stm32f4xx_usart.c ****     Interrupts sources, DMA channels requests and check or clear the flags or 
1134:stm32f4xx_usart.c ****     pending bits status.
1135:stm32f4xx_usart.c ****     The user should identify which mode will be used in his application to manage 
1136:stm32f4xx_usart.c ****     the communication: Polling mode, Interrupt mode or DMA mode. 
1137:stm32f4xx_usart.c ****     
1138:stm32f4xx_usart.c ****     *** Polling Mode ***
1139:stm32f4xx_usart.c ****     ====================
1140:stm32f4xx_usart.c ****     [..]
1141:stm32f4xx_usart.c ****     In Polling Mode, the SPI communication can be managed by 10 flags:
1142:stm32f4xx_usart.c ****       (#) USART_FLAG_TXE : to indicate the status of the transmit buffer register
1143:stm32f4xx_usart.c ****       (#) USART_FLAG_RXNE : to indicate the status of the receive buffer register
1144:stm32f4xx_usart.c ****       (#) USART_FLAG_TC : to indicate the status of the transmit operation
1145:stm32f4xx_usart.c ****       (#) USART_FLAG_IDLE : to indicate the status of the Idle Line             
1146:stm32f4xx_usart.c ****       (#) USART_FLAG_CTS : to indicate the status of the nCTS input
1147:stm32f4xx_usart.c ****       (#) USART_FLAG_LBD : to indicate the status of the LIN break detection
1148:stm32f4xx_usart.c ****       (#) USART_FLAG_NE : to indicate if a noise error occur
1149:stm32f4xx_usart.c ****       (#) USART_FLAG_FE : to indicate if a frame error occur
1150:stm32f4xx_usart.c ****       (#) USART_FLAG_PE : to indicate if a parity error occur
1151:stm32f4xx_usart.c ****       (#) USART_FLAG_ORE : to indicate if an Overrun error occur
1152:stm32f4xx_usart.c ****     [..]
1153:stm32f4xx_usart.c ****     In this Mode it is advised to use the following functions:
1154:stm32f4xx_usart.c ****       (+) FlagStatus USART_GetFlagStatus(USART_TypeDef* USARTx, uint16_t USART_FLAG);
1155:stm32f4xx_usart.c ****       (+) void USART_ClearFlag(USART_TypeDef* USARTx, uint16_t USART_FLAG);
1156:stm32f4xx_usart.c **** 
1157:stm32f4xx_usart.c ****     *** Interrupt Mode ***
1158:stm32f4xx_usart.c ****     ======================
1159:stm32f4xx_usart.c ****     [..]
1160:stm32f4xx_usart.c ****     In Interrupt Mode, the USART communication can be managed by 8 interrupt sources
1161:stm32f4xx_usart.c ****     and 10 pending bits: 
1162:stm32f4xx_usart.c **** 
1163:stm32f4xx_usart.c ****       (#) Pending Bits:
ARM GAS  /tmp/ccyhuBN5.s 			page 41


1164:stm32f4xx_usart.c **** 
1165:stm32f4xx_usart.c ****         (##) USART_IT_TXE : to indicate the status of the transmit buffer register
1166:stm32f4xx_usart.c ****         (##) USART_IT_RXNE : to indicate the status of the receive buffer register
1167:stm32f4xx_usart.c ****         (##) USART_IT_TC : to indicate the status of the transmit operation
1168:stm32f4xx_usart.c ****         (##) USART_IT_IDLE : to indicate the status of the Idle Line             
1169:stm32f4xx_usart.c ****         (##) USART_IT_CTS : to indicate the status of the nCTS input
1170:stm32f4xx_usart.c ****         (##) USART_IT_LBD : to indicate the status of the LIN break detection
1171:stm32f4xx_usart.c ****         (##) USART_IT_NE : to indicate if a noise error occur
1172:stm32f4xx_usart.c ****         (##) USART_IT_FE : to indicate if a frame error occur
1173:stm32f4xx_usart.c ****         (##) USART_IT_PE : to indicate if a parity error occur
1174:stm32f4xx_usart.c ****         (##) USART_IT_ORE : to indicate if an Overrun error occur
1175:stm32f4xx_usart.c **** 
1176:stm32f4xx_usart.c ****       (#) Interrupt Source:
1177:stm32f4xx_usart.c **** 
1178:stm32f4xx_usart.c ****         (##) USART_IT_TXE : specifies the interrupt source for the Tx buffer empty 
1179:stm32f4xx_usart.c ****                             interrupt. 
1180:stm32f4xx_usart.c ****         (##) USART_IT_RXNE : specifies the interrupt source for the Rx buffer not 
1181:stm32f4xx_usart.c ****                              empty interrupt.
1182:stm32f4xx_usart.c ****         (##) USART_IT_TC : specifies the interrupt source for the Transmit complete 
1183:stm32f4xx_usart.c ****                            interrupt. 
1184:stm32f4xx_usart.c ****         (##) USART_IT_IDLE : specifies the interrupt source for the Idle Line interrupt.           
1185:stm32f4xx_usart.c ****         (##) USART_IT_CTS : specifies the interrupt source for the CTS interrupt. 
1186:stm32f4xx_usart.c ****         (##) USART_IT_LBD : specifies the interrupt source for the LIN break detection
1187:stm32f4xx_usart.c ****                             interrupt. 
1188:stm32f4xx_usart.c ****         (##) USART_IT_PE : specifies the interrupt source for the parity error interrupt. 
1189:stm32f4xx_usart.c ****         (##) USART_IT_ERR :  specifies the interrupt source for the errors interrupt.
1190:stm32f4xx_usart.c **** 
1191:stm32f4xx_usart.c ****       -@@- Some parameters are coded in order to use them as interrupt source 
1192:stm32f4xx_usart.c ****           or as pending bits.
1193:stm32f4xx_usart.c ****     [..]
1194:stm32f4xx_usart.c ****     In this Mode it is advised to use the following functions:
1195:stm32f4xx_usart.c ****       (+) void USART_ITConfig(USART_TypeDef* USARTx, uint16_t USART_IT, FunctionalState NewState);
1196:stm32f4xx_usart.c ****       (+) ITStatus USART_GetITStatus(USART_TypeDef* USARTx, uint16_t USART_IT);
1197:stm32f4xx_usart.c ****       (+) void USART_ClearITPendingBit(USART_TypeDef* USARTx, uint16_t USART_IT);
1198:stm32f4xx_usart.c **** 
1199:stm32f4xx_usart.c ****     *** DMA Mode ***
1200:stm32f4xx_usart.c ****     ================
1201:stm32f4xx_usart.c ****     [..]
1202:stm32f4xx_usart.c ****     In DMA Mode, the USART communication can be managed by 2 DMA Channel requests:
1203:stm32f4xx_usart.c ****       (#) USART_DMAReq_Tx: specifies the Tx buffer DMA transfer request
1204:stm32f4xx_usart.c ****       (#) USART_DMAReq_Rx: specifies the Rx buffer DMA transfer request
1205:stm32f4xx_usart.c ****     [..]
1206:stm32f4xx_usart.c ****     In this Mode it is advised to use the following function:
1207:stm32f4xx_usart.c ****       (+) void USART_DMACmd(USART_TypeDef* USARTx, uint16_t USART_DMAReq, FunctionalState NewState)
1208:stm32f4xx_usart.c **** 
1209:stm32f4xx_usart.c **** @endverbatim
1210:stm32f4xx_usart.c ****   * @{
1211:stm32f4xx_usart.c ****   */
1212:stm32f4xx_usart.c **** 
1213:stm32f4xx_usart.c **** /**
1214:stm32f4xx_usart.c ****   * @brief  Enables or disables the specified USART interrupts.
1215:stm32f4xx_usart.c ****   * @param  USARTx: where x can be 1, 2, 3, 4, 5, 6, 7 or 8 to select the USART or 
1216:stm32f4xx_usart.c ****   *         UART peripheral.
1217:stm32f4xx_usart.c ****   * @param  USART_IT: specifies the USART interrupt sources to be enabled or disabled.
1218:stm32f4xx_usart.c ****   *          This parameter can be one of the following values:
1219:stm32f4xx_usart.c ****   *            @arg USART_IT_CTS:  CTS change interrupt
1220:stm32f4xx_usart.c ****   *            @arg USART_IT_LBD:  LIN Break detection interrupt
ARM GAS  /tmp/ccyhuBN5.s 			page 42


1221:stm32f4xx_usart.c ****   *            @arg USART_IT_TXE:  Transmit Data Register empty interrupt
1222:stm32f4xx_usart.c ****   *            @arg USART_IT_TC:   Transmission complete interrupt
1223:stm32f4xx_usart.c ****   *            @arg USART_IT_RXNE: Receive Data register not empty interrupt
1224:stm32f4xx_usart.c ****   *            @arg USART_IT_IDLE: Idle line detection interrupt
1225:stm32f4xx_usart.c ****   *            @arg USART_IT_PE:   Parity Error interrupt
1226:stm32f4xx_usart.c ****   *            @arg USART_IT_ERR:  Error interrupt(Frame error, noise error, overrun error)
1227:stm32f4xx_usart.c ****   * @param  NewState: new state of the specified USARTx interrupts.
1228:stm32f4xx_usart.c ****   *          This parameter can be: ENABLE or DISABLE.
1229:stm32f4xx_usart.c ****   * @retval None
1230:stm32f4xx_usart.c ****   */
1231:stm32f4xx_usart.c **** void USART_ITConfig(USART_TypeDef* USARTx, uint16_t USART_IT, FunctionalState NewState)
1232:stm32f4xx_usart.c **** {
 1083              		.loc 1 1232 0
 1084              		.cfi_startproc
 1085              		@ args = 0, pretend = 0, frame = 0
 1086              		@ frame_needed = 0, uses_anonymous_args = 0
 1087              	.LVL104:
1233:stm32f4xx_usart.c ****   uint32_t usartreg = 0x00, itpos = 0x00, itmask = 0x00;
1234:stm32f4xx_usart.c ****   uint32_t usartxbase = 0x00;
1235:stm32f4xx_usart.c ****   /* Check the parameters */
1236:stm32f4xx_usart.c ****   assert_param(IS_USART_ALL_PERIPH(USARTx));
1237:stm32f4xx_usart.c ****   assert_param(IS_USART_CONFIG_IT(USART_IT));
1238:stm32f4xx_usart.c ****   assert_param(IS_FUNCTIONAL_STATE(NewState));
1239:stm32f4xx_usart.c **** 
1240:stm32f4xx_usart.c ****   /* The CTS interrupt is not available for UART4 and UART5 */
1241:stm32f4xx_usart.c ****   if (USART_IT == USART_IT_CTS)
1242:stm32f4xx_usart.c ****   {
1243:stm32f4xx_usart.c ****     assert_param(IS_USART_1236_PERIPH(USARTx));
1244:stm32f4xx_usart.c ****   } 
1245:stm32f4xx_usart.c ****     
1246:stm32f4xx_usart.c ****   usartxbase = (uint32_t)USARTx;
1247:stm32f4xx_usart.c **** 
1248:stm32f4xx_usart.c ****   /* Get the USART register index */
1249:stm32f4xx_usart.c ****   usartreg = (((uint8_t)USART_IT) >> 0x05);
 1088              		.loc 1 1249 0
 1089 0000 C1F34213 		ubfx	r3, r1, #5, #3	@ usartreg, USART_IT,,
 1090              	.LVL105:
1232:stm32f4xx_usart.c **** {
 1091              		.loc 1 1232 0
 1092 0004 10B5     		push	{r4, lr}	@
 1093              	.LCFI4:
 1094              		.cfi_def_cfa_offset 8
 1095              		.cfi_offset 4, -8
 1096              		.cfi_offset 14, -4
1250:stm32f4xx_usart.c **** 
1251:stm32f4xx_usart.c ****   /* Get the interrupt position */
1252:stm32f4xx_usart.c ****   itpos = USART_IT & IT_MASK;
1253:stm32f4xx_usart.c ****   itmask = (((uint32_t)0x01) << itpos);
 1097              		.loc 1 1253 0
 1098 0006 0124     		movs	r4, #1	@ tmp156,
 1099 0008 01F01F01 		and	r1, r1, #31	@ tmp155, USART_IT,
 1100              	.LVL106:
1254:stm32f4xx_usart.c ****     
1255:stm32f4xx_usart.c ****   if (usartreg == 0x01) /* The IT is in CR1 register */
 1101              		.loc 1 1255 0
 1102 000c A342     		cmp	r3, r4	@ usartreg,
1253:stm32f4xx_usart.c ****   itmask = (((uint32_t)0x01) << itpos);
ARM GAS  /tmp/ccyhuBN5.s 			page 43


 1103              		.loc 1 1253 0
 1104 000e 04FA01F1 		lsl	r1, r4, r1	@ itmask, tmp156, tmp155
 1105              	.LVL107:
 1106              		.loc 1 1255 0
 1107 0012 01D1     		bne	.L78	@,
1256:stm32f4xx_usart.c ****   {
1257:stm32f4xx_usart.c ****     usartxbase += 0x0C;
 1108              		.loc 1 1257 0
 1109 0014 0C30     		adds	r0, r0, #12	@ usartxbase, USARTx,
 1110              	.LVL108:
 1111 0016 04E0     		b	.L79	@
 1112              	.LVL109:
 1113              	.L78:
1258:stm32f4xx_usart.c ****   }
1259:stm32f4xx_usart.c ****   else if (usartreg == 0x02) /* The IT is in CR2 register */
 1114              		.loc 1 1259 0
 1115 0018 022B     		cmp	r3, #2	@ usartreg,
 1116 001a 01D1     		bne	.L80	@,
1260:stm32f4xx_usart.c ****   {
1261:stm32f4xx_usart.c ****     usartxbase += 0x10;
 1117              		.loc 1 1261 0
 1118 001c 1030     		adds	r0, r0, #16	@ usartxbase, USARTx,
 1119              	.LVL110:
 1120 001e 00E0     		b	.L79	@
 1121              	.LVL111:
 1122              	.L80:
1262:stm32f4xx_usart.c ****   }
1263:stm32f4xx_usart.c ****   else /* The IT is in CR3 register */
1264:stm32f4xx_usart.c ****   {
1265:stm32f4xx_usart.c ****     usartxbase += 0x14; 
 1123              		.loc 1 1265 0
 1124 0020 1430     		adds	r0, r0, #20	@ usartxbase, USARTx,
 1125              	.LVL112:
 1126              	.L79:
1266:stm32f4xx_usart.c ****   }
1267:stm32f4xx_usart.c ****   if (NewState != DISABLE)
1268:stm32f4xx_usart.c ****   {
1269:stm32f4xx_usart.c ****     *(__IO uint32_t*)usartxbase  |= itmask;
 1127              		.loc 1 1269 0
 1128 0022 0368     		ldr	r3, [r0, #0]	@ D.6101,* usartxbase
 1129              	.LVL113:
1267:stm32f4xx_usart.c ****   if (NewState != DISABLE)
 1130              		.loc 1 1267 0
 1131 0024 12B1     		cbz	r2, .L81	@ NewState,
 1132              		.loc 1 1269 0
 1133 0026 43EA0102 		orr	r2, r3, r1	@ D.6102, D.6101, itmask
 1134              	.LVL114:
 1135 002a 01E0     		b	.L83	@
 1136              	.LVL115:
 1137              	.L81:
1270:stm32f4xx_usart.c ****   }
1271:stm32f4xx_usart.c ****   else
1272:stm32f4xx_usart.c ****   {
1273:stm32f4xx_usart.c ****     *(__IO uint32_t*)usartxbase &= ~itmask;
 1138              		.loc 1 1273 0
 1139 002c 23EA0102 		bic	r2, r3, r1	@ D.6106, D.6104, itmask
 1140              	.LVL116:
ARM GAS  /tmp/ccyhuBN5.s 			page 44


 1141              	.L83:
 1142 0030 0260     		str	r2, [r0, #0]	@ D.6106,* usartxbase
 1143 0032 10BD     		pop	{r4, pc}	@
 1144              		.cfi_endproc
 1145              	.LFE134:
 1146              		.size	USART_ITConfig, .-USART_ITConfig
 1147              		.section	.text.USART_GetFlagStatus,"ax",%progbits
 1148              		.align	1
 1149              		.global	USART_GetFlagStatus
 1150              		.thumb
 1151              		.thumb_func
 1152              		.type	USART_GetFlagStatus, %function
 1153              	USART_GetFlagStatus:
 1154              	.LFB135:
1274:stm32f4xx_usart.c ****   }
1275:stm32f4xx_usart.c **** }
1276:stm32f4xx_usart.c **** 
1277:stm32f4xx_usart.c **** /**
1278:stm32f4xx_usart.c ****   * @brief  Checks whether the specified USART flag is set or not.
1279:stm32f4xx_usart.c ****   * @param  USARTx: where x can be 1, 2, 3, 4, 5, 6, 7 or 8 to select the USART or 
1280:stm32f4xx_usart.c ****   *         UART peripheral.
1281:stm32f4xx_usart.c ****   * @param  USART_FLAG: specifies the flag to check.
1282:stm32f4xx_usart.c ****   *          This parameter can be one of the following values:
1283:stm32f4xx_usart.c ****   *            @arg USART_FLAG_CTS:  CTS Change flag (not available for UART4 and UART5)
1284:stm32f4xx_usart.c ****   *            @arg USART_FLAG_LBD:  LIN Break detection flag
1285:stm32f4xx_usart.c ****   *            @arg USART_FLAG_TXE:  Transmit data register empty flag
1286:stm32f4xx_usart.c ****   *            @arg USART_FLAG_TC:   Transmission Complete flag
1287:stm32f4xx_usart.c ****   *            @arg USART_FLAG_RXNE: Receive data register not empty flag
1288:stm32f4xx_usart.c ****   *            @arg USART_FLAG_IDLE: Idle Line detection flag
1289:stm32f4xx_usart.c ****   *            @arg USART_FLAG_ORE:  OverRun Error flag
1290:stm32f4xx_usart.c ****   *            @arg USART_FLAG_NE:   Noise Error flag
1291:stm32f4xx_usart.c ****   *            @arg USART_FLAG_FE:   Framing Error flag
1292:stm32f4xx_usart.c ****   *            @arg USART_FLAG_PE:   Parity Error flag
1293:stm32f4xx_usart.c ****   * @retval The new state of USART_FLAG (SET or RESET).
1294:stm32f4xx_usart.c ****   */
1295:stm32f4xx_usart.c **** FlagStatus USART_GetFlagStatus(USART_TypeDef* USARTx, uint16_t USART_FLAG)
1296:stm32f4xx_usart.c **** {
 1155              		.loc 1 1296 0
 1156              		.cfi_startproc
 1157              		@ args = 0, pretend = 0, frame = 0
 1158              		@ frame_needed = 0, uses_anonymous_args = 0
 1159              		@ link register save eliminated.
 1160              	.LVL117:
1297:stm32f4xx_usart.c ****   FlagStatus bitstatus = RESET;
1298:stm32f4xx_usart.c ****   /* Check the parameters */
1299:stm32f4xx_usart.c ****   assert_param(IS_USART_ALL_PERIPH(USARTx));
1300:stm32f4xx_usart.c ****   assert_param(IS_USART_FLAG(USART_FLAG));
1301:stm32f4xx_usart.c **** 
1302:stm32f4xx_usart.c ****   /* The CTS flag is not available for UART4 and UART5 */
1303:stm32f4xx_usart.c ****   if (USART_FLAG == USART_FLAG_CTS)
1304:stm32f4xx_usart.c ****   {
1305:stm32f4xx_usart.c ****     assert_param(IS_USART_1236_PERIPH(USARTx));
1306:stm32f4xx_usart.c ****   } 
1307:stm32f4xx_usart.c ****     
1308:stm32f4xx_usart.c ****   if ((USARTx->SR & USART_FLAG) != (uint16_t)RESET)
 1161              		.loc 1 1308 0
 1162 0000 0388     		ldrh	r3, [r0, #0]	@, USARTx_3(D)->SR
ARM GAS  /tmp/ccyhuBN5.s 			page 45


 1163              	.LVL118:
 1164 0002 1942     		tst	r1, r3	@ USART_FLAG, USARTx_3(D)->SR
1309:stm32f4xx_usart.c ****   {
1310:stm32f4xx_usart.c ****     bitstatus = SET;
1311:stm32f4xx_usart.c ****   }
1312:stm32f4xx_usart.c ****   else
1313:stm32f4xx_usart.c ****   {
1314:stm32f4xx_usart.c ****     bitstatus = RESET;
1315:stm32f4xx_usart.c ****   }
1316:stm32f4xx_usart.c ****   return bitstatus;
1317:stm32f4xx_usart.c **** }
 1165              		.loc 1 1317 0
 1166 0004 0CBF     		ite	eq	@
 1167 0006 0020     		moveq	r0, #0	@,
 1168 0008 0120     		movne	r0, #1	@,
 1169              	.LVL119:
 1170 000a 7047     		bx	lr	@
 1171              		.cfi_endproc
 1172              	.LFE135:
 1173              		.size	USART_GetFlagStatus, .-USART_GetFlagStatus
 1174              		.section	.text.USART_ClearFlag,"ax",%progbits
 1175              		.align	1
 1176              		.global	USART_ClearFlag
 1177              		.thumb
 1178              		.thumb_func
 1179              		.type	USART_ClearFlag, %function
 1180              	USART_ClearFlag:
 1181              	.LFB136:
1318:stm32f4xx_usart.c **** 
1319:stm32f4xx_usart.c **** /**
1320:stm32f4xx_usart.c ****   * @brief  Clears the USARTx's pending flags.
1321:stm32f4xx_usart.c ****   * @param  USARTx: where x can be 1, 2, 3, 4, 5, 6, 7 or 8 to select the USART or 
1322:stm32f4xx_usart.c ****   *         UART peripheral.
1323:stm32f4xx_usart.c ****   * @param  USART_FLAG: specifies the flag to clear.
1324:stm32f4xx_usart.c ****   *          This parameter can be any combination of the following values:
1325:stm32f4xx_usart.c ****   *            @arg USART_FLAG_CTS:  CTS Change flag (not available for UART4 and UART5).
1326:stm32f4xx_usart.c ****   *            @arg USART_FLAG_LBD:  LIN Break detection flag.
1327:stm32f4xx_usart.c ****   *            @arg USART_FLAG_TC:   Transmission Complete flag.
1328:stm32f4xx_usart.c ****   *            @arg USART_FLAG_RXNE: Receive data register not empty flag.
1329:stm32f4xx_usart.c ****   *   
1330:stm32f4xx_usart.c ****   * @note   PE (Parity error), FE (Framing error), NE (Noise error), ORE (OverRun 
1331:stm32f4xx_usart.c ****   *          error) and IDLE (Idle line detected) flags are cleared by software 
1332:stm32f4xx_usart.c ****   *          sequence: a read operation to USART_SR register (USART_GetFlagStatus()) 
1333:stm32f4xx_usart.c ****   *          followed by a read operation to USART_DR register (USART_ReceiveData()).
1334:stm32f4xx_usart.c ****   * @note   RXNE flag can be also cleared by a read to the USART_DR register 
1335:stm32f4xx_usart.c ****   *          (USART_ReceiveData()).
1336:stm32f4xx_usart.c ****   * @note   TC flag can be also cleared by software sequence: a read operation to 
1337:stm32f4xx_usart.c ****   *          USART_SR register (USART_GetFlagStatus()) followed by a write operation
1338:stm32f4xx_usart.c ****   *          to USART_DR register (USART_SendData()).
1339:stm32f4xx_usart.c ****   * @note   TXE flag is cleared only by a write to the USART_DR register 
1340:stm32f4xx_usart.c ****   *          (USART_SendData()).
1341:stm32f4xx_usart.c ****   *   
1342:stm32f4xx_usart.c ****   * @retval None
1343:stm32f4xx_usart.c ****   */
1344:stm32f4xx_usart.c **** void USART_ClearFlag(USART_TypeDef* USARTx, uint16_t USART_FLAG)
1345:stm32f4xx_usart.c **** {
 1182              		.loc 1 1345 0
ARM GAS  /tmp/ccyhuBN5.s 			page 46


 1183              		.cfi_startproc
 1184              		@ args = 0, pretend = 0, frame = 0
 1185              		@ frame_needed = 0, uses_anonymous_args = 0
 1186              		@ link register save eliminated.
 1187              	.LVL120:
1346:stm32f4xx_usart.c ****   /* Check the parameters */
1347:stm32f4xx_usart.c ****   assert_param(IS_USART_ALL_PERIPH(USARTx));
1348:stm32f4xx_usart.c ****   assert_param(IS_USART_CLEAR_FLAG(USART_FLAG));
1349:stm32f4xx_usart.c **** 
1350:stm32f4xx_usart.c ****   /* The CTS flag is not available for UART4 and UART5 */
1351:stm32f4xx_usart.c ****   if ((USART_FLAG & USART_FLAG_CTS) == USART_FLAG_CTS)
1352:stm32f4xx_usart.c ****   {
1353:stm32f4xx_usart.c ****     assert_param(IS_USART_1236_PERIPH(USARTx));
1354:stm32f4xx_usart.c ****   } 
1355:stm32f4xx_usart.c ****        
1356:stm32f4xx_usart.c ****   USARTx->SR = (uint16_t)~USART_FLAG;
 1188              		.loc 1 1356 0
 1189 0000 C943     		mvns	r1, r1	@ tmp137, USART_FLAG
 1190              	.LVL121:
 1191 0002 8AB2     		uxth	r2, r1	@ D.6076, tmp137
 1192 0004 0280     		strh	r2, [r0, #0]	@ movhi	@ D.6076, USARTx_5(D)->SR
 1193 0006 7047     		bx	lr	@
 1194              		.cfi_endproc
 1195              	.LFE136:
 1196              		.size	USART_ClearFlag, .-USART_ClearFlag
 1197              		.section	.text.USART_GetITStatus,"ax",%progbits
 1198              		.align	1
 1199              		.global	USART_GetITStatus
 1200              		.thumb
 1201              		.thumb_func
 1202              		.type	USART_GetITStatus, %function
 1203              	USART_GetITStatus:
 1204              	.LFB137:
1357:stm32f4xx_usart.c **** }
1358:stm32f4xx_usart.c **** 
1359:stm32f4xx_usart.c **** /**
1360:stm32f4xx_usart.c ****   * @brief  Checks whether the specified USART interrupt has occurred or not.
1361:stm32f4xx_usart.c ****   * @param  USARTx: where x can be 1, 2, 3, 4, 5, 6, 7 or 8 to select the USART or 
1362:stm32f4xx_usart.c ****   *         UART peripheral.
1363:stm32f4xx_usart.c ****   * @param  USART_IT: specifies the USART interrupt source to check.
1364:stm32f4xx_usart.c ****   *          This parameter can be one of the following values:
1365:stm32f4xx_usart.c ****   *            @arg USART_IT_CTS:  CTS change interrupt (not available for UART4 and UART5)
1366:stm32f4xx_usart.c ****   *            @arg USART_IT_LBD:  LIN Break detection interrupt
1367:stm32f4xx_usart.c ****   *            @arg USART_IT_TXE:  Transmit Data Register empty interrupt
1368:stm32f4xx_usart.c ****   *            @arg USART_IT_TC:   Transmission complete interrupt
1369:stm32f4xx_usart.c ****   *            @arg USART_IT_RXNE: Receive Data register not empty interrupt
1370:stm32f4xx_usart.c ****   *            @arg USART_IT_IDLE: Idle line detection interrupt
1371:stm32f4xx_usart.c ****   *            @arg USART_IT_ORE_RX : OverRun Error interrupt if the RXNEIE bit is set
1372:stm32f4xx_usart.c ****   *            @arg USART_IT_ORE_ER : OverRun Error interrupt if the EIE bit is set  
1373:stm32f4xx_usart.c ****   *            @arg USART_IT_NE:   Noise Error interrupt
1374:stm32f4xx_usart.c ****   *            @arg USART_IT_FE:   Framing Error interrupt
1375:stm32f4xx_usart.c ****   *            @arg USART_IT_PE:   Parity Error interrupt
1376:stm32f4xx_usart.c ****   * @retval The new state of USART_IT (SET or RESET).
1377:stm32f4xx_usart.c ****   */
1378:stm32f4xx_usart.c **** ITStatus USART_GetITStatus(USART_TypeDef* USARTx, uint16_t USART_IT)
1379:stm32f4xx_usart.c **** {
 1205              		.loc 1 1379 0
ARM GAS  /tmp/ccyhuBN5.s 			page 47


 1206              		.cfi_startproc
 1207              		@ args = 0, pretend = 0, frame = 0
 1208              		@ frame_needed = 0, uses_anonymous_args = 0
 1209              	.LVL122:
 1210 0000 10B5     		push	{r4, lr}	@
 1211              	.LCFI5:
 1212              		.cfi_def_cfa_offset 8
 1213              		.cfi_offset 4, -8
 1214              		.cfi_offset 14, -4
1380:stm32f4xx_usart.c ****   uint32_t bitpos = 0x00, itmask = 0x00, usartreg = 0x00;
1381:stm32f4xx_usart.c ****   ITStatus bitstatus = RESET;
1382:stm32f4xx_usart.c ****   /* Check the parameters */
1383:stm32f4xx_usart.c ****   assert_param(IS_USART_ALL_PERIPH(USARTx));
1384:stm32f4xx_usart.c ****   assert_param(IS_USART_GET_IT(USART_IT)); 
1385:stm32f4xx_usart.c **** 
1386:stm32f4xx_usart.c ****   /* The CTS interrupt is not available for UART4 and UART5 */ 
1387:stm32f4xx_usart.c ****   if (USART_IT == USART_IT_CTS)
1388:stm32f4xx_usart.c ****   {
1389:stm32f4xx_usart.c ****     assert_param(IS_USART_1236_PERIPH(USARTx));
1390:stm32f4xx_usart.c ****   } 
1391:stm32f4xx_usart.c ****     
1392:stm32f4xx_usart.c ****   /* Get the USART register index */
1393:stm32f4xx_usart.c ****   usartreg = (((uint8_t)USART_IT) >> 0x05);
 1215              		.loc 1 1393 0
 1216 0002 C1F34214 		ubfx	r4, r1, #5, #3	@ usartreg, USART_IT,,
 1217              	.LVL123:
1394:stm32f4xx_usart.c ****   /* Get the interrupt position */
1395:stm32f4xx_usart.c ****   itmask = USART_IT & IT_MASK;
1396:stm32f4xx_usart.c ****   itmask = (uint32_t)0x01 << itmask;
 1218              		.loc 1 1396 0
 1219 0006 0122     		movs	r2, #1	@ tmp162,
 1220 0008 01F01F03 		and	r3, r1, #31	@ tmp161, USART_IT,
1397:stm32f4xx_usart.c ****   
1398:stm32f4xx_usart.c ****   if (usartreg == 0x01) /* The IT  is in CR1 register */
 1221              		.loc 1 1398 0
 1222 000c 012C     		cmp	r4, #1	@ usartreg,
1396:stm32f4xx_usart.c ****   itmask = (uint32_t)0x01 << itmask;
 1223              		.loc 1 1396 0
 1224 000e 02FA03F2 		lsl	r2, r2, r3	@ itmask, tmp162, tmp161
 1225              	.LVL124:
 1226              		.loc 1 1398 0
 1227 0012 01D1     		bne	.L87	@,
1399:stm32f4xx_usart.c ****   {
1400:stm32f4xx_usart.c ****     itmask &= USARTx->CR1;
 1228              		.loc 1 1400 0
 1229 0014 8389     		ldrh	r3, [r0, #12]	@, USARTx_15(D)->CR1
 1230 0016 03E0     		b	.L92	@
 1231              	.L87:
1401:stm32f4xx_usart.c ****   }
1402:stm32f4xx_usart.c ****   else if (usartreg == 0x02) /* The IT  is in CR2 register */
 1232              		.loc 1 1402 0
 1233 0018 022C     		cmp	r4, #2	@ usartreg,
1403:stm32f4xx_usart.c ****   {
1404:stm32f4xx_usart.c ****     itmask &= USARTx->CR2;
 1234              		.loc 1 1404 0
 1235 001a 0CBF     		ite	eq
 1236 001c 038A     		ldrheq	r3, [r0, #16]	@, USARTx_15(D)->CR2
ARM GAS  /tmp/ccyhuBN5.s 			page 48


1405:stm32f4xx_usart.c ****   }
1406:stm32f4xx_usart.c ****   else /* The IT  is in CR3 register */
1407:stm32f4xx_usart.c ****   {
1408:stm32f4xx_usart.c ****     itmask &= USARTx->CR3;
 1237              		.loc 1 1408 0
 1238 001e 838A     		ldrhne	r3, [r0, #20]	@, USARTx_15(D)->CR3
 1239              	.L92:
 1240 0020 9BB2     		uxth	r3, r3	@ D.6060, USARTx_15(D)->CR3
1409:stm32f4xx_usart.c ****   }
1410:stm32f4xx_usart.c ****   
1411:stm32f4xx_usart.c ****   bitpos = USART_IT >> 0x08;
1412:stm32f4xx_usart.c ****   bitpos = (uint32_t)0x01 << bitpos;
1413:stm32f4xx_usart.c ****   bitpos &= USARTx->SR;
 1241              		.loc 1 1413 0
 1242 0022 0088     		ldrh	r0, [r0, #0]	@, USARTx_15(D)->SR
 1243              	.LVL125:
1408:stm32f4xx_usart.c ****     itmask &= USARTx->CR3;
 1244              		.loc 1 1408 0
 1245 0024 1340     		ands	r3, r3, r2	@, itmask, D.6060, itmask
 1246              	.LVL126:
 1247              		.loc 1 1413 0
 1248 0026 82B2     		uxth	r2, r0	@ D.6064, USARTx_15(D)->SR
 1249              	.LVL127:
1414:stm32f4xx_usart.c ****   if ((itmask != (uint16_t)RESET)&&(bitpos != (uint16_t)RESET))
 1250              		.loc 1 1414 0
 1251 0028 43B1     		cbz	r3, .L91	@ itmask,
1412:stm32f4xx_usart.c ****   bitpos = (uint32_t)0x01 << bitpos;
 1252              		.loc 1 1412 0 discriminator 1
 1253 002a 090A     		lsrs	r1, r1, #8	@ tmp171, USART_IT,
 1254              	.LVL128:
 1255 002c 0123     		movs	r3, #1	@ tmp172,
 1256              	.LVL129:
 1257 002e 03FA01F0 		lsl	r0, r3, r1	@ bitpos, tmp172, tmp171
 1258              		.loc 1 1414 0 discriminator 1
 1259 0032 1042     		tst	r0, r2	@ bitpos, D.6064
1415:stm32f4xx_usart.c ****   {
1416:stm32f4xx_usart.c ****     bitstatus = SET;
 1260              		.loc 1 1416 0 discriminator 1
 1261 0034 0CBF     		ite	eq	@
 1262 0036 0020     		moveq	r0, #0	@, bitstatus
 1263 0038 0120     		movne	r0, #1	@, bitstatus
 1264 003a 10BD     		pop	{r4, pc}	@
 1265              	.LVL130:
 1266              	.L91:
1417:stm32f4xx_usart.c ****   }
1418:stm32f4xx_usart.c ****   else
1419:stm32f4xx_usart.c ****   {
1420:stm32f4xx_usart.c ****     bitstatus = RESET;
 1267              		.loc 1 1420 0
 1268 003c 1846     		mov	r0, r3	@ bitstatus, itmask
 1269              	.LVL131:
1421:stm32f4xx_usart.c ****   }
1422:stm32f4xx_usart.c ****   
1423:stm32f4xx_usart.c ****   return bitstatus;  
1424:stm32f4xx_usart.c **** }
 1270              		.loc 1 1424 0
 1271 003e 10BD     		pop	{r4, pc}	@
ARM GAS  /tmp/ccyhuBN5.s 			page 49


 1272              		.cfi_endproc
 1273              	.LFE137:
 1274              		.size	USART_GetITStatus, .-USART_GetITStatus
 1275              		.section	.text.USART_ClearITPendingBit,"ax",%progbits
 1276              		.align	1
 1277              		.global	USART_ClearITPendingBit
 1278              		.thumb
 1279              		.thumb_func
 1280              		.type	USART_ClearITPendingBit, %function
 1281              	USART_ClearITPendingBit:
 1282              	.LFB138:
1425:stm32f4xx_usart.c **** 
1426:stm32f4xx_usart.c **** /**
1427:stm32f4xx_usart.c ****   * @brief  Clears the USARTx's interrupt pending bits.
1428:stm32f4xx_usart.c ****   * @param  USARTx: where x can be 1, 2, 3, 4, 5, 6, 7 or 8 to select the USART or 
1429:stm32f4xx_usart.c ****   *         UART peripheral.
1430:stm32f4xx_usart.c ****   * @param  USART_IT: specifies the interrupt pending bit to clear.
1431:stm32f4xx_usart.c ****   *          This parameter can be one of the following values:
1432:stm32f4xx_usart.c ****   *            @arg USART_IT_CTS:  CTS change interrupt (not available for UART4 and UART5)
1433:stm32f4xx_usart.c ****   *            @arg USART_IT_LBD:  LIN Break detection interrupt
1434:stm32f4xx_usart.c ****   *            @arg USART_IT_TC:   Transmission complete interrupt. 
1435:stm32f4xx_usart.c ****   *            @arg USART_IT_RXNE: Receive Data register not empty interrupt.
1436:stm32f4xx_usart.c ****   *
1437:stm32f4xx_usart.c ****   * @note   PE (Parity error), FE (Framing error), NE (Noise error), ORE (OverRun 
1438:stm32f4xx_usart.c ****   *          error) and IDLE (Idle line detected) pending bits are cleared by 
1439:stm32f4xx_usart.c ****   *          software sequence: a read operation to USART_SR register 
1440:stm32f4xx_usart.c ****   *          (USART_GetITStatus()) followed by a read operation to USART_DR register 
1441:stm32f4xx_usart.c ****   *          (USART_ReceiveData()).
1442:stm32f4xx_usart.c ****   * @note   RXNE pending bit can be also cleared by a read to the USART_DR register 
1443:stm32f4xx_usart.c ****   *          (USART_ReceiveData()).
1444:stm32f4xx_usart.c ****   * @note   TC pending bit can be also cleared by software sequence: a read 
1445:stm32f4xx_usart.c ****   *          operation to USART_SR register (USART_GetITStatus()) followed by a write 
1446:stm32f4xx_usart.c ****   *          operation to USART_DR register (USART_SendData()).
1447:stm32f4xx_usart.c ****   * @note   TXE pending bit is cleared only by a write to the USART_DR register 
1448:stm32f4xx_usart.c ****   *          (USART_SendData()).
1449:stm32f4xx_usart.c ****   *  
1450:stm32f4xx_usart.c ****   * @retval None
1451:stm32f4xx_usart.c ****   */
1452:stm32f4xx_usart.c **** void USART_ClearITPendingBit(USART_TypeDef* USARTx, uint16_t USART_IT)
1453:stm32f4xx_usart.c **** {
 1283              		.loc 1 1453 0
 1284              		.cfi_startproc
 1285              		@ args = 0, pretend = 0, frame = 0
 1286              		@ frame_needed = 0, uses_anonymous_args = 0
 1287              		@ link register save eliminated.
 1288              	.LVL132:
1454:stm32f4xx_usart.c ****   uint16_t bitpos = 0x00, itmask = 0x00;
1455:stm32f4xx_usart.c ****   /* Check the parameters */
1456:stm32f4xx_usart.c ****   assert_param(IS_USART_ALL_PERIPH(USARTx));
1457:stm32f4xx_usart.c ****   assert_param(IS_USART_CLEAR_IT(USART_IT)); 
1458:stm32f4xx_usart.c **** 
1459:stm32f4xx_usart.c ****   /* The CTS interrupt is not available for UART4 and UART5 */
1460:stm32f4xx_usart.c ****   if (USART_IT == USART_IT_CTS)
1461:stm32f4xx_usart.c ****   {
1462:stm32f4xx_usart.c ****     assert_param(IS_USART_1236_PERIPH(USARTx));
1463:stm32f4xx_usart.c ****   } 
1464:stm32f4xx_usart.c ****     
ARM GAS  /tmp/ccyhuBN5.s 			page 50


1465:stm32f4xx_usart.c ****   bitpos = USART_IT >> 0x08;
1466:stm32f4xx_usart.c ****   itmask = ((uint16_t)0x01 << (uint16_t)bitpos);
 1289              		.loc 1 1466 0
 1290 0000 090A     		lsrs	r1, r1, #8	@ tmp142, USART_IT,
 1291              	.LVL133:
 1292 0002 0123     		movs	r3, #1	@ tmp144,
 1293 0004 03FA01F3 		lsl	r3, r3, r1	@ tmp143, tmp144, tmp142
1467:stm32f4xx_usart.c ****   USARTx->SR = (uint16_t)~itmask;
 1294              		.loc 1 1467 0
 1295 0008 DA43     		mvns	r2, r3	@ tmp146, tmp143
 1296 000a 91B2     		uxth	r1, r2	@ D.6043, tmp146
 1297 000c 0180     		strh	r1, [r0, #0]	@ movhi	@ D.6043, USARTx_9(D)->SR
 1298 000e 7047     		bx	lr	@
 1299              		.cfi_endproc
 1300              	.LFE138:
 1301              		.size	USART_ClearITPendingBit, .-USART_ClearITPendingBit
 1302              		.text
 1303              	.Letext0:
 1304              		.file 2 "/usr/bin/../lib/gcc/arm-none-eabi/4.7.4/../../../../arm-none-eabi/include/stdint.h"
 1305              		.file 3 "stm32f4xx.h"
 1306              		.file 4 "stm32f4xx_rcc.h"
 1307              		.file 5 "stm32f4xx_usart.h"
 1308              		.file 6 "cmsis/core_cm4.h"