ARM GAS  /tmp/ccDT7MPS.s 			page 1


   1              		.syntax unified
   2              		.cpu cortex-m4
   3              		.eabi_attribute 27, 3	@ Tag_ABI_HardFP_use
   4              		.eabi_attribute 28, 1	@ Tag_ABI_VFP_args
   5              		.fpu fpv4-sp-d16
   6              		.eabi_attribute 20, 1	@ Tag_ABI_FP_denormal
   7              		.eabi_attribute 21, 1	@ Tag_ABI_FP_exceptions
   8              		.eabi_attribute 23, 3	@ Tag_ABI_FP_number_model
   9              		.eabi_attribute 24, 1	@ Tag_ABI_align8_needed
  10              		.eabi_attribute 25, 1	@ Tag_ABI_align8_preserved
  11              		.eabi_attribute 26, 1	@ Tag_ABI_enum_size
  12              		.eabi_attribute 30, 4	@ Tag_ABI_optimization_goals
  13              		.eabi_attribute 34, 1	@ Tag_CPU_unaligned_access
  14              		.eabi_attribute 18, 4	@ Tag_ABI_PCS_wchar_t
  15              		.file	"stm32f4xx_sdio.c"
  16              	@ GNU C (GNU Tools for ARM Embedded Processors) version 4.7.4 20130913 (release) [ARM/embedded-4_7-
  17              	@	compiled by GNU C version 4.7.3, GMP version 5.0.5, MPFR version 3.1.1-p2, MPC version 0.9
  18              	@ GGC heuristics: --param ggc-min-expand=100 --param ggc-min-heapsize=131072
  19              	@ options passed:  -I . -I ../ -I cmsis/ -imultilib armv7e-m/fpu
  20              	@ -iprefix /usr/bin/../lib/gcc/arm-none-eabi/4.7.4/
  21              	@ -isysroot /usr/bin/../arm-none-eabi -MD stm32f4xx_sdio.d
  22              	@ -MF .dep/stm32f4xx_sdio.o.d -MP -MQ stm32f4xx_sdio.o -D__USES_INITFINI__
  23              	@ -D __FPU_USED=1 -D __arm__ -D __ASSEMBLY__ -D USE_STDPERIPH_DRIVER
  24              	@ -D STM32F4XX -D HSE_VALUE=8000000 -D __FPU_PRESENT=1 -D __FPU_USED=1
  25              	@ -D STM32F405VG -D USE_USB_OTG_FS -D RUN_FROM_FLASH=1 stm32f4xx_sdio.c
  26              	@ -mthumb -mcpu=cortex-m4 -mfloat-abi=hard -mfpu=fpv4-sp-d16 -mthumb
  27              	@ -auxbase-strip stm32f4xx_sdio.o -gdwarf-2 -Os -Wall -Wstrict-prototypes
  28              	@ -std=gnu99 -falign-functions=16 -fno-inline -fomit-frame-pointer
  29              	@ -fverbose-asm -ffunction-sections -fdata-sections
  30              	@ options enabled:  -fauto-inc-dec -fbranch-count-reg -fcaller-saves
  31              	@ -fcombine-stack-adjustments -fcommon -fcompare-elim -fcprop-registers
  32              	@ -fcrossjumping -fcse-follow-jumps -fdata-sections -fdebug-types-section
  33              	@ -fdefer-pop -fdelete-null-pointer-checks -fdevirtualize -fdwarf2-cfi-asm
  34              	@ -fearly-inlining -feliminate-unused-debug-types -fexpensive-optimizations
  35              	@ -fforward-propagate -ffunction-cse -ffunction-sections -fgcse -fgcse-lm
  36              	@ -fgnu-runtime -fguess-branch-probability -fident -fif-conversion
  37              	@ -fif-conversion2 -findirect-inlining -finline-atomics -finline-functions
  38              	@ -finline-functions-called-once -finline-small-functions -fipa-cp
  39              	@ -fipa-profile -fipa-pure-const -fipa-reference -fipa-sra
  40              	@ -fira-share-save-slots -fira-share-spill-slots -fivopts
  41              	@ -fkeep-static-consts -fleading-underscore -fmath-errno -fmerge-constants
  42              	@ -fmerge-debug-strings -fomit-frame-pointer -foptimize-register-move
  43              	@ -foptimize-sibling-calls -fpartial-inlining -fpeephole -fpeephole2
  44              	@ -fprefetch-loop-arrays -freg-struct-return -fregmove -frename-registers
  45              	@ -freorder-blocks -freorder-functions -frerun-cse-after-loop
  46              	@ -fsched-critical-path-heuristic -fsched-dep-count-heuristic
  47              	@ -fsched-group-heuristic -fsched-interblock -fsched-last-insn-heuristic
  48              	@ -fsched-rank-heuristic -fsched-spec -fsched-spec-insn-heuristic
  49              	@ -fsched-stalled-insns-dep -fschedule-insns2 -fsection-anchors
  50              	@ -fshow-column -fshrink-wrap -fsigned-zeros -fsplit-ivs-in-unroller
  51              	@ -fsplit-wide-types -fstrict-aliasing -fstrict-overflow
  52              	@ -fstrict-volatile-bitfields -fthread-jumps -ftoplevel-reorder
  53              	@ -ftrapping-math -ftree-bit-ccp -ftree-builtin-call-dce -ftree-ccp
  54              	@ -ftree-ch -ftree-copy-prop -ftree-copyrename -ftree-cselim -ftree-dce
  55              	@ -ftree-dominator-opts -ftree-dse -ftree-forwprop -ftree-fre
  56              	@ -ftree-loop-if-convert -ftree-loop-im -ftree-loop-ivcanon
  57              	@ -ftree-loop-optimize -ftree-parallelize-loops= -ftree-phiprop -ftree-pre
ARM GAS  /tmp/ccDT7MPS.s 			page 2


  58              	@ -ftree-pta -ftree-reassoc -ftree-scev-cprop -ftree-sink
  59              	@ -ftree-slp-vectorize -ftree-sra -ftree-switch-conversion
  60              	@ -ftree-tail-merge -ftree-ter -ftree-vect-loop-version -ftree-vrp
  61              	@ -funit-at-a-time -funroll-loops -fvar-tracking -fvar-tracking-assignments
  62              	@ -fverbose-asm -fweb -fzero-initialized-in-bss -mlittle-endian
  63              	@ -msched-prolog -mthumb -munaligned-access -mvectorize-with-neon-quad
  64              	
  65              		.text
  66              	.Ltext0:
  67              		.cfi_sections	.debug_frame
  68              		.section	.text.SDIO_DeInit,"ax",%progbits
  69              		.align	1
  70              		.global	SDIO_DeInit
  71              		.thumb
  72              		.thumb_func
  73              		.type	SDIO_DeInit, %function
  74              	SDIO_DeInit:
  75              	.LFB110:
  76              		.file 1 "stm32f4xx_sdio.c"
   1:stm32f4xx_sdio.c **** /**
   2:stm32f4xx_sdio.c ****   ******************************************************************************
   3:stm32f4xx_sdio.c ****   * @file    stm32f4xx_sdio.c
   4:stm32f4xx_sdio.c ****   * @author  MCD Application Team
   5:stm32f4xx_sdio.c ****   * @version V1.1.0
   6:stm32f4xx_sdio.c ****   * @date    11-January-2013
   7:stm32f4xx_sdio.c ****   * @brief   This file provides firmware functions to manage the following 
   8:stm32f4xx_sdio.c ****   *          functionalities of the Secure digital input/output interface (SDIO) 
   9:stm32f4xx_sdio.c ****   *          peripheral:
  10:stm32f4xx_sdio.c ****   *           + Initialization and Configuration
  11:stm32f4xx_sdio.c ****   *           + Command path state machine (CPSM) management
  12:stm32f4xx_sdio.c ****   *           + Data path state machine (DPSM) management
  13:stm32f4xx_sdio.c ****   *           + SDIO IO Cards mode management
  14:stm32f4xx_sdio.c ****   *           + CE-ATA mode management
  15:stm32f4xx_sdio.c ****   *           + DMA transfers management
  16:stm32f4xx_sdio.c ****   *           + Interrupts and flags management
  17:stm32f4xx_sdio.c ****   *
  18:stm32f4xx_sdio.c **** @verbatim
  19:stm32f4xx_sdio.c **** 
  20:stm32f4xx_sdio.c ****  ===================================================================
  21:stm32f4xx_sdio.c ****                  ##### How to use this driver #####
  22:stm32f4xx_sdio.c ****  ===================================================================
  23:stm32f4xx_sdio.c ****  [..]
  24:stm32f4xx_sdio.c ****    (#) The SDIO clock (SDIOCLK = 48 MHz) is coming from a specific output of PLL 
  25:stm32f4xx_sdio.c ****        (PLL48CLK). Before to start working with SDIO peripheral make sure that the
  26:stm32f4xx_sdio.c ****        PLL is well configured.
  27:stm32f4xx_sdio.c ****        The SDIO peripheral uses two clock signals:
  28:stm32f4xx_sdio.c ****        (++) SDIO adapter clock (SDIOCLK = 48 MHz)
  29:stm32f4xx_sdio.c ****        (++) APB2 bus clock (PCLK2)
  30:stm32f4xx_sdio.c ****        
  31:stm32f4xx_sdio.c ****        -@@- PCLK2 and SDIO_CK clock frequencies must respect the following condition:
  32:stm32f4xx_sdio.c ****            Frequency(PCLK2) >= (3 / 8 x Frequency(SDIO_CK))
  33:stm32f4xx_sdio.c ****   
  34:stm32f4xx_sdio.c ****    (#) Enable peripheral clock using RCC_APB2PeriphClockCmd(RCC_APB2Periph_SDIO, ENABLE).
  35:stm32f4xx_sdio.c ****   
  36:stm32f4xx_sdio.c ****    (#) According to the SDIO mode, enable the GPIO clocks using 
  37:stm32f4xx_sdio.c ****        RCC_AHB1PeriphClockCmd() function. 
  38:stm32f4xx_sdio.c ****        The I/O can be one of the following configurations:
ARM GAS  /tmp/ccDT7MPS.s 			page 3


  39:stm32f4xx_sdio.c ****        (++) 1-bit data length: SDIO_CMD, SDIO_CK and D0.
  40:stm32f4xx_sdio.c ****        (++) 4-bit data length: SDIO_CMD, SDIO_CK and D[3:0].
  41:stm32f4xx_sdio.c ****        (++) 8-bit data length: SDIO_CMD, SDIO_CK and D[7:0].      
  42:stm32f4xx_sdio.c ****   
  43:stm32f4xx_sdio.c ****    (#) Peripheral alternate function: 
  44:stm32f4xx_sdio.c ****        (++) Connect the pin to the desired peripherals' Alternate Function (AF) 
  45:stm32f4xx_sdio.c ****            using GPIO_PinAFConfig() function
  46:stm32f4xx_sdio.c ****        (++) Configure the desired pin in alternate function by: 
  47:stm32f4xx_sdio.c ****            GPIO_InitStruct->GPIO_Mode = GPIO_Mode_AF
  48:stm32f4xx_sdio.c ****        (++) Select the type, pull-up/pull-down and output speed via GPIO_PuPd, 
  49:stm32f4xx_sdio.c ****            GPIO_OType and GPIO_Speed members
  50:stm32f4xx_sdio.c ****        (++) Call GPIO_Init() function
  51:stm32f4xx_sdio.c ****   
  52:stm32f4xx_sdio.c ****    (#) Program the Clock Edge, Clock Bypass, Clock Power Save, Bus Wide, 
  53:stm32f4xx_sdio.c ****        hardware, flow control and the Clock Divider using the SDIO_Init()
  54:stm32f4xx_sdio.c ****        function.
  55:stm32f4xx_sdio.c ****   
  56:stm32f4xx_sdio.c ****    (#) Enable the Power ON State using the SDIO_SetPowerState(SDIO_PowerState_ON) 
  57:stm32f4xx_sdio.c ****        function.
  58:stm32f4xx_sdio.c ****                 
  59:stm32f4xx_sdio.c ****    (#) Enable the clock using the SDIO_ClockCmd() function.
  60:stm32f4xx_sdio.c ****   
  61:stm32f4xx_sdio.c ****    (#) Enable the NVIC and the corresponding interrupt using the function 
  62:stm32f4xx_sdio.c ****        SDIO_ITConfig() if you need to use interrupt mode. 
  63:stm32f4xx_sdio.c ****   
  64:stm32f4xx_sdio.c ****    (#) When using the DMA mode 
  65:stm32f4xx_sdio.c ****        (++) Configure the DMA using DMA_Init() function
  66:stm32f4xx_sdio.c ****        (++) Active the needed channel Request using SDIO_DMACmd() function
  67:stm32f4xx_sdio.c ****   
  68:stm32f4xx_sdio.c ****    (#) Enable the DMA using the DMA_Cmd() function, when using DMA mode. 
  69:stm32f4xx_sdio.c ****   
  70:stm32f4xx_sdio.c ****    (#) To control the CPSM (Command Path State Machine) and send 
  71:stm32f4xx_sdio.c ****        commands to the card use the SDIO_SendCommand(), 
  72:stm32f4xx_sdio.c ****        SDIO_GetCommandResponse() and SDIO_GetResponse() functions. First, user has
  73:stm32f4xx_sdio.c ****        to fill the command structure (pointer to SDIO_CmdInitTypeDef) according 
  74:stm32f4xx_sdio.c ****        to the selected command to be sent.
  75:stm32f4xx_sdio.c ****        The parameters that should be filled are:
  76:stm32f4xx_sdio.c ****        (++) Command Argument
  77:stm32f4xx_sdio.c ****        (++) Command Index
  78:stm32f4xx_sdio.c ****        (++) Command Response type
  79:stm32f4xx_sdio.c ****        (++) Command Wait
  80:stm32f4xx_sdio.c ****        (++) CPSM Status (Enable or Disable).
  81:stm32f4xx_sdio.c ****   
  82:stm32f4xx_sdio.c ****        -@@- To check if the command is well received, read the SDIO_CMDRESP
  83:stm32f4xx_sdio.c ****            register using the SDIO_GetCommandResponse().
  84:stm32f4xx_sdio.c ****            The SDIO responses registers (SDIO_RESP1 to SDIO_RESP2), use the
  85:stm32f4xx_sdio.c ****            SDIO_GetResponse() function.
  86:stm32f4xx_sdio.c ****   
  87:stm32f4xx_sdio.c ****    (#) To control the DPSM (Data Path State Machine) and send/receive 
  88:stm32f4xx_sdio.c ****        data to/from the card use the SDIO_DataConfig(), SDIO_GetDataCounter(), 
  89:stm32f4xx_sdio.c ****        SDIO_ReadData(), SDIO_WriteData() and SDIO_GetFIFOCount() functions.
  90:stm32f4xx_sdio.c ****   
  91:stm32f4xx_sdio.c ****  *** Read Operations ***
  92:stm32f4xx_sdio.c ****  =======================
  93:stm32f4xx_sdio.c ****  [..]
  94:stm32f4xx_sdio.c ****    (#) First, user has to fill the data structure (pointer to
  95:stm32f4xx_sdio.c ****        SDIO_DataInitTypeDef) according to the selected data type to be received.
ARM GAS  /tmp/ccDT7MPS.s 			page 4


  96:stm32f4xx_sdio.c ****        The parameters that should be filled are:
  97:stm32f4xx_sdio.c ****        (++) Data TimeOut
  98:stm32f4xx_sdio.c ****        (++) Data Length
  99:stm32f4xx_sdio.c ****        (++) Data Block size
 100:stm32f4xx_sdio.c ****        (++) Data Transfer direction: should be from card (To SDIO)
 101:stm32f4xx_sdio.c ****        (++) Data Transfer mode
 102:stm32f4xx_sdio.c ****        (++) DPSM Status (Enable or Disable)
 103:stm32f4xx_sdio.c ****                                      
 104:stm32f4xx_sdio.c ****    (#) Configure the SDIO resources to receive the data from the card
 105:stm32f4xx_sdio.c ****        according to selected transfer mode (Refer to Step 8, 9 and 10).
 106:stm32f4xx_sdio.c ****   
 107:stm32f4xx_sdio.c ****    (#)  Send the selected Read command (refer to step 11).
 108:stm32f4xx_sdio.c ****                     
 109:stm32f4xx_sdio.c ****    (#) Use the SDIO flags/interrupts to check the transfer status.
 110:stm32f4xx_sdio.c ****   
 111:stm32f4xx_sdio.c ****  *** Write Operations ***
 112:stm32f4xx_sdio.c ****  ========================
 113:stm32f4xx_sdio.c ****  [..]
 114:stm32f4xx_sdio.c ****    (#) First, user has to fill the data structure (pointer to
 115:stm32f4xx_sdio.c ****        SDIO_DataInitTypeDef) according to the selected data type to be received.
 116:stm32f4xx_sdio.c ****        The parameters that should be filled are:
 117:stm32f4xx_sdio.c ****        (++) Data TimeOut
 118:stm32f4xx_sdio.c ****        (++) Data Length
 119:stm32f4xx_sdio.c ****        (++) Data Block size
 120:stm32f4xx_sdio.c ****        (++) Data Transfer direction:  should be to card (To CARD)
 121:stm32f4xx_sdio.c ****        (++) Data Transfer mode
 122:stm32f4xx_sdio.c ****        (++) DPSM Status (Enable or Disable)
 123:stm32f4xx_sdio.c ****   
 124:stm32f4xx_sdio.c ****    (#) Configure the SDIO resources to send the data to the card according to 
 125:stm32f4xx_sdio.c ****        selected transfer mode (Refer to Step 8, 9 and 10).
 126:stm32f4xx_sdio.c ****                      
 127:stm32f4xx_sdio.c ****    (#) Send the selected Write command (refer to step 11).
 128:stm32f4xx_sdio.c ****                     
 129:stm32f4xx_sdio.c ****    (#) Use the SDIO flags/interrupts to check the transfer status.
 130:stm32f4xx_sdio.c ****   
 131:stm32f4xx_sdio.c ****   
 132:stm32f4xx_sdio.c **** @endverbatim
 133:stm32f4xx_sdio.c ****   *
 134:stm32f4xx_sdio.c ****   *
 135:stm32f4xx_sdio.c ****   ******************************************************************************
 136:stm32f4xx_sdio.c ****   * @attention
 137:stm32f4xx_sdio.c ****   *
 138:stm32f4xx_sdio.c ****   * <h2><center>&copy; COPYRIGHT 2013 STMicroelectronics</center></h2>
 139:stm32f4xx_sdio.c ****   *
 140:stm32f4xx_sdio.c ****   * Licensed under MCD-ST Liberty SW License Agreement V2, (the "License");
 141:stm32f4xx_sdio.c ****   * You may not use this file except in compliance with the License.
 142:stm32f4xx_sdio.c ****   * You may obtain a copy of the License at:
 143:stm32f4xx_sdio.c ****   *
 144:stm32f4xx_sdio.c ****   *        http://www.st.com/software_license_agreement_liberty_v2
 145:stm32f4xx_sdio.c ****   *
 146:stm32f4xx_sdio.c ****   * Unless required by applicable law or agreed to in writing, software 
 147:stm32f4xx_sdio.c ****   * distributed under the License is distributed on an "AS IS" BASIS, 
 148:stm32f4xx_sdio.c ****   * WITHOUT WARRANTIES OR CONDITIONS OF ANY KIND, either express or implied.
 149:stm32f4xx_sdio.c ****   * See the License for the specific language governing permissions and
 150:stm32f4xx_sdio.c ****   * limitations under the License.
 151:stm32f4xx_sdio.c ****   *
 152:stm32f4xx_sdio.c ****   ******************************************************************************
ARM GAS  /tmp/ccDT7MPS.s 			page 5


 153:stm32f4xx_sdio.c ****   */
 154:stm32f4xx_sdio.c **** 
 155:stm32f4xx_sdio.c **** /* Includes ------------------------------------------------------------------*/
 156:stm32f4xx_sdio.c **** #include "stm32f4xx_sdio.h"
 157:stm32f4xx_sdio.c **** #include "stm32f4xx_rcc.h"
 158:stm32f4xx_sdio.c **** 
 159:stm32f4xx_sdio.c **** /** @addtogroup STM32F4xx_StdPeriph_Driver
 160:stm32f4xx_sdio.c ****   * @{
 161:stm32f4xx_sdio.c ****   */
 162:stm32f4xx_sdio.c **** 
 163:stm32f4xx_sdio.c **** /** @defgroup SDIO 
 164:stm32f4xx_sdio.c ****   * @brief SDIO driver modules
 165:stm32f4xx_sdio.c ****   * @{
 166:stm32f4xx_sdio.c ****   */ 
 167:stm32f4xx_sdio.c **** 
 168:stm32f4xx_sdio.c **** /* Private typedef -----------------------------------------------------------*/
 169:stm32f4xx_sdio.c **** /* Private define ------------------------------------------------------------*/
 170:stm32f4xx_sdio.c **** 
 171:stm32f4xx_sdio.c **** /* ------------ SDIO registers bit address in the alias region ----------- */
 172:stm32f4xx_sdio.c **** #define SDIO_OFFSET                (SDIO_BASE - PERIPH_BASE)
 173:stm32f4xx_sdio.c **** 
 174:stm32f4xx_sdio.c **** /* --- CLKCR Register ---*/
 175:stm32f4xx_sdio.c **** /* Alias word address of CLKEN bit */
 176:stm32f4xx_sdio.c **** #define CLKCR_OFFSET              (SDIO_OFFSET + 0x04)
 177:stm32f4xx_sdio.c **** #define CLKEN_BitNumber           0x08
 178:stm32f4xx_sdio.c **** #define CLKCR_CLKEN_BB            (PERIPH_BB_BASE + (CLKCR_OFFSET * 32) + (CLKEN_BitNumber * 4))
 179:stm32f4xx_sdio.c **** 
 180:stm32f4xx_sdio.c **** /* --- CMD Register ---*/
 181:stm32f4xx_sdio.c **** /* Alias word address of SDIOSUSPEND bit */
 182:stm32f4xx_sdio.c **** #define CMD_OFFSET                (SDIO_OFFSET + 0x0C)
 183:stm32f4xx_sdio.c **** #define SDIOSUSPEND_BitNumber     0x0B
 184:stm32f4xx_sdio.c **** #define CMD_SDIOSUSPEND_BB        (PERIPH_BB_BASE + (CMD_OFFSET * 32) + (SDIOSUSPEND_BitNumber * 4)
 185:stm32f4xx_sdio.c **** 
 186:stm32f4xx_sdio.c **** /* Alias word address of ENCMDCOMPL bit */
 187:stm32f4xx_sdio.c **** #define ENCMDCOMPL_BitNumber      0x0C
 188:stm32f4xx_sdio.c **** #define CMD_ENCMDCOMPL_BB         (PERIPH_BB_BASE + (CMD_OFFSET * 32) + (ENCMDCOMPL_BitNumber * 4))
 189:stm32f4xx_sdio.c **** 
 190:stm32f4xx_sdio.c **** /* Alias word address of NIEN bit */
 191:stm32f4xx_sdio.c **** #define NIEN_BitNumber            0x0D
 192:stm32f4xx_sdio.c **** #define CMD_NIEN_BB               (PERIPH_BB_BASE + (CMD_OFFSET * 32) + (NIEN_BitNumber * 4))
 193:stm32f4xx_sdio.c **** 
 194:stm32f4xx_sdio.c **** /* Alias word address of ATACMD bit */
 195:stm32f4xx_sdio.c **** #define ATACMD_BitNumber          0x0E
 196:stm32f4xx_sdio.c **** #define CMD_ATACMD_BB             (PERIPH_BB_BASE + (CMD_OFFSET * 32) + (ATACMD_BitNumber * 4))
 197:stm32f4xx_sdio.c **** 
 198:stm32f4xx_sdio.c **** /* --- DCTRL Register ---*/
 199:stm32f4xx_sdio.c **** /* Alias word address of DMAEN bit */
 200:stm32f4xx_sdio.c **** #define DCTRL_OFFSET              (SDIO_OFFSET + 0x2C)
 201:stm32f4xx_sdio.c **** #define DMAEN_BitNumber           0x03
 202:stm32f4xx_sdio.c **** #define DCTRL_DMAEN_BB            (PERIPH_BB_BASE + (DCTRL_OFFSET * 32) + (DMAEN_BitNumber * 4))
 203:stm32f4xx_sdio.c **** 
 204:stm32f4xx_sdio.c **** /* Alias word address of RWSTART bit */
 205:stm32f4xx_sdio.c **** #define RWSTART_BitNumber         0x08
 206:stm32f4xx_sdio.c **** #define DCTRL_RWSTART_BB          (PERIPH_BB_BASE + (DCTRL_OFFSET * 32) + (RWSTART_BitNumber * 4))
 207:stm32f4xx_sdio.c **** 
 208:stm32f4xx_sdio.c **** /* Alias word address of RWSTOP bit */
 209:stm32f4xx_sdio.c **** #define RWSTOP_BitNumber          0x09
ARM GAS  /tmp/ccDT7MPS.s 			page 6


 210:stm32f4xx_sdio.c **** #define DCTRL_RWSTOP_BB           (PERIPH_BB_BASE + (DCTRL_OFFSET * 32) + (RWSTOP_BitNumber * 4))
 211:stm32f4xx_sdio.c **** 
 212:stm32f4xx_sdio.c **** /* Alias word address of RWMOD bit */
 213:stm32f4xx_sdio.c **** #define RWMOD_BitNumber           0x0A
 214:stm32f4xx_sdio.c **** #define DCTRL_RWMOD_BB            (PERIPH_BB_BASE + (DCTRL_OFFSET * 32) + (RWMOD_BitNumber * 4))
 215:stm32f4xx_sdio.c **** 
 216:stm32f4xx_sdio.c **** /* Alias word address of SDIOEN bit */
 217:stm32f4xx_sdio.c **** #define SDIOEN_BitNumber          0x0B
 218:stm32f4xx_sdio.c **** #define DCTRL_SDIOEN_BB           (PERIPH_BB_BASE + (DCTRL_OFFSET * 32) + (SDIOEN_BitNumber * 4))
 219:stm32f4xx_sdio.c **** 
 220:stm32f4xx_sdio.c **** /* ---------------------- SDIO registers bit mask ------------------------ */
 221:stm32f4xx_sdio.c **** /* --- CLKCR Register ---*/
 222:stm32f4xx_sdio.c **** /* CLKCR register clear mask */
 223:stm32f4xx_sdio.c **** #define CLKCR_CLEAR_MASK         ((uint32_t)0xFFFF8100) 
 224:stm32f4xx_sdio.c **** 
 225:stm32f4xx_sdio.c **** /* --- PWRCTRL Register ---*/
 226:stm32f4xx_sdio.c **** /* SDIO PWRCTRL Mask */
 227:stm32f4xx_sdio.c **** #define PWR_PWRCTRL_MASK         ((uint32_t)0xFFFFFFFC)
 228:stm32f4xx_sdio.c **** 
 229:stm32f4xx_sdio.c **** /* --- DCTRL Register ---*/
 230:stm32f4xx_sdio.c **** /* SDIO DCTRL Clear Mask */
 231:stm32f4xx_sdio.c **** #define DCTRL_CLEAR_MASK         ((uint32_t)0xFFFFFF08)
 232:stm32f4xx_sdio.c **** 
 233:stm32f4xx_sdio.c **** /* --- CMD Register ---*/
 234:stm32f4xx_sdio.c **** /* CMD Register clear mask */
 235:stm32f4xx_sdio.c **** #define CMD_CLEAR_MASK           ((uint32_t)0xFFFFF800)
 236:stm32f4xx_sdio.c **** 
 237:stm32f4xx_sdio.c **** /* SDIO RESP Registers Address */
 238:stm32f4xx_sdio.c **** #define SDIO_RESP_ADDR           ((uint32_t)(SDIO_BASE + 0x14))
 239:stm32f4xx_sdio.c **** 
 240:stm32f4xx_sdio.c **** /* Private macro -------------------------------------------------------------*/
 241:stm32f4xx_sdio.c **** /* Private variables ---------------------------------------------------------*/
 242:stm32f4xx_sdio.c **** /* Private function prototypes -----------------------------------------------*/
 243:stm32f4xx_sdio.c **** /* Private functions ---------------------------------------------------------*/
 244:stm32f4xx_sdio.c **** 
 245:stm32f4xx_sdio.c **** /** @defgroup SDIO_Private_Functions
 246:stm32f4xx_sdio.c ****   * @{
 247:stm32f4xx_sdio.c ****   */
 248:stm32f4xx_sdio.c **** 
 249:stm32f4xx_sdio.c **** /** @defgroup SDIO_Group1 Initialization and Configuration functions
 250:stm32f4xx_sdio.c ****  *  @brief   Initialization and Configuration functions 
 251:stm32f4xx_sdio.c ****  *
 252:stm32f4xx_sdio.c **** @verbatim   
 253:stm32f4xx_sdio.c ****  ===============================================================================
 254:stm32f4xx_sdio.c ****               ##### Initialization and Configuration functions #####
 255:stm32f4xx_sdio.c ****  ===============================================================================
 256:stm32f4xx_sdio.c **** 
 257:stm32f4xx_sdio.c **** @endverbatim
 258:stm32f4xx_sdio.c ****   * @{
 259:stm32f4xx_sdio.c ****   */
 260:stm32f4xx_sdio.c **** 
 261:stm32f4xx_sdio.c **** /**
 262:stm32f4xx_sdio.c ****   * @brief  Deinitializes the SDIO peripheral registers to their default reset values.
 263:stm32f4xx_sdio.c ****   * @param  None
 264:stm32f4xx_sdio.c ****   * @retval None
 265:stm32f4xx_sdio.c ****   */
 266:stm32f4xx_sdio.c **** void SDIO_DeInit(void)
ARM GAS  /tmp/ccDT7MPS.s 			page 7


 267:stm32f4xx_sdio.c **** {
  77              		.loc 1 267 0
  78              		.cfi_startproc
  79              		@ args = 0, pretend = 0, frame = 0
  80              		@ frame_needed = 0, uses_anonymous_args = 0
  81 0000 08B5     		push	{r3, lr}	@
  82              	.LCFI0:
  83              		.cfi_def_cfa_offset 8
  84              		.cfi_offset 3, -8
  85              		.cfi_offset 14, -4
 268:stm32f4xx_sdio.c ****   RCC_APB2PeriphResetCmd(RCC_APB2Periph_SDIO, ENABLE);
  86              		.loc 1 268 0
  87 0002 0121     		movs	r1, #1	@,
  88 0004 4FF40060 		mov	r0, #2048	@,
  89 0008 FFF7FEFF 		bl	RCC_APB2PeriphResetCmd	@
  90              	.LVL0:
 269:stm32f4xx_sdio.c ****   RCC_APB2PeriphResetCmd(RCC_APB2Periph_SDIO, DISABLE);
  91              		.loc 1 269 0
  92 000c 4FF40060 		mov	r0, #2048	@,
  93 0010 0021     		movs	r1, #0	@,
 270:stm32f4xx_sdio.c **** }
  94              		.loc 1 270 0
  95 0012 BDE80840 		pop	{r3, lr}	@
 269:stm32f4xx_sdio.c ****   RCC_APB2PeriphResetCmd(RCC_APB2Periph_SDIO, DISABLE);
  96              		.loc 1 269 0
  97 0016 FFF7FEBF 		b	RCC_APB2PeriphResetCmd	@
  98              	.LVL1:
  99              		.cfi_endproc
 100              	.LFE110:
 101              		.size	SDIO_DeInit, .-SDIO_DeInit
 102              		.section	.text.SDIO_Init,"ax",%progbits
 103              		.align	1
 104              		.global	SDIO_Init
 105              		.thumb
 106              		.thumb_func
 107              		.type	SDIO_Init, %function
 108              	SDIO_Init:
 109              	.LFB111:
 271:stm32f4xx_sdio.c **** 
 272:stm32f4xx_sdio.c **** /**
 273:stm32f4xx_sdio.c ****   * @brief  Initializes the SDIO peripheral according to the specified 
 274:stm32f4xx_sdio.c ****   *         parameters in the SDIO_InitStruct.
 275:stm32f4xx_sdio.c ****   * @param  SDIO_InitStruct : pointer to a SDIO_InitTypeDef structure 
 276:stm32f4xx_sdio.c ****   *         that contains the configuration information for the SDIO peripheral.
 277:stm32f4xx_sdio.c ****   * @retval None
 278:stm32f4xx_sdio.c ****   */
 279:stm32f4xx_sdio.c **** void SDIO_Init(SDIO_InitTypeDef* SDIO_InitStruct)
 280:stm32f4xx_sdio.c **** {
 110              		.loc 1 280 0
 111              		.cfi_startproc
 112              		@ args = 0, pretend = 0, frame = 0
 113              		@ frame_needed = 0, uses_anonymous_args = 0
 114              	.LVL2:
 281:stm32f4xx_sdio.c ****   uint32_t tmpreg = 0;
 282:stm32f4xx_sdio.c ****     
 283:stm32f4xx_sdio.c ****   /* Check the parameters */
 284:stm32f4xx_sdio.c ****   assert_param(IS_SDIO_CLOCK_EDGE(SDIO_InitStruct->SDIO_ClockEdge));
ARM GAS  /tmp/ccDT7MPS.s 			page 8


 285:stm32f4xx_sdio.c ****   assert_param(IS_SDIO_CLOCK_BYPASS(SDIO_InitStruct->SDIO_ClockBypass));
 286:stm32f4xx_sdio.c ****   assert_param(IS_SDIO_CLOCK_POWER_SAVE(SDIO_InitStruct->SDIO_ClockPowerSave));
 287:stm32f4xx_sdio.c ****   assert_param(IS_SDIO_BUS_WIDE(SDIO_InitStruct->SDIO_BusWide));
 288:stm32f4xx_sdio.c ****   assert_param(IS_SDIO_HARDWARE_FLOW_CONTROL(SDIO_InitStruct->SDIO_HardwareFlowControl)); 
 289:stm32f4xx_sdio.c ****    
 290:stm32f4xx_sdio.c **** /*---------------------------- SDIO CLKCR Configuration ------------------------*/  
 291:stm32f4xx_sdio.c ****   /* Get the SDIO CLKCR value */
 292:stm32f4xx_sdio.c ****   tmpreg = SDIO->CLKCR;
 293:stm32f4xx_sdio.c ****   
 294:stm32f4xx_sdio.c ****   /* Clear CLKDIV, PWRSAV, BYPASS, WIDBUS, NEGEDGE, HWFC_EN bits */
 295:stm32f4xx_sdio.c ****   tmpreg &= CLKCR_CLEAR_MASK;
 296:stm32f4xx_sdio.c ****   
 297:stm32f4xx_sdio.c ****   /* Set CLKDIV bits according to SDIO_ClockDiv value */
 298:stm32f4xx_sdio.c ****   /* Set PWRSAV bit according to SDIO_ClockPowerSave value */
 299:stm32f4xx_sdio.c ****   /* Set BYPASS bit according to SDIO_ClockBypass value */
 300:stm32f4xx_sdio.c ****   /* Set WIDBUS bits according to SDIO_BusWide value */
 301:stm32f4xx_sdio.c ****   /* Set NEGEDGE bits according to SDIO_ClockEdge value */
 302:stm32f4xx_sdio.c ****   /* Set HWFC_EN bits according to SDIO_HardwareFlowControl value */
 303:stm32f4xx_sdio.c ****   tmpreg |= (SDIO_InitStruct->SDIO_ClockDiv  | SDIO_InitStruct->SDIO_ClockPowerSave |
 115              		.loc 1 303 0
 116 0000 8168     		ldr	r1, [r0, #8]	@ SDIO_InitStruct_5(D)->SDIO_ClockPowerSave, SDIO_InitStruct_5(D)->SDIO_ClockPowe
 292:stm32f4xx_sdio.c ****   tmpreg = SDIO->CLKCR;
 117              		.loc 1 292 0
 118 0002 0A4A     		ldr	r2, .L3	@ tmp150,
 280:stm32f4xx_sdio.c **** {
 119              		.loc 1 280 0
 120 0004 10B5     		push	{r4, lr}	@
 121              	.LCFI1:
 122              		.cfi_def_cfa_offset 8
 123              		.cfi_offset 4, -8
 124              		.cfi_offset 14, -4
 125              		.loc 1 303 0
 126 0006 4468     		ldr	r4, [r0, #4]	@ SDIO_InitStruct_5(D)->SDIO_ClockBypass, SDIO_InitStruct_5(D)->SDIO_ClockBypass
 292:stm32f4xx_sdio.c ****   tmpreg = SDIO->CLKCR;
 127              		.loc 1 292 0
 128 0008 5368     		ldr	r3, [r2, #4]	@ tmpreg, MEM[(struct SDIO_TypeDef *)1073818624B].CLKCR
 129              	.LVL3:
 130              		.loc 1 303 0
 131 000a 0C43     		orrs	r4, r4, r1	@, tmp151, SDIO_InitStruct_5(D)->SDIO_ClockBypass, SDIO_InitStruct_5(D)->SDIO_Cloc
 132 000c C168     		ldr	r1, [r0, #12]	@ SDIO_InitStruct_5(D)->SDIO_BusWide, SDIO_InitStruct_5(D)->SDIO_BusWide
 133 000e 0C43     		orrs	r4, r4, r1	@, tmp154, tmp151, SDIO_InitStruct_5(D)->SDIO_BusWide
 304:stm32f4xx_sdio.c ****              SDIO_InitStruct->SDIO_ClockBypass | SDIO_InitStruct->SDIO_BusWide |
 134              		.loc 1 304 0
 135 0010 0168     		ldr	r1, [r0, #0]	@ SDIO_InitStruct_5(D)->SDIO_ClockEdge, SDIO_InitStruct_5(D)->SDIO_ClockEdge
 136 0012 0C43     		orrs	r4, r4, r1	@, tmp156, tmp154, SDIO_InitStruct_5(D)->SDIO_ClockEdge
 137 0014 0169     		ldr	r1, [r0, #16]	@ SDIO_InitStruct_5(D)->SDIO_HardwareFlowControl, SDIO_InitStruct_5(D)->SDIO_Har
 303:stm32f4xx_sdio.c ****   tmpreg |= (SDIO_InitStruct->SDIO_ClockDiv  | SDIO_InitStruct->SDIO_ClockPowerSave |
 138              		.loc 1 303 0
 139 0016 007D     		ldrb	r0, [r0, #20]	@ zero_extendqisi2	@ SDIO_InitStruct_5(D)->SDIO_ClockDiv, SDIO_InitStruct_5(D)-
 140              	.LVL4:
 295:stm32f4xx_sdio.c ****   tmpreg &= CLKCR_CLEAR_MASK;
 141              		.loc 1 295 0
 142 0018 23F4FD43 		bic	r3, r3, #32384	@ tmp160, tmpreg,
 143              	.LVL5:
 144              		.loc 1 304 0
 145 001c 2143     		orrs	r1, r1, r4	@, tmp158, SDIO_InitStruct_5(D)->SDIO_HardwareFlowControl, tmp156
 295:stm32f4xx_sdio.c ****   tmpreg &= CLKCR_CLEAR_MASK;
ARM GAS  /tmp/ccDT7MPS.s 			page 9


 146              		.loc 1 295 0
 147 001e 23F07F03 		bic	r3, r3, #127	@ tmp160, tmp160,
 305:stm32f4xx_sdio.c ****              SDIO_InitStruct->SDIO_ClockEdge | SDIO_InitStruct->SDIO_HardwareFlowControl); 
 148              		.loc 1 305 0
 149 0022 1943     		orrs	r1, r1, r3	@, D.6110, tmp158, tmp160
 303:stm32f4xx_sdio.c ****   tmpreg |= (SDIO_InitStruct->SDIO_ClockDiv  | SDIO_InitStruct->SDIO_ClockPowerSave |
 150              		.loc 1 303 0
 151 0024 0143     		orrs	r1, r1, r0	@, tmpreg, D.6110, SDIO_InitStruct_5(D)->SDIO_ClockDiv
 152              	.LVL6:
 306:stm32f4xx_sdio.c ****   
 307:stm32f4xx_sdio.c ****   /* Write to SDIO CLKCR */
 308:stm32f4xx_sdio.c ****   SDIO->CLKCR = tmpreg;
 153              		.loc 1 308 0
 154 0026 5160     		str	r1, [r2, #4]	@ tmpreg, MEM[(struct SDIO_TypeDef *)1073818624B].CLKCR
 155 0028 10BD     		pop	{r4, pc}	@
 156              	.L4:
 157 002a 00BF     		.align	2
 158              	.L3:
 159 002c 002C0140 		.word	1073818624
 160              		.cfi_endproc
 161              	.LFE111:
 162              		.size	SDIO_Init, .-SDIO_Init
 163              		.section	.text.SDIO_StructInit,"ax",%progbits
 164              		.align	1
 165              		.global	SDIO_StructInit
 166              		.thumb
 167              		.thumb_func
 168              		.type	SDIO_StructInit, %function
 169              	SDIO_StructInit:
 170              	.LFB112:
 309:stm32f4xx_sdio.c **** }
 310:stm32f4xx_sdio.c **** 
 311:stm32f4xx_sdio.c **** /**
 312:stm32f4xx_sdio.c ****   * @brief  Fills each SDIO_InitStruct member with its default value.
 313:stm32f4xx_sdio.c ****   * @param  SDIO_InitStruct: pointer to an SDIO_InitTypeDef structure which 
 314:stm32f4xx_sdio.c ****   *         will be initialized.
 315:stm32f4xx_sdio.c ****   * @retval None
 316:stm32f4xx_sdio.c ****   */
 317:stm32f4xx_sdio.c **** void SDIO_StructInit(SDIO_InitTypeDef* SDIO_InitStruct)
 318:stm32f4xx_sdio.c **** {
 171              		.loc 1 318 0
 172              		.cfi_startproc
 173              		@ args = 0, pretend = 0, frame = 0
 174              		@ frame_needed = 0, uses_anonymous_args = 0
 175              		@ link register save eliminated.
 176              	.LVL7:
 319:stm32f4xx_sdio.c ****   /* SDIO_InitStruct members default value */
 320:stm32f4xx_sdio.c ****   SDIO_InitStruct->SDIO_ClockDiv = 0x00;
 177              		.loc 1 320 0
 178 0000 0023     		movs	r3, #0	@ tmp135,
 179 0002 0375     		strb	r3, [r0, #20]	@ tmp135, SDIO_InitStruct_1(D)->SDIO_ClockDiv
 321:stm32f4xx_sdio.c ****   SDIO_InitStruct->SDIO_ClockEdge = SDIO_ClockEdge_Rising;
 180              		.loc 1 321 0
 181 0004 0360     		str	r3, [r0, #0]	@ tmp135, SDIO_InitStruct_1(D)->SDIO_ClockEdge
 322:stm32f4xx_sdio.c ****   SDIO_InitStruct->SDIO_ClockBypass = SDIO_ClockBypass_Disable;
 182              		.loc 1 322 0
 183 0006 4360     		str	r3, [r0, #4]	@ tmp135, SDIO_InitStruct_1(D)->SDIO_ClockBypass
ARM GAS  /tmp/ccDT7MPS.s 			page 10


 323:stm32f4xx_sdio.c ****   SDIO_InitStruct->SDIO_ClockPowerSave = SDIO_ClockPowerSave_Disable;
 184              		.loc 1 323 0
 185 0008 8360     		str	r3, [r0, #8]	@ tmp135, SDIO_InitStruct_1(D)->SDIO_ClockPowerSave
 324:stm32f4xx_sdio.c ****   SDIO_InitStruct->SDIO_BusWide = SDIO_BusWide_1b;
 186              		.loc 1 324 0
 187 000a C360     		str	r3, [r0, #12]	@ tmp135, SDIO_InitStruct_1(D)->SDIO_BusWide
 325:stm32f4xx_sdio.c ****   SDIO_InitStruct->SDIO_HardwareFlowControl = SDIO_HardwareFlowControl_Disable;
 188              		.loc 1 325 0
 189 000c 0361     		str	r3, [r0, #16]	@ tmp135, SDIO_InitStruct_1(D)->SDIO_HardwareFlowControl
 190 000e 7047     		bx	lr	@
 191              		.cfi_endproc
 192              	.LFE112:
 193              		.size	SDIO_StructInit, .-SDIO_StructInit
 194              		.section	.text.SDIO_ClockCmd,"ax",%progbits
 195              		.align	1
 196              		.global	SDIO_ClockCmd
 197              		.thumb
 198              		.thumb_func
 199              		.type	SDIO_ClockCmd, %function
 200              	SDIO_ClockCmd:
 201              	.LFB113:
 326:stm32f4xx_sdio.c **** }
 327:stm32f4xx_sdio.c **** 
 328:stm32f4xx_sdio.c **** /**
 329:stm32f4xx_sdio.c ****   * @brief  Enables or disables the SDIO Clock.
 330:stm32f4xx_sdio.c ****   * @param  NewState: new state of the SDIO Clock. 
 331:stm32f4xx_sdio.c ****   *         This parameter can be: ENABLE or DISABLE.
 332:stm32f4xx_sdio.c ****   * @retval None
 333:stm32f4xx_sdio.c ****   */
 334:stm32f4xx_sdio.c **** void SDIO_ClockCmd(FunctionalState NewState)
 335:stm32f4xx_sdio.c **** {
 202              		.loc 1 335 0
 203              		.cfi_startproc
 204              		@ args = 0, pretend = 0, frame = 0
 205              		@ frame_needed = 0, uses_anonymous_args = 0
 206              		@ link register save eliminated.
 207              	.LVL8:
 336:stm32f4xx_sdio.c ****   /* Check the parameters */
 337:stm32f4xx_sdio.c ****   assert_param(IS_FUNCTIONAL_STATE(NewState));
 338:stm32f4xx_sdio.c ****   
 339:stm32f4xx_sdio.c ****   *(__IO uint32_t *) CLKCR_CLKEN_BB = (uint32_t)NewState;
 208              		.loc 1 339 0
 209 0000 014B     		ldr	r3, .L7	@ tmp136,
 210 0002 1860     		str	r0, [r3, #0]	@ NewState, MEM[(volatile uint32_t *)1109754016B]
 211 0004 7047     		bx	lr	@
 212              	.L8:
 213 0006 00BF     		.align	2
 214              	.L7:
 215 0008 A0802542 		.word	1109754016
 216              		.cfi_endproc
 217              	.LFE113:
 218              		.size	SDIO_ClockCmd, .-SDIO_ClockCmd
 219              		.section	.text.SDIO_SetPowerState,"ax",%progbits
 220              		.align	1
 221              		.global	SDIO_SetPowerState
 222              		.thumb
 223              		.thumb_func
ARM GAS  /tmp/ccDT7MPS.s 			page 11


 224              		.type	SDIO_SetPowerState, %function
 225              	SDIO_SetPowerState:
 226              	.LFB114:
 340:stm32f4xx_sdio.c **** }
 341:stm32f4xx_sdio.c **** 
 342:stm32f4xx_sdio.c **** /**
 343:stm32f4xx_sdio.c ****   * @brief  Sets the power status of the controller.
 344:stm32f4xx_sdio.c ****   * @param  SDIO_PowerState: new state of the Power state. 
 345:stm32f4xx_sdio.c ****   *          This parameter can be one of the following values:
 346:stm32f4xx_sdio.c ****   *            @arg SDIO_PowerState_OFF: SDIO Power OFF
 347:stm32f4xx_sdio.c ****   *            @arg SDIO_PowerState_ON: SDIO Power ON
 348:stm32f4xx_sdio.c ****   * @retval None
 349:stm32f4xx_sdio.c ****   */
 350:stm32f4xx_sdio.c **** void SDIO_SetPowerState(uint32_t SDIO_PowerState)
 351:stm32f4xx_sdio.c **** {
 227              		.loc 1 351 0
 228              		.cfi_startproc
 229              		@ args = 0, pretend = 0, frame = 0
 230              		@ frame_needed = 0, uses_anonymous_args = 0
 231              		@ link register save eliminated.
 232              	.LVL9:
 352:stm32f4xx_sdio.c ****   /* Check the parameters */
 353:stm32f4xx_sdio.c ****   assert_param(IS_SDIO_POWER_STATE(SDIO_PowerState));
 354:stm32f4xx_sdio.c ****   
 355:stm32f4xx_sdio.c ****   SDIO->POWER = SDIO_PowerState;
 233              		.loc 1 355 0
 234 0000 014B     		ldr	r3, .L10	@ tmp135,
 235 0002 1860     		str	r0, [r3, #0]	@ SDIO_PowerState, MEM[(struct SDIO_TypeDef *)1073818624B].POWER
 236 0004 7047     		bx	lr	@
 237              	.L11:
 238 0006 00BF     		.align	2
 239              	.L10:
 240 0008 002C0140 		.word	1073818624
 241              		.cfi_endproc
 242              	.LFE114:
 243              		.size	SDIO_SetPowerState, .-SDIO_SetPowerState
 244              		.section	.text.SDIO_GetPowerState,"ax",%progbits
 245              		.align	1
 246              		.global	SDIO_GetPowerState
 247              		.thumb
 248              		.thumb_func
 249              		.type	SDIO_GetPowerState, %function
 250              	SDIO_GetPowerState:
 251              	.LFB115:
 356:stm32f4xx_sdio.c **** }
 357:stm32f4xx_sdio.c **** 
 358:stm32f4xx_sdio.c **** /**
 359:stm32f4xx_sdio.c ****   * @brief  Gets the power status of the controller.
 360:stm32f4xx_sdio.c ****   * @param  None
 361:stm32f4xx_sdio.c ****   * @retval Power status of the controller. The returned value can be one of the 
 362:stm32f4xx_sdio.c ****   *         following values:
 363:stm32f4xx_sdio.c ****   *            - 0x00: Power OFF
 364:stm32f4xx_sdio.c ****   *            - 0x02: Power UP
 365:stm32f4xx_sdio.c ****   *            - 0x03: Power ON 
 366:stm32f4xx_sdio.c ****   */
 367:stm32f4xx_sdio.c **** uint32_t SDIO_GetPowerState(void)
 368:stm32f4xx_sdio.c **** {
ARM GAS  /tmp/ccDT7MPS.s 			page 12


 252              		.loc 1 368 0
 253              		.cfi_startproc
 254              		@ args = 0, pretend = 0, frame = 0
 255              		@ frame_needed = 0, uses_anonymous_args = 0
 256              		@ link register save eliminated.
 369:stm32f4xx_sdio.c ****   return (SDIO->POWER & (~PWR_PWRCTRL_MASK));
 257              		.loc 1 369 0
 258 0000 024B     		ldr	r3, .L13	@ tmp137,
 259 0002 1868     		ldr	r0, [r3, #0]	@ D.6093, MEM[(struct SDIO_TypeDef *)1073818624B].POWER
 370:stm32f4xx_sdio.c **** }
 260              		.loc 1 370 0
 261 0004 00F00300 		and	r0, r0, #3	@, D.6093,
 262 0008 7047     		bx	lr	@
 263              	.L14:
 264 000a 00BF     		.align	2
 265              	.L13:
 266 000c 002C0140 		.word	1073818624
 267              		.cfi_endproc
 268              	.LFE115:
 269              		.size	SDIO_GetPowerState, .-SDIO_GetPowerState
 270              		.section	.text.SDIO_SendCommand,"ax",%progbits
 271              		.align	1
 272              		.global	SDIO_SendCommand
 273              		.thumb
 274              		.thumb_func
 275              		.type	SDIO_SendCommand, %function
 276              	SDIO_SendCommand:
 277              	.LFB116:
 371:stm32f4xx_sdio.c **** 
 372:stm32f4xx_sdio.c **** /**
 373:stm32f4xx_sdio.c ****   * @}
 374:stm32f4xx_sdio.c ****   */
 375:stm32f4xx_sdio.c **** 
 376:stm32f4xx_sdio.c **** /** @defgroup SDIO_Group2 Command path state machine (CPSM) management functions
 377:stm32f4xx_sdio.c ****  *  @brief   Command path state machine (CPSM) management functions 
 378:stm32f4xx_sdio.c ****  *
 379:stm32f4xx_sdio.c **** @verbatim   
 380:stm32f4xx_sdio.c ****  ===============================================================================
 381:stm32f4xx_sdio.c ****         ##### Command path state machine (CPSM) management functions #####
 382:stm32f4xx_sdio.c ****  ===============================================================================  
 383:stm32f4xx_sdio.c **** 
 384:stm32f4xx_sdio.c ****   This section provide functions allowing to program and read the Command path 
 385:stm32f4xx_sdio.c ****   state machine (CPSM).
 386:stm32f4xx_sdio.c **** 
 387:stm32f4xx_sdio.c **** @endverbatim
 388:stm32f4xx_sdio.c ****   * @{
 389:stm32f4xx_sdio.c ****   */
 390:stm32f4xx_sdio.c **** 
 391:stm32f4xx_sdio.c **** /**
 392:stm32f4xx_sdio.c ****   * @brief  Initializes the SDIO Command according to the specified 
 393:stm32f4xx_sdio.c ****   *         parameters in the SDIO_CmdInitStruct and send the command.
 394:stm32f4xx_sdio.c ****   * @param  SDIO_CmdInitStruct : pointer to a SDIO_CmdInitTypeDef 
 395:stm32f4xx_sdio.c ****   *         structure that contains the configuration information for the SDIO 
 396:stm32f4xx_sdio.c ****   *         command.
 397:stm32f4xx_sdio.c ****   * @retval None
 398:stm32f4xx_sdio.c ****   */
 399:stm32f4xx_sdio.c **** void SDIO_SendCommand(SDIO_CmdInitTypeDef *SDIO_CmdInitStruct)
ARM GAS  /tmp/ccDT7MPS.s 			page 13


 400:stm32f4xx_sdio.c **** {
 278              		.loc 1 400 0
 279              		.cfi_startproc
 280              		@ args = 0, pretend = 0, frame = 0
 281              		@ frame_needed = 0, uses_anonymous_args = 0
 282              	.LVL10:
 401:stm32f4xx_sdio.c ****   uint32_t tmpreg = 0;
 402:stm32f4xx_sdio.c ****   
 403:stm32f4xx_sdio.c ****   /* Check the parameters */
 404:stm32f4xx_sdio.c ****   assert_param(IS_SDIO_CMD_INDEX(SDIO_CmdInitStruct->SDIO_CmdIndex));
 405:stm32f4xx_sdio.c ****   assert_param(IS_SDIO_RESPONSE(SDIO_CmdInitStruct->SDIO_Response));
 406:stm32f4xx_sdio.c ****   assert_param(IS_SDIO_WAIT(SDIO_CmdInitStruct->SDIO_Wait));
 407:stm32f4xx_sdio.c ****   assert_param(IS_SDIO_CPSM(SDIO_CmdInitStruct->SDIO_CPSM));
 408:stm32f4xx_sdio.c ****   
 409:stm32f4xx_sdio.c **** /*---------------------------- SDIO ARG Configuration ------------------------*/
 410:stm32f4xx_sdio.c ****   /* Set the SDIO Argument value */
 411:stm32f4xx_sdio.c ****   SDIO->ARG = SDIO_CmdInitStruct->SDIO_Argument;
 283              		.loc 1 411 0
 284 0000 0268     		ldr	r2, [r0, #0]	@ D.6083, SDIO_CmdInitStruct_3(D)->SDIO_Argument
 285 0002 094B     		ldr	r3, .L16	@ tmp146,
 400:stm32f4xx_sdio.c **** {
 286              		.loc 1 400 0
 287 0004 10B5     		push	{r4, lr}	@
 288              	.LCFI2:
 289              		.cfi_def_cfa_offset 8
 290              		.cfi_offset 4, -8
 291              		.cfi_offset 14, -4
 292              		.loc 1 411 0
 293 0006 9A60     		str	r2, [r3, #8]	@ D.6083, MEM[(struct SDIO_TypeDef *)1073818624B].ARG
 412:stm32f4xx_sdio.c ****   
 413:stm32f4xx_sdio.c **** /*---------------------------- SDIO CMD Configuration ------------------------*/  
 414:stm32f4xx_sdio.c ****   /* Get the SDIO CMD value */
 415:stm32f4xx_sdio.c ****   tmpreg = SDIO->CMD;
 294              		.loc 1 415 0
 295 0008 D968     		ldr	r1, [r3, #12]	@ tmpreg, MEM[(struct SDIO_TypeDef *)1073818624B].CMD
 296              	.LVL11:
 416:stm32f4xx_sdio.c ****   /* Clear CMDINDEX, WAITRESP, WAITINT, WAITPEND, CPSMEN bits */
 417:stm32f4xx_sdio.c ****   tmpreg &= CMD_CLEAR_MASK;
 297              		.loc 1 417 0
 298 000a 21F4FF64 		bic	r4, r1, #2040	@ tmpreg, tmpreg,
 299 000e 24F00702 		bic	r2, r4, #7	@ tmpreg, tmpreg,
 300              	.LVL12:
 418:stm32f4xx_sdio.c ****   /* Set CMDINDEX bits according to SDIO_CmdIndex value */
 419:stm32f4xx_sdio.c ****   /* Set WAITRESP bits according to SDIO_Response value */
 420:stm32f4xx_sdio.c ****   /* Set WAITINT and WAITPEND bits according to SDIO_Wait value */
 421:stm32f4xx_sdio.c ****   /* Set CPSMEN bits according to SDIO_CPSM value */
 422:stm32f4xx_sdio.c ****   tmpreg |= (uint32_t)SDIO_CmdInitStruct->SDIO_CmdIndex | SDIO_CmdInitStruct->SDIO_Response
 301              		.loc 1 422 0
 302 0012 4168     		ldr	r1, [r0, #4]	@ SDIO_CmdInitStruct_3(D)->SDIO_CmdIndex, SDIO_CmdInitStruct_3(D)->SDIO_CmdIndex
 303 0014 8468     		ldr	r4, [r0, #8]	@ SDIO_CmdInitStruct_3(D)->SDIO_Response, SDIO_CmdInitStruct_3(D)->SDIO_Response
 304 0016 0C43     		orrs	r4, r4, r1	@, tmp149, SDIO_CmdInitStruct_3(D)->SDIO_Response, SDIO_CmdInitStruct_3(D)->SDIO_C
 423:stm32f4xx_sdio.c ****            | SDIO_CmdInitStruct->SDIO_Wait | SDIO_CmdInitStruct->SDIO_CPSM;
 305              		.loc 1 423 0
 306 0018 C168     		ldr	r1, [r0, #12]	@ SDIO_CmdInitStruct_3(D)->SDIO_Wait, SDIO_CmdInitStruct_3(D)->SDIO_Wait
 307 001a 0069     		ldr	r0, [r0, #16]	@ SDIO_CmdInitStruct_3(D)->SDIO_CPSM, SDIO_CmdInitStruct_3(D)->SDIO_CPSM
 308              	.LVL13:
 309 001c 2143     		orrs	r1, r1, r4	@, tmp152, SDIO_CmdInitStruct_3(D)->SDIO_Wait, tmp149
ARM GAS  /tmp/ccDT7MPS.s 			page 14


 310 001e 0143     		orrs	r1, r1, r0	@, tmp154, tmp152, SDIO_CmdInitStruct_3(D)->SDIO_CPSM
 422:stm32f4xx_sdio.c ****   tmpreg |= (uint32_t)SDIO_CmdInitStruct->SDIO_CmdIndex | SDIO_CmdInitStruct->SDIO_Response
 311              		.loc 1 422 0
 312 0020 0A43     		orrs	r2, r2, r1	@, tmpreg, tmpreg, tmp154
 313              	.LVL14:
 424:stm32f4xx_sdio.c ****   
 425:stm32f4xx_sdio.c ****   /* Write to SDIO CMD */
 426:stm32f4xx_sdio.c ****   SDIO->CMD = tmpreg;
 314              		.loc 1 426 0
 315 0022 DA60     		str	r2, [r3, #12]	@ tmpreg, MEM[(struct SDIO_TypeDef *)1073818624B].CMD
 316 0024 10BD     		pop	{r4, pc}	@
 317              	.L17:
 318 0026 00BF     		.align	2
 319              	.L16:
 320 0028 002C0140 		.word	1073818624
 321              		.cfi_endproc
 322              	.LFE116:
 323              		.size	SDIO_SendCommand, .-SDIO_SendCommand
 324              		.section	.text.SDIO_CmdStructInit,"ax",%progbits
 325              		.align	1
 326              		.global	SDIO_CmdStructInit
 327              		.thumb
 328              		.thumb_func
 329              		.type	SDIO_CmdStructInit, %function
 330              	SDIO_CmdStructInit:
 331              	.LFB117:
 427:stm32f4xx_sdio.c **** }
 428:stm32f4xx_sdio.c **** 
 429:stm32f4xx_sdio.c **** /**
 430:stm32f4xx_sdio.c ****   * @brief  Fills each SDIO_CmdInitStruct member with its default value.
 431:stm32f4xx_sdio.c ****   * @param  SDIO_CmdInitStruct: pointer to an SDIO_CmdInitTypeDef 
 432:stm32f4xx_sdio.c ****   *         structure which will be initialized.
 433:stm32f4xx_sdio.c ****   * @retval None
 434:stm32f4xx_sdio.c ****   */
 435:stm32f4xx_sdio.c **** void SDIO_CmdStructInit(SDIO_CmdInitTypeDef* SDIO_CmdInitStruct)
 436:stm32f4xx_sdio.c **** {
 332              		.loc 1 436 0
 333              		.cfi_startproc
 334              		@ args = 0, pretend = 0, frame = 0
 335              		@ frame_needed = 0, uses_anonymous_args = 0
 336              		@ link register save eliminated.
 337              	.LVL15:
 437:stm32f4xx_sdio.c ****   /* SDIO_CmdInitStruct members default value */
 438:stm32f4xx_sdio.c ****   SDIO_CmdInitStruct->SDIO_Argument = 0x00;
 338              		.loc 1 438 0
 339 0000 0023     		movs	r3, #0	@ tmp135,
 340 0002 0360     		str	r3, [r0, #0]	@ tmp135, SDIO_CmdInitStruct_1(D)->SDIO_Argument
 439:stm32f4xx_sdio.c ****   SDIO_CmdInitStruct->SDIO_CmdIndex = 0x00;
 341              		.loc 1 439 0
 342 0004 4360     		str	r3, [r0, #4]	@ tmp135, SDIO_CmdInitStruct_1(D)->SDIO_CmdIndex
 440:stm32f4xx_sdio.c ****   SDIO_CmdInitStruct->SDIO_Response = SDIO_Response_No;
 343              		.loc 1 440 0
 344 0006 8360     		str	r3, [r0, #8]	@ tmp135, SDIO_CmdInitStruct_1(D)->SDIO_Response
 441:stm32f4xx_sdio.c ****   SDIO_CmdInitStruct->SDIO_Wait = SDIO_Wait_No;
 345              		.loc 1 441 0
 346 0008 C360     		str	r3, [r0, #12]	@ tmp135, SDIO_CmdInitStruct_1(D)->SDIO_Wait
 442:stm32f4xx_sdio.c ****   SDIO_CmdInitStruct->SDIO_CPSM = SDIO_CPSM_Disable;
ARM GAS  /tmp/ccDT7MPS.s 			page 15


 347              		.loc 1 442 0
 348 000a 0361     		str	r3, [r0, #16]	@ tmp135, SDIO_CmdInitStruct_1(D)->SDIO_CPSM
 349 000c 7047     		bx	lr	@
 350              		.cfi_endproc
 351              	.LFE117:
 352              		.size	SDIO_CmdStructInit, .-SDIO_CmdStructInit
 353              		.section	.text.SDIO_GetCommandResponse,"ax",%progbits
 354              		.align	1
 355              		.global	SDIO_GetCommandResponse
 356              		.thumb
 357              		.thumb_func
 358              		.type	SDIO_GetCommandResponse, %function
 359              	SDIO_GetCommandResponse:
 360              	.LFB118:
 443:stm32f4xx_sdio.c **** }
 444:stm32f4xx_sdio.c **** 
 445:stm32f4xx_sdio.c **** /**
 446:stm32f4xx_sdio.c ****   * @brief  Returns command index of last command for which response received.
 447:stm32f4xx_sdio.c ****   * @param  None
 448:stm32f4xx_sdio.c ****   * @retval Returns the command index of the last command response received.
 449:stm32f4xx_sdio.c ****   */
 450:stm32f4xx_sdio.c **** uint8_t SDIO_GetCommandResponse(void)
 451:stm32f4xx_sdio.c **** {
 361              		.loc 1 451 0
 362              		.cfi_startproc
 363              		@ args = 0, pretend = 0, frame = 0
 364              		@ frame_needed = 0, uses_anonymous_args = 0
 365              		@ link register save eliminated.
 452:stm32f4xx_sdio.c ****   return (uint8_t)(SDIO->RESPCMD);
 366              		.loc 1 452 0
 367 0000 014B     		ldr	r3, .L20	@ tmp137,
 368 0002 1869     		ldr	r0, [r3, #16]	@ D.6080, MEM[(struct SDIO_TypeDef *)1073818624B].RESPCMD
 453:stm32f4xx_sdio.c **** }
 369              		.loc 1 453 0
 370 0004 C0B2     		uxtb	r0, r0	@, D.6080
 371 0006 7047     		bx	lr	@
 372              	.L21:
 373              		.align	2
 374              	.L20:
 375 0008 002C0140 		.word	1073818624
 376              		.cfi_endproc
 377              	.LFE118:
 378              		.size	SDIO_GetCommandResponse, .-SDIO_GetCommandResponse
 379              		.section	.text.SDIO_GetResponse,"ax",%progbits
 380              		.align	1
 381              		.global	SDIO_GetResponse
 382              		.thumb
 383              		.thumb_func
 384              		.type	SDIO_GetResponse, %function
 385              	SDIO_GetResponse:
 386              	.LFB119:
 454:stm32f4xx_sdio.c **** 
 455:stm32f4xx_sdio.c **** /**
 456:stm32f4xx_sdio.c ****   * @brief  Returns response received from the card for the last command.
 457:stm32f4xx_sdio.c ****   * @param  SDIO_RESP: Specifies the SDIO response register. 
 458:stm32f4xx_sdio.c ****   *          This parameter can be one of the following values:
 459:stm32f4xx_sdio.c ****   *            @arg SDIO_RESP1: Response Register 1
ARM GAS  /tmp/ccDT7MPS.s 			page 16


 460:stm32f4xx_sdio.c ****   *            @arg SDIO_RESP2: Response Register 2
 461:stm32f4xx_sdio.c ****   *            @arg SDIO_RESP3: Response Register 3
 462:stm32f4xx_sdio.c ****   *            @arg SDIO_RESP4: Response Register 4
 463:stm32f4xx_sdio.c ****   * @retval The Corresponding response register value.
 464:stm32f4xx_sdio.c ****   */
 465:stm32f4xx_sdio.c **** uint32_t SDIO_GetResponse(uint32_t SDIO_RESP)
 466:stm32f4xx_sdio.c **** {
 387              		.loc 1 466 0
 388              		.cfi_startproc
 389              		@ args = 0, pretend = 0, frame = 8
 390              		@ frame_needed = 0, uses_anonymous_args = 0
 391              		@ link register save eliminated.
 392              	.LVL16:
 467:stm32f4xx_sdio.c ****   __IO uint32_t tmp = 0;
 468:stm32f4xx_sdio.c **** 
 469:stm32f4xx_sdio.c ****   /* Check the parameters */
 470:stm32f4xx_sdio.c ****   assert_param(IS_SDIO_RESP(SDIO_RESP));
 471:stm32f4xx_sdio.c **** 
 472:stm32f4xx_sdio.c ****   tmp = SDIO_RESP_ADDR + SDIO_RESP;
 393              		.loc 1 472 0
 394 0000 0449     		ldr	r1, .L23	@ tmp.0,
 395              	.LVL17:
 466:stm32f4xx_sdio.c **** {
 396              		.loc 1 466 0
 397 0002 82B0     		sub	sp, sp, #8	@,,
 398              	.LCFI3:
 399              		.cfi_def_cfa_offset 8
 400              		.loc 1 472 0
 401 0004 4018     		adds	r0, r0, r1	@ tmp.0, SDIO_RESP, tmp.0
 402              	.LVL18:
 467:stm32f4xx_sdio.c ****   __IO uint32_t tmp = 0;
 403              		.loc 1 467 0
 404 0006 0023     		movs	r3, #0	@ tmp140,
 405 0008 0193     		str	r3, [sp, #4]	@ tmp140, tmp
 406              	.LVL19:
 407              		.loc 1 472 0
 408 000a 0190     		str	r0, [sp, #4]	@ tmp.0, tmp
 473:stm32f4xx_sdio.c ****   
 474:stm32f4xx_sdio.c ****   return (*(__IO uint32_t *) tmp); 
 409              		.loc 1 474 0
 410 000c 019A     		ldr	r2, [sp, #4]	@ tmp.1, tmp
 411 000e 1068     		ldr	r0, [r2, #0]	@ D.6074, *tmp.2_4
 412              	.LVL20:
 475:stm32f4xx_sdio.c **** }
 413              		.loc 1 475 0
 414 0010 02B0     		add	sp, sp, #8	@,,
 415 0012 7047     		bx	lr
 416              	.L24:
 417              		.align	2
 418              	.L23:
 419 0014 142C0140 		.word	1073818644
 420              		.cfi_endproc
 421              	.LFE119:
 422              		.size	SDIO_GetResponse, .-SDIO_GetResponse
 423              		.section	.text.SDIO_DataConfig,"ax",%progbits
 424              		.align	1
 425              		.global	SDIO_DataConfig
ARM GAS  /tmp/ccDT7MPS.s 			page 17


 426              		.thumb
 427              		.thumb_func
 428              		.type	SDIO_DataConfig, %function
 429              	SDIO_DataConfig:
 430              	.LFB120:
 476:stm32f4xx_sdio.c **** 
 477:stm32f4xx_sdio.c **** /**
 478:stm32f4xx_sdio.c ****   * @}
 479:stm32f4xx_sdio.c ****   */
 480:stm32f4xx_sdio.c **** 
 481:stm32f4xx_sdio.c **** /** @defgroup SDIO_Group3 Data path state machine (DPSM) management functions
 482:stm32f4xx_sdio.c ****  *  @brief   Data path state machine (DPSM) management functions
 483:stm32f4xx_sdio.c ****  *
 484:stm32f4xx_sdio.c **** @verbatim   
 485:stm32f4xx_sdio.c ****  ===============================================================================
 486:stm32f4xx_sdio.c ****          ##### Data path state machine (DPSM) management functions #####
 487:stm32f4xx_sdio.c ****  ===============================================================================  
 488:stm32f4xx_sdio.c **** 
 489:stm32f4xx_sdio.c ****   This section provide functions allowing to program and read the Data path 
 490:stm32f4xx_sdio.c ****   state machine (DPSM).
 491:stm32f4xx_sdio.c **** 
 492:stm32f4xx_sdio.c **** @endverbatim
 493:stm32f4xx_sdio.c ****   * @{
 494:stm32f4xx_sdio.c ****   */
 495:stm32f4xx_sdio.c **** 
 496:stm32f4xx_sdio.c **** /**
 497:stm32f4xx_sdio.c ****   * @brief  Initializes the SDIO data path according to the specified 
 498:stm32f4xx_sdio.c ****   *         parameters in the SDIO_DataInitStruct.
 499:stm32f4xx_sdio.c ****   * @param  SDIO_DataInitStruct : pointer to a SDIO_DataInitTypeDef structure 
 500:stm32f4xx_sdio.c ****   *         that contains the configuration information for the SDIO command.
 501:stm32f4xx_sdio.c ****   * @retval None
 502:stm32f4xx_sdio.c ****   */
 503:stm32f4xx_sdio.c **** void SDIO_DataConfig(SDIO_DataInitTypeDef* SDIO_DataInitStruct)
 504:stm32f4xx_sdio.c **** {
 431              		.loc 1 504 0
 432              		.cfi_startproc
 433              		@ args = 0, pretend = 0, frame = 0
 434              		@ frame_needed = 0, uses_anonymous_args = 0
 435              	.LVL21:
 505:stm32f4xx_sdio.c ****   uint32_t tmpreg = 0;
 506:stm32f4xx_sdio.c ****   
 507:stm32f4xx_sdio.c ****   /* Check the parameters */
 508:stm32f4xx_sdio.c ****   assert_param(IS_SDIO_DATA_LENGTH(SDIO_DataInitStruct->SDIO_DataLength));
 509:stm32f4xx_sdio.c ****   assert_param(IS_SDIO_BLOCK_SIZE(SDIO_DataInitStruct->SDIO_DataBlockSize));
 510:stm32f4xx_sdio.c ****   assert_param(IS_SDIO_TRANSFER_DIR(SDIO_DataInitStruct->SDIO_TransferDir));
 511:stm32f4xx_sdio.c ****   assert_param(IS_SDIO_TRANSFER_MODE(SDIO_DataInitStruct->SDIO_TransferMode));
 512:stm32f4xx_sdio.c ****   assert_param(IS_SDIO_DPSM(SDIO_DataInitStruct->SDIO_DPSM));
 513:stm32f4xx_sdio.c **** 
 514:stm32f4xx_sdio.c **** /*---------------------------- SDIO DTIMER Configuration ---------------------*/
 515:stm32f4xx_sdio.c ****   /* Set the SDIO Data TimeOut value */
 516:stm32f4xx_sdio.c ****   SDIO->DTIMER = SDIO_DataInitStruct->SDIO_DataTimeOut;
 436              		.loc 1 516 0
 437 0000 0268     		ldr	r2, [r0, #0]	@ D.6064, SDIO_DataInitStruct_3(D)->SDIO_DataTimeOut
 438 0002 094B     		ldr	r3, .L26	@ tmp147,
 504:stm32f4xx_sdio.c **** {
 439              		.loc 1 504 0
 440 0004 10B5     		push	{r4, lr}	@
ARM GAS  /tmp/ccDT7MPS.s 			page 18


 441              	.LCFI4:
 442              		.cfi_def_cfa_offset 8
 443              		.cfi_offset 4, -8
 444              		.cfi_offset 14, -4
 445              		.loc 1 516 0
 446 0006 5A62     		str	r2, [r3, #36]	@ D.6064, MEM[(struct SDIO_TypeDef *)1073818624B].DTIMER
 517:stm32f4xx_sdio.c **** 
 518:stm32f4xx_sdio.c **** /*---------------------------- SDIO DLEN Configuration -----------------------*/
 519:stm32f4xx_sdio.c ****   /* Set the SDIO DataLength value */
 520:stm32f4xx_sdio.c ****   SDIO->DLEN = SDIO_DataInitStruct->SDIO_DataLength;
 447              		.loc 1 520 0
 448 0008 4168     		ldr	r1, [r0, #4]	@ D.6065, SDIO_DataInitStruct_3(D)->SDIO_DataLength
 449 000a 9962     		str	r1, [r3, #40]	@ D.6065, MEM[(struct SDIO_TypeDef *)1073818624B].DLEN
 521:stm32f4xx_sdio.c **** 
 522:stm32f4xx_sdio.c **** /*---------------------------- SDIO DCTRL Configuration ----------------------*/  
 523:stm32f4xx_sdio.c ****   /* Get the SDIO DCTRL value */
 524:stm32f4xx_sdio.c ****   tmpreg = SDIO->DCTRL;
 525:stm32f4xx_sdio.c ****   /* Clear DEN, DTMODE, DTDIR and DBCKSIZE bits */
 526:stm32f4xx_sdio.c ****   tmpreg &= DCTRL_CLEAR_MASK;
 527:stm32f4xx_sdio.c ****   /* Set DEN bit according to SDIO_DPSM value */
 528:stm32f4xx_sdio.c ****   /* Set DTMODE bit according to SDIO_TransferMode value */
 529:stm32f4xx_sdio.c ****   /* Set DTDIR bit according to SDIO_TransferDir value */
 530:stm32f4xx_sdio.c ****   /* Set DBCKSIZE bits according to SDIO_DataBlockSize value */
 531:stm32f4xx_sdio.c ****   tmpreg |= (uint32_t)SDIO_DataInitStruct->SDIO_DataBlockSize | SDIO_DataInitStruct->SDIO_TransferD
 450              		.loc 1 531 0
 451 000c C268     		ldr	r2, [r0, #12]	@ SDIO_DataInitStruct_3(D)->SDIO_TransferDir, SDIO_DataInitStruct_3(D)->SDIO_Tra
 452 000e 8168     		ldr	r1, [r0, #8]	@ SDIO_DataInitStruct_3(D)->SDIO_DataBlockSize, SDIO_DataInitStruct_3(D)->SDIO_Da
 524:stm32f4xx_sdio.c ****   tmpreg = SDIO->DCTRL;
 453              		.loc 1 524 0
 454 0010 DC6A     		ldr	r4, [r3, #44]	@ tmpreg, MEM[(struct SDIO_TypeDef *)1073818624B].DCTRL
 455              	.LVL22:
 456              		.loc 1 531 0
 457 0012 1143     		orrs	r1, r1, r2	@, tmp150, SDIO_DataInitStruct_3(D)->SDIO_DataBlockSize, SDIO_DataInitStruct_3(D)-
 532:stm32f4xx_sdio.c ****            | SDIO_DataInitStruct->SDIO_TransferMode | SDIO_DataInitStruct->SDIO_DPSM;
 458              		.loc 1 532 0
 459 0014 0269     		ldr	r2, [r0, #16]	@ SDIO_DataInitStruct_3(D)->SDIO_TransferMode, SDIO_DataInitStruct_3(D)->SDIO_Tr
 460 0016 4069     		ldr	r0, [r0, #20]	@ SDIO_DataInitStruct_3(D)->SDIO_DPSM, SDIO_DataInitStruct_3(D)->SDIO_DPSM
 461              	.LVL23:
 462 0018 1143     		orrs	r1, r1, r2	@, tmp153, tmp150, SDIO_DataInitStruct_3(D)->SDIO_TransferMode
 526:stm32f4xx_sdio.c ****   tmpreg &= DCTRL_CLEAR_MASK;
 463              		.loc 1 526 0
 464 001a 24F0F704 		bic	r4, r4, #247	@ tmpreg, tmpreg,
 465              	.LVL24:
 466              		.loc 1 532 0
 467 001e 0143     		orrs	r1, r1, r0	@, tmp155, tmp153, SDIO_DataInitStruct_3(D)->SDIO_DPSM
 531:stm32f4xx_sdio.c ****   tmpreg |= (uint32_t)SDIO_DataInitStruct->SDIO_DataBlockSize | SDIO_DataInitStruct->SDIO_TransferD
 468              		.loc 1 531 0
 469 0020 2143     		orrs	r1, r1, r4	@, tmpreg, tmp155, tmpreg
 470              	.LVL25:
 533:stm32f4xx_sdio.c **** 
 534:stm32f4xx_sdio.c ****   /* Write to SDIO DCTRL */
 535:stm32f4xx_sdio.c ****   SDIO->DCTRL = tmpreg;
 471              		.loc 1 535 0
 472 0022 D962     		str	r1, [r3, #44]	@ tmpreg, MEM[(struct SDIO_TypeDef *)1073818624B].DCTRL
 473 0024 10BD     		pop	{r4, pc}	@
 474              	.L27:
 475 0026 00BF     		.align	2
ARM GAS  /tmp/ccDT7MPS.s 			page 19


 476              	.L26:
 477 0028 002C0140 		.word	1073818624
 478              		.cfi_endproc
 479              	.LFE120:
 480              		.size	SDIO_DataConfig, .-SDIO_DataConfig
 481              		.section	.text.SDIO_DataStructInit,"ax",%progbits
 482              		.align	1
 483              		.global	SDIO_DataStructInit
 484              		.thumb
 485              		.thumb_func
 486              		.type	SDIO_DataStructInit, %function
 487              	SDIO_DataStructInit:
 488              	.LFB121:
 536:stm32f4xx_sdio.c **** }
 537:stm32f4xx_sdio.c **** 
 538:stm32f4xx_sdio.c **** /**
 539:stm32f4xx_sdio.c ****   * @brief  Fills each SDIO_DataInitStruct member with its default value.
 540:stm32f4xx_sdio.c ****   * @param  SDIO_DataInitStruct: pointer to an SDIO_DataInitTypeDef structure 
 541:stm32f4xx_sdio.c ****   *         which will be initialized.
 542:stm32f4xx_sdio.c ****   * @retval None
 543:stm32f4xx_sdio.c ****   */
 544:stm32f4xx_sdio.c **** void SDIO_DataStructInit(SDIO_DataInitTypeDef* SDIO_DataInitStruct)
 545:stm32f4xx_sdio.c **** {
 489              		.loc 1 545 0
 490              		.cfi_startproc
 491              		@ args = 0, pretend = 0, frame = 0
 492              		@ frame_needed = 0, uses_anonymous_args = 0
 493              		@ link register save eliminated.
 494              	.LVL26:
 546:stm32f4xx_sdio.c ****   /* SDIO_DataInitStruct members default value */
 547:stm32f4xx_sdio.c ****   SDIO_DataInitStruct->SDIO_DataTimeOut = 0xFFFFFFFF;
 548:stm32f4xx_sdio.c ****   SDIO_DataInitStruct->SDIO_DataLength = 0x00;
 495              		.loc 1 548 0
 496 0000 0021     		movs	r1, #0	@ tmp136,
 547:stm32f4xx_sdio.c ****   SDIO_DataInitStruct->SDIO_DataTimeOut = 0xFFFFFFFF;
 497              		.loc 1 547 0
 498 0002 4FF0FF33 		mov	r3, #-1	@ tmp135,
 499 0006 0360     		str	r3, [r0, #0]	@ tmp135, SDIO_DataInitStruct_1(D)->SDIO_DataTimeOut
 500              		.loc 1 548 0
 501 0008 4160     		str	r1, [r0, #4]	@ tmp136, SDIO_DataInitStruct_1(D)->SDIO_DataLength
 549:stm32f4xx_sdio.c ****   SDIO_DataInitStruct->SDIO_DataBlockSize = SDIO_DataBlockSize_1b;
 502              		.loc 1 549 0
 503 000a 8160     		str	r1, [r0, #8]	@ tmp136, SDIO_DataInitStruct_1(D)->SDIO_DataBlockSize
 550:stm32f4xx_sdio.c ****   SDIO_DataInitStruct->SDIO_TransferDir = SDIO_TransferDir_ToCard;
 504              		.loc 1 550 0
 505 000c C160     		str	r1, [r0, #12]	@ tmp136, SDIO_DataInitStruct_1(D)->SDIO_TransferDir
 551:stm32f4xx_sdio.c ****   SDIO_DataInitStruct->SDIO_TransferMode = SDIO_TransferMode_Block;  
 506              		.loc 1 551 0
 507 000e 0161     		str	r1, [r0, #16]	@ tmp136, SDIO_DataInitStruct_1(D)->SDIO_TransferMode
 552:stm32f4xx_sdio.c ****   SDIO_DataInitStruct->SDIO_DPSM = SDIO_DPSM_Disable;
 508              		.loc 1 552 0
 509 0010 4161     		str	r1, [r0, #20]	@ tmp136, SDIO_DataInitStruct_1(D)->SDIO_DPSM
 510 0012 7047     		bx	lr	@
 511              		.cfi_endproc
 512              	.LFE121:
 513              		.size	SDIO_DataStructInit, .-SDIO_DataStructInit
 514              		.section	.text.SDIO_GetDataCounter,"ax",%progbits
ARM GAS  /tmp/ccDT7MPS.s 			page 20


 515              		.align	1
 516              		.global	SDIO_GetDataCounter
 517              		.thumb
 518              		.thumb_func
 519              		.type	SDIO_GetDataCounter, %function
 520              	SDIO_GetDataCounter:
 521              	.LFB122:
 553:stm32f4xx_sdio.c **** }
 554:stm32f4xx_sdio.c **** 
 555:stm32f4xx_sdio.c **** /**
 556:stm32f4xx_sdio.c ****   * @brief  Returns number of remaining data bytes to be transferred.
 557:stm32f4xx_sdio.c ****   * @param  None
 558:stm32f4xx_sdio.c ****   * @retval Number of remaining data bytes to be transferred
 559:stm32f4xx_sdio.c ****   */
 560:stm32f4xx_sdio.c **** uint32_t SDIO_GetDataCounter(void)
 561:stm32f4xx_sdio.c **** { 
 522              		.loc 1 561 0
 523              		.cfi_startproc
 524              		@ args = 0, pretend = 0, frame = 0
 525              		@ frame_needed = 0, uses_anonymous_args = 0
 526              		@ link register save eliminated.
 562:stm32f4xx_sdio.c ****   return SDIO->DCOUNT;
 527              		.loc 1 562 0
 528 0000 014B     		ldr	r3, .L30	@ tmp136,
 529 0002 186B     		ldr	r0, [r3, #48]	@ D.6060, MEM[(struct SDIO_TypeDef *)1073818624B].DCOUNT
 563:stm32f4xx_sdio.c **** }
 530              		.loc 1 563 0
 531 0004 7047     		bx	lr	@
 532              	.L31:
 533 0006 00BF     		.align	2
 534              	.L30:
 535 0008 002C0140 		.word	1073818624
 536              		.cfi_endproc
 537              	.LFE122:
 538              		.size	SDIO_GetDataCounter, .-SDIO_GetDataCounter
 539              		.section	.text.SDIO_ReadData,"ax",%progbits
 540              		.align	1
 541              		.global	SDIO_ReadData
 542              		.thumb
 543              		.thumb_func
 544              		.type	SDIO_ReadData, %function
 545              	SDIO_ReadData:
 546              	.LFB123:
 564:stm32f4xx_sdio.c **** 
 565:stm32f4xx_sdio.c **** /**
 566:stm32f4xx_sdio.c ****   * @brief  Read one data word from Rx FIFO.
 567:stm32f4xx_sdio.c ****   * @param  None
 568:stm32f4xx_sdio.c ****   * @retval Data received
 569:stm32f4xx_sdio.c ****   */
 570:stm32f4xx_sdio.c **** uint32_t SDIO_ReadData(void)
 571:stm32f4xx_sdio.c **** { 
 547              		.loc 1 571 0
 548              		.cfi_startproc
 549              		@ args = 0, pretend = 0, frame = 0
 550              		@ frame_needed = 0, uses_anonymous_args = 0
 551              		@ link register save eliminated.
 572:stm32f4xx_sdio.c ****   return SDIO->FIFO;
ARM GAS  /tmp/ccDT7MPS.s 			page 21


 552              		.loc 1 572 0
 553 0000 014B     		ldr	r3, .L33	@ tmp136,
 554 0002 D3F88000 		ldr	r0, [r3, #128]	@ D.6057, MEM[(struct SDIO_TypeDef *)1073818624B].FIFO
 573:stm32f4xx_sdio.c **** }
 555              		.loc 1 573 0
 556 0006 7047     		bx	lr	@
 557              	.L34:
 558              		.align	2
 559              	.L33:
 560 0008 002C0140 		.word	1073818624
 561              		.cfi_endproc
 562              	.LFE123:
 563              		.size	SDIO_ReadData, .-SDIO_ReadData
 564              		.section	.text.SDIO_WriteData,"ax",%progbits
 565              		.align	1
 566              		.global	SDIO_WriteData
 567              		.thumb
 568              		.thumb_func
 569              		.type	SDIO_WriteData, %function
 570              	SDIO_WriteData:
 571              	.LFB124:
 574:stm32f4xx_sdio.c **** 
 575:stm32f4xx_sdio.c **** /**
 576:stm32f4xx_sdio.c ****   * @brief  Write one data word to Tx FIFO.
 577:stm32f4xx_sdio.c ****   * @param  Data: 32-bit data word to write.
 578:stm32f4xx_sdio.c ****   * @retval None
 579:stm32f4xx_sdio.c ****   */
 580:stm32f4xx_sdio.c **** void SDIO_WriteData(uint32_t Data)
 581:stm32f4xx_sdio.c **** { 
 572              		.loc 1 581 0
 573              		.cfi_startproc
 574              		@ args = 0, pretend = 0, frame = 0
 575              		@ frame_needed = 0, uses_anonymous_args = 0
 576              		@ link register save eliminated.
 577              	.LVL27:
 582:stm32f4xx_sdio.c ****   SDIO->FIFO = Data;
 578              		.loc 1 582 0
 579 0000 014B     		ldr	r3, .L36	@ tmp135,
 580 0002 C3F88000 		str	r0, [r3, #128]	@ Data, MEM[(struct SDIO_TypeDef *)1073818624B].FIFO
 581 0006 7047     		bx	lr	@
 582              	.L37:
 583              		.align	2
 584              	.L36:
 585 0008 002C0140 		.word	1073818624
 586              		.cfi_endproc
 587              	.LFE124:
 588              		.size	SDIO_WriteData, .-SDIO_WriteData
 589              		.section	.text.SDIO_GetFIFOCount,"ax",%progbits
 590              		.align	1
 591              		.global	SDIO_GetFIFOCount
 592              		.thumb
 593              		.thumb_func
 594              		.type	SDIO_GetFIFOCount, %function
 595              	SDIO_GetFIFOCount:
 596              	.LFB125:
 583:stm32f4xx_sdio.c **** }
 584:stm32f4xx_sdio.c **** 
ARM GAS  /tmp/ccDT7MPS.s 			page 22


 585:stm32f4xx_sdio.c **** /**
 586:stm32f4xx_sdio.c ****   * @brief  Returns the number of words left to be written to or read from FIFO.	
 587:stm32f4xx_sdio.c ****   * @param  None
 588:stm32f4xx_sdio.c ****   * @retval Remaining number of words.
 589:stm32f4xx_sdio.c ****   */
 590:stm32f4xx_sdio.c **** uint32_t SDIO_GetFIFOCount(void)
 591:stm32f4xx_sdio.c **** { 
 597              		.loc 1 591 0
 598              		.cfi_startproc
 599              		@ args = 0, pretend = 0, frame = 0
 600              		@ frame_needed = 0, uses_anonymous_args = 0
 601              		@ link register save eliminated.
 592:stm32f4xx_sdio.c ****   return SDIO->FIFOCNT;
 602              		.loc 1 592 0
 603 0000 014B     		ldr	r3, .L39	@ tmp136,
 604 0002 986C     		ldr	r0, [r3, #72]	@ D.6053, MEM[(struct SDIO_TypeDef *)1073818624B].FIFOCNT
 593:stm32f4xx_sdio.c **** }
 605              		.loc 1 593 0
 606 0004 7047     		bx	lr	@
 607              	.L40:
 608 0006 00BF     		.align	2
 609              	.L39:
 610 0008 002C0140 		.word	1073818624
 611              		.cfi_endproc
 612              	.LFE125:
 613              		.size	SDIO_GetFIFOCount, .-SDIO_GetFIFOCount
 614              		.section	.text.SDIO_StartSDIOReadWait,"ax",%progbits
 615              		.align	1
 616              		.global	SDIO_StartSDIOReadWait
 617              		.thumb
 618              		.thumb_func
 619              		.type	SDIO_StartSDIOReadWait, %function
 620              	SDIO_StartSDIOReadWait:
 621              	.LFB126:
 594:stm32f4xx_sdio.c **** 
 595:stm32f4xx_sdio.c **** /**
 596:stm32f4xx_sdio.c ****   * @}
 597:stm32f4xx_sdio.c ****   */
 598:stm32f4xx_sdio.c **** 
 599:stm32f4xx_sdio.c **** /** @defgroup SDIO_Group4 SDIO IO Cards mode management functions
 600:stm32f4xx_sdio.c ****  *  @brief   SDIO IO Cards mode management functions
 601:stm32f4xx_sdio.c ****  *
 602:stm32f4xx_sdio.c **** @verbatim   
 603:stm32f4xx_sdio.c ****  ===============================================================================
 604:stm32f4xx_sdio.c ****                ##### SDIO IO Cards mode management functions #####
 605:stm32f4xx_sdio.c ****  ===============================================================================  
 606:stm32f4xx_sdio.c **** 
 607:stm32f4xx_sdio.c ****   This section provide functions allowing to program and read the SDIO IO Cards.
 608:stm32f4xx_sdio.c **** 
 609:stm32f4xx_sdio.c **** @endverbatim
 610:stm32f4xx_sdio.c ****   * @{
 611:stm32f4xx_sdio.c ****   */
 612:stm32f4xx_sdio.c **** 
 613:stm32f4xx_sdio.c **** /**
 614:stm32f4xx_sdio.c ****   * @brief  Starts the SD I/O Read Wait operation.	
 615:stm32f4xx_sdio.c ****   * @param  NewState: new state of the Start SDIO Read Wait operation. 
 616:stm32f4xx_sdio.c ****   *         This parameter can be: ENABLE or DISABLE.
ARM GAS  /tmp/ccDT7MPS.s 			page 23


 617:stm32f4xx_sdio.c ****   * @retval None
 618:stm32f4xx_sdio.c ****   */
 619:stm32f4xx_sdio.c **** void SDIO_StartSDIOReadWait(FunctionalState NewState)
 620:stm32f4xx_sdio.c **** { 
 622              		.loc 1 620 0
 623              		.cfi_startproc
 624              		@ args = 0, pretend = 0, frame = 0
 625              		@ frame_needed = 0, uses_anonymous_args = 0
 626              		@ link register save eliminated.
 627              	.LVL28:
 621:stm32f4xx_sdio.c ****   /* Check the parameters */
 622:stm32f4xx_sdio.c ****   assert_param(IS_FUNCTIONAL_STATE(NewState));
 623:stm32f4xx_sdio.c ****   
 624:stm32f4xx_sdio.c ****   *(__IO uint32_t *) DCTRL_RWSTART_BB = (uint32_t) NewState;
 628              		.loc 1 624 0
 629 0000 014B     		ldr	r3, .L42	@ tmp136,
 630 0002 1860     		str	r0, [r3, #0]	@ NewState, MEM[(volatile uint32_t *)1109755296B]
 631 0004 7047     		bx	lr	@
 632              	.L43:
 633 0006 00BF     		.align	2
 634              	.L42:
 635 0008 A0852542 		.word	1109755296
 636              		.cfi_endproc
 637              	.LFE126:
 638              		.size	SDIO_StartSDIOReadWait, .-SDIO_StartSDIOReadWait
 639              		.section	.text.SDIO_StopSDIOReadWait,"ax",%progbits
 640              		.align	1
 641              		.global	SDIO_StopSDIOReadWait
 642              		.thumb
 643              		.thumb_func
 644              		.type	SDIO_StopSDIOReadWait, %function
 645              	SDIO_StopSDIOReadWait:
 646              	.LFB127:
 625:stm32f4xx_sdio.c **** }
 626:stm32f4xx_sdio.c **** 
 627:stm32f4xx_sdio.c **** /**
 628:stm32f4xx_sdio.c ****   * @brief  Stops the SD I/O Read Wait operation.	
 629:stm32f4xx_sdio.c ****   * @param  NewState: new state of the Stop SDIO Read Wait operation. 
 630:stm32f4xx_sdio.c ****   *         This parameter can be: ENABLE or DISABLE.
 631:stm32f4xx_sdio.c ****   * @retval None
 632:stm32f4xx_sdio.c ****   */
 633:stm32f4xx_sdio.c **** void SDIO_StopSDIOReadWait(FunctionalState NewState)
 634:stm32f4xx_sdio.c **** { 
 647              		.loc 1 634 0
 648              		.cfi_startproc
 649              		@ args = 0, pretend = 0, frame = 0
 650              		@ frame_needed = 0, uses_anonymous_args = 0
 651              		@ link register save eliminated.
 652              	.LVL29:
 635:stm32f4xx_sdio.c ****   /* Check the parameters */
 636:stm32f4xx_sdio.c ****   assert_param(IS_FUNCTIONAL_STATE(NewState));
 637:stm32f4xx_sdio.c ****   
 638:stm32f4xx_sdio.c ****   *(__IO uint32_t *) DCTRL_RWSTOP_BB = (uint32_t) NewState;
 653              		.loc 1 638 0
 654 0000 014B     		ldr	r3, .L45	@ tmp136,
 655 0002 1860     		str	r0, [r3, #0]	@ NewState, MEM[(volatile uint32_t *)1109755300B]
 656 0004 7047     		bx	lr	@
ARM GAS  /tmp/ccDT7MPS.s 			page 24


 657              	.L46:
 658 0006 00BF     		.align	2
 659              	.L45:
 660 0008 A4852542 		.word	1109755300
 661              		.cfi_endproc
 662              	.LFE127:
 663              		.size	SDIO_StopSDIOReadWait, .-SDIO_StopSDIOReadWait
 664              		.section	.text.SDIO_SetSDIOReadWaitMode,"ax",%progbits
 665              		.align	1
 666              		.global	SDIO_SetSDIOReadWaitMode
 667              		.thumb
 668              		.thumb_func
 669              		.type	SDIO_SetSDIOReadWaitMode, %function
 670              	SDIO_SetSDIOReadWaitMode:
 671              	.LFB128:
 639:stm32f4xx_sdio.c **** }
 640:stm32f4xx_sdio.c **** 
 641:stm32f4xx_sdio.c **** /**
 642:stm32f4xx_sdio.c ****   * @brief  Sets one of the two options of inserting read wait interval.
 643:stm32f4xx_sdio.c ****   * @param  SDIO_ReadWaitMode: SD I/O Read Wait operation mode.
 644:stm32f4xx_sdio.c ****   *          This parameter can be:
 645:stm32f4xx_sdio.c ****   *            @arg SDIO_ReadWaitMode_CLK: Read Wait control by stopping SDIOCLK
 646:stm32f4xx_sdio.c ****   *            @arg SDIO_ReadWaitMode_DATA2: Read Wait control using SDIO_DATA2
 647:stm32f4xx_sdio.c ****   * @retval None
 648:stm32f4xx_sdio.c ****   */
 649:stm32f4xx_sdio.c **** void SDIO_SetSDIOReadWaitMode(uint32_t SDIO_ReadWaitMode)
 650:stm32f4xx_sdio.c **** {
 672              		.loc 1 650 0
 673              		.cfi_startproc
 674              		@ args = 0, pretend = 0, frame = 0
 675              		@ frame_needed = 0, uses_anonymous_args = 0
 676              		@ link register save eliminated.
 677              	.LVL30:
 651:stm32f4xx_sdio.c ****   /* Check the parameters */
 652:stm32f4xx_sdio.c ****   assert_param(IS_SDIO_READWAIT_MODE(SDIO_ReadWaitMode));
 653:stm32f4xx_sdio.c ****   
 654:stm32f4xx_sdio.c ****   *(__IO uint32_t *) DCTRL_RWMOD_BB = SDIO_ReadWaitMode;
 678              		.loc 1 654 0
 679 0000 014B     		ldr	r3, .L48	@ tmp135,
 680 0002 1860     		str	r0, [r3, #0]	@ SDIO_ReadWaitMode, MEM[(volatile uint32_t *)1109755304B]
 681 0004 7047     		bx	lr	@
 682              	.L49:
 683 0006 00BF     		.align	2
 684              	.L48:
 685 0008 A8852542 		.word	1109755304
 686              		.cfi_endproc
 687              	.LFE128:
 688              		.size	SDIO_SetSDIOReadWaitMode, .-SDIO_SetSDIOReadWaitMode
 689              		.section	.text.SDIO_SetSDIOOperation,"ax",%progbits
 690              		.align	1
 691              		.global	SDIO_SetSDIOOperation
 692              		.thumb
 693              		.thumb_func
 694              		.type	SDIO_SetSDIOOperation, %function
 695              	SDIO_SetSDIOOperation:
 696              	.LFB129:
 655:stm32f4xx_sdio.c **** }
ARM GAS  /tmp/ccDT7MPS.s 			page 25


 656:stm32f4xx_sdio.c **** 
 657:stm32f4xx_sdio.c **** /**
 658:stm32f4xx_sdio.c ****   * @brief  Enables or disables the SD I/O Mode Operation.
 659:stm32f4xx_sdio.c ****   * @param  NewState: new state of SDIO specific operation. 
 660:stm32f4xx_sdio.c ****   *         This parameter can be: ENABLE or DISABLE.
 661:stm32f4xx_sdio.c ****   * @retval None
 662:stm32f4xx_sdio.c ****   */
 663:stm32f4xx_sdio.c **** void SDIO_SetSDIOOperation(FunctionalState NewState)
 664:stm32f4xx_sdio.c **** { 
 697              		.loc 1 664 0
 698              		.cfi_startproc
 699              		@ args = 0, pretend = 0, frame = 0
 700              		@ frame_needed = 0, uses_anonymous_args = 0
 701              		@ link register save eliminated.
 702              	.LVL31:
 665:stm32f4xx_sdio.c ****   /* Check the parameters */
 666:stm32f4xx_sdio.c ****   assert_param(IS_FUNCTIONAL_STATE(NewState));
 667:stm32f4xx_sdio.c ****   
 668:stm32f4xx_sdio.c ****   *(__IO uint32_t *) DCTRL_SDIOEN_BB = (uint32_t)NewState;
 703              		.loc 1 668 0
 704 0000 014B     		ldr	r3, .L51	@ tmp136,
 705 0002 1860     		str	r0, [r3, #0]	@ NewState, MEM[(volatile uint32_t *)1109755308B]
 706 0004 7047     		bx	lr	@
 707              	.L52:
 708 0006 00BF     		.align	2
 709              	.L51:
 710 0008 AC852542 		.word	1109755308
 711              		.cfi_endproc
 712              	.LFE129:
 713              		.size	SDIO_SetSDIOOperation, .-SDIO_SetSDIOOperation
 714              		.section	.text.SDIO_SendSDIOSuspendCmd,"ax",%progbits
 715              		.align	1
 716              		.global	SDIO_SendSDIOSuspendCmd
 717              		.thumb
 718              		.thumb_func
 719              		.type	SDIO_SendSDIOSuspendCmd, %function
 720              	SDIO_SendSDIOSuspendCmd:
 721              	.LFB130:
 669:stm32f4xx_sdio.c **** }
 670:stm32f4xx_sdio.c **** 
 671:stm32f4xx_sdio.c **** /**
 672:stm32f4xx_sdio.c ****   * @brief  Enables or disables the SD I/O Mode suspend command sending.
 673:stm32f4xx_sdio.c ****   * @param  NewState: new state of the SD I/O Mode suspend command.
 674:stm32f4xx_sdio.c ****   *         This parameter can be: ENABLE or DISABLE.
 675:stm32f4xx_sdio.c ****   * @retval None
 676:stm32f4xx_sdio.c ****   */
 677:stm32f4xx_sdio.c **** void SDIO_SendSDIOSuspendCmd(FunctionalState NewState)
 678:stm32f4xx_sdio.c **** { 
 722              		.loc 1 678 0
 723              		.cfi_startproc
 724              		@ args = 0, pretend = 0, frame = 0
 725              		@ frame_needed = 0, uses_anonymous_args = 0
 726              		@ link register save eliminated.
 727              	.LVL32:
 679:stm32f4xx_sdio.c ****   /* Check the parameters */
 680:stm32f4xx_sdio.c ****   assert_param(IS_FUNCTIONAL_STATE(NewState));
 681:stm32f4xx_sdio.c ****   
ARM GAS  /tmp/ccDT7MPS.s 			page 26


 682:stm32f4xx_sdio.c ****   *(__IO uint32_t *) CMD_SDIOSUSPEND_BB = (uint32_t)NewState;
 728              		.loc 1 682 0
 729 0000 014B     		ldr	r3, .L54	@ tmp136,
 730 0002 1860     		str	r0, [r3, #0]	@ NewState, MEM[(volatile uint32_t *)1109754284B]
 731 0004 7047     		bx	lr	@
 732              	.L55:
 733 0006 00BF     		.align	2
 734              	.L54:
 735 0008 AC812542 		.word	1109754284
 736              		.cfi_endproc
 737              	.LFE130:
 738              		.size	SDIO_SendSDIOSuspendCmd, .-SDIO_SendSDIOSuspendCmd
 739              		.section	.text.SDIO_CommandCompletionCmd,"ax",%progbits
 740              		.align	1
 741              		.global	SDIO_CommandCompletionCmd
 742              		.thumb
 743              		.thumb_func
 744              		.type	SDIO_CommandCompletionCmd, %function
 745              	SDIO_CommandCompletionCmd:
 746              	.LFB131:
 683:stm32f4xx_sdio.c **** }
 684:stm32f4xx_sdio.c **** 
 685:stm32f4xx_sdio.c **** /**
 686:stm32f4xx_sdio.c ****   * @}
 687:stm32f4xx_sdio.c ****   */
 688:stm32f4xx_sdio.c **** 
 689:stm32f4xx_sdio.c **** /** @defgroup SDIO_Group5 CE-ATA mode management functions
 690:stm32f4xx_sdio.c ****  *  @brief   CE-ATA mode management functions
 691:stm32f4xx_sdio.c ****  *
 692:stm32f4xx_sdio.c **** @verbatim   
 693:stm32f4xx_sdio.c ****  ===============================================================================
 694:stm32f4xx_sdio.c ****                   ##### CE-ATA mode management functions #####
 695:stm32f4xx_sdio.c ****  ===============================================================================  
 696:stm32f4xx_sdio.c **** 
 697:stm32f4xx_sdio.c ****   This section provide functions allowing to program and read the CE-ATA card.
 698:stm32f4xx_sdio.c **** 
 699:stm32f4xx_sdio.c **** @endverbatim
 700:stm32f4xx_sdio.c ****   * @{
 701:stm32f4xx_sdio.c ****   */
 702:stm32f4xx_sdio.c **** 
 703:stm32f4xx_sdio.c **** /**
 704:stm32f4xx_sdio.c ****   * @brief  Enables or disables the command completion signal.
 705:stm32f4xx_sdio.c ****   * @param  NewState: new state of command completion signal. 
 706:stm32f4xx_sdio.c ****   *         This parameter can be: ENABLE or DISABLE.
 707:stm32f4xx_sdio.c ****   * @retval None
 708:stm32f4xx_sdio.c ****   */
 709:stm32f4xx_sdio.c **** void SDIO_CommandCompletionCmd(FunctionalState NewState)
 710:stm32f4xx_sdio.c **** { 
 747              		.loc 1 710 0
 748              		.cfi_startproc
 749              		@ args = 0, pretend = 0, frame = 0
 750              		@ frame_needed = 0, uses_anonymous_args = 0
 751              		@ link register save eliminated.
 752              	.LVL33:
 711:stm32f4xx_sdio.c ****   /* Check the parameters */
 712:stm32f4xx_sdio.c ****   assert_param(IS_FUNCTIONAL_STATE(NewState));
 713:stm32f4xx_sdio.c ****   
ARM GAS  /tmp/ccDT7MPS.s 			page 27


 714:stm32f4xx_sdio.c ****   *(__IO uint32_t *) CMD_ENCMDCOMPL_BB = (uint32_t)NewState;
 753              		.loc 1 714 0
 754 0000 014B     		ldr	r3, .L57	@ tmp136,
 755 0002 1860     		str	r0, [r3, #0]	@ NewState, MEM[(volatile uint32_t *)1109754288B]
 756 0004 7047     		bx	lr	@
 757              	.L58:
 758 0006 00BF     		.align	2
 759              	.L57:
 760 0008 B0812542 		.word	1109754288
 761              		.cfi_endproc
 762              	.LFE131:
 763              		.size	SDIO_CommandCompletionCmd, .-SDIO_CommandCompletionCmd
 764              		.section	.text.SDIO_CEATAITCmd,"ax",%progbits
 765              		.align	1
 766              		.global	SDIO_CEATAITCmd
 767              		.thumb
 768              		.thumb_func
 769              		.type	SDIO_CEATAITCmd, %function
 770              	SDIO_CEATAITCmd:
 771              	.LFB132:
 715:stm32f4xx_sdio.c **** }
 716:stm32f4xx_sdio.c **** 
 717:stm32f4xx_sdio.c **** /**
 718:stm32f4xx_sdio.c ****   * @brief  Enables or disables the CE-ATA interrupt.
 719:stm32f4xx_sdio.c ****   * @param  NewState: new state of CE-ATA interrupt. 
 720:stm32f4xx_sdio.c ****   *         This parameter can be: ENABLE or DISABLE.
 721:stm32f4xx_sdio.c ****   * @retval None
 722:stm32f4xx_sdio.c ****   */
 723:stm32f4xx_sdio.c **** void SDIO_CEATAITCmd(FunctionalState NewState)
 724:stm32f4xx_sdio.c **** { 
 772              		.loc 1 724 0
 773              		.cfi_startproc
 774              		@ args = 0, pretend = 0, frame = 0
 775              		@ frame_needed = 0, uses_anonymous_args = 0
 776              		@ link register save eliminated.
 777              	.LVL34:
 725:stm32f4xx_sdio.c ****   /* Check the parameters */
 726:stm32f4xx_sdio.c ****   assert_param(IS_FUNCTIONAL_STATE(NewState));
 727:stm32f4xx_sdio.c ****   
 728:stm32f4xx_sdio.c ****   *(__IO uint32_t *) CMD_NIEN_BB = (uint32_t)((~((uint32_t)NewState)) & ((uint32_t)0x1));
 778              		.loc 1 728 0
 779 0000 00F00100 		and	r0, r0, #1	@ tmp138, NewState,
 780              	.LVL35:
 781 0004 024B     		ldr	r3, .L60	@ tmp141,
 782 0006 80F00101 		eor	r1, r0, #1	@ D.6041, tmp138,
 783 000a 1960     		str	r1, [r3, #0]	@ D.6041, MEM[(volatile uint32_t *)1109754292B]
 784 000c 7047     		bx	lr	@
 785              	.L61:
 786 000e 00BF     		.align	2
 787              	.L60:
 788 0010 B4812542 		.word	1109754292
 789              		.cfi_endproc
 790              	.LFE132:
 791              		.size	SDIO_CEATAITCmd, .-SDIO_CEATAITCmd
 792              		.section	.text.SDIO_SendCEATACmd,"ax",%progbits
 793              		.align	1
 794              		.global	SDIO_SendCEATACmd
ARM GAS  /tmp/ccDT7MPS.s 			page 28


 795              		.thumb
 796              		.thumb_func
 797              		.type	SDIO_SendCEATACmd, %function
 798              	SDIO_SendCEATACmd:
 799              	.LFB133:
 729:stm32f4xx_sdio.c **** }
 730:stm32f4xx_sdio.c **** 
 731:stm32f4xx_sdio.c **** /**
 732:stm32f4xx_sdio.c ****   * @brief  Sends CE-ATA command (CMD61).
 733:stm32f4xx_sdio.c ****   * @param  NewState: new state of CE-ATA command. 
 734:stm32f4xx_sdio.c ****   *         This parameter can be: ENABLE or DISABLE.
 735:stm32f4xx_sdio.c ****   * @retval None
 736:stm32f4xx_sdio.c ****   */
 737:stm32f4xx_sdio.c **** void SDIO_SendCEATACmd(FunctionalState NewState)
 738:stm32f4xx_sdio.c **** { 
 800              		.loc 1 738 0
 801              		.cfi_startproc
 802              		@ args = 0, pretend = 0, frame = 0
 803              		@ frame_needed = 0, uses_anonymous_args = 0
 804              		@ link register save eliminated.
 805              	.LVL36:
 739:stm32f4xx_sdio.c ****   /* Check the parameters */
 740:stm32f4xx_sdio.c ****   assert_param(IS_FUNCTIONAL_STATE(NewState));
 741:stm32f4xx_sdio.c ****   
 742:stm32f4xx_sdio.c ****   *(__IO uint32_t *) CMD_ATACMD_BB = (uint32_t)NewState;
 806              		.loc 1 742 0
 807 0000 014B     		ldr	r3, .L63	@ tmp136,
 808 0002 1860     		str	r0, [r3, #0]	@ NewState, MEM[(volatile uint32_t *)1109754296B]
 809 0004 7047     		bx	lr	@
 810              	.L64:
 811 0006 00BF     		.align	2
 812              	.L63:
 813 0008 B8812542 		.word	1109754296
 814              		.cfi_endproc
 815              	.LFE133:
 816              		.size	SDIO_SendCEATACmd, .-SDIO_SendCEATACmd
 817              		.section	.text.SDIO_DMACmd,"ax",%progbits
 818              		.align	1
 819              		.global	SDIO_DMACmd
 820              		.thumb
 821              		.thumb_func
 822              		.type	SDIO_DMACmd, %function
 823              	SDIO_DMACmd:
 824              	.LFB134:
 743:stm32f4xx_sdio.c **** }
 744:stm32f4xx_sdio.c **** 
 745:stm32f4xx_sdio.c **** /**
 746:stm32f4xx_sdio.c ****   * @}
 747:stm32f4xx_sdio.c ****   */
 748:stm32f4xx_sdio.c **** 
 749:stm32f4xx_sdio.c **** /** @defgroup SDIO_Group6 DMA transfers management functions
 750:stm32f4xx_sdio.c ****  *  @brief   DMA transfers management functions
 751:stm32f4xx_sdio.c ****  *
 752:stm32f4xx_sdio.c **** @verbatim   
 753:stm32f4xx_sdio.c ****  ===============================================================================
 754:stm32f4xx_sdio.c ****                   ##### DMA transfers management functions #####
 755:stm32f4xx_sdio.c ****  ===============================================================================  
ARM GAS  /tmp/ccDT7MPS.s 			page 29


 756:stm32f4xx_sdio.c **** 
 757:stm32f4xx_sdio.c ****   This section provide functions allowing to program SDIO DMA transfer.
 758:stm32f4xx_sdio.c **** 
 759:stm32f4xx_sdio.c **** @endverbatim
 760:stm32f4xx_sdio.c ****   * @{
 761:stm32f4xx_sdio.c ****   */
 762:stm32f4xx_sdio.c **** 
 763:stm32f4xx_sdio.c **** /**
 764:stm32f4xx_sdio.c ****   * @brief  Enables or disables the SDIO DMA request.
 765:stm32f4xx_sdio.c ****   * @param  NewState: new state of the selected SDIO DMA request.
 766:stm32f4xx_sdio.c ****   *          This parameter can be: ENABLE or DISABLE.
 767:stm32f4xx_sdio.c ****   * @retval None
 768:stm32f4xx_sdio.c ****   */
 769:stm32f4xx_sdio.c **** void SDIO_DMACmd(FunctionalState NewState)
 770:stm32f4xx_sdio.c **** {
 825              		.loc 1 770 0
 826              		.cfi_startproc
 827              		@ args = 0, pretend = 0, frame = 0
 828              		@ frame_needed = 0, uses_anonymous_args = 0
 829              		@ link register save eliminated.
 830              	.LVL37:
 771:stm32f4xx_sdio.c ****   /* Check the parameters */
 772:stm32f4xx_sdio.c ****   assert_param(IS_FUNCTIONAL_STATE(NewState));
 773:stm32f4xx_sdio.c ****   
 774:stm32f4xx_sdio.c ****   *(__IO uint32_t *) DCTRL_DMAEN_BB = (uint32_t)NewState;
 831              		.loc 1 774 0
 832 0000 014B     		ldr	r3, .L66	@ tmp136,
 833 0002 1860     		str	r0, [r3, #0]	@ NewState, MEM[(volatile uint32_t *)1109755276B]
 834 0004 7047     		bx	lr	@
 835              	.L67:
 836 0006 00BF     		.align	2
 837              	.L66:
 838 0008 8C852542 		.word	1109755276
 839              		.cfi_endproc
 840              	.LFE134:
 841              		.size	SDIO_DMACmd, .-SDIO_DMACmd
 842              		.section	.text.SDIO_ITConfig,"ax",%progbits
 843              		.align	1
 844              		.global	SDIO_ITConfig
 845              		.thumb
 846              		.thumb_func
 847              		.type	SDIO_ITConfig, %function
 848              	SDIO_ITConfig:
 849              	.LFB135:
 775:stm32f4xx_sdio.c **** }
 776:stm32f4xx_sdio.c **** 
 777:stm32f4xx_sdio.c **** /**
 778:stm32f4xx_sdio.c ****   * @}
 779:stm32f4xx_sdio.c ****   */
 780:stm32f4xx_sdio.c **** 
 781:stm32f4xx_sdio.c **** /** @defgroup SDIO_Group7 Interrupts and flags management functions
 782:stm32f4xx_sdio.c ****  *  @brief   Interrupts and flags management functions  
 783:stm32f4xx_sdio.c ****  *
 784:stm32f4xx_sdio.c **** @verbatim   
 785:stm32f4xx_sdio.c ****  ===============================================================================
 786:stm32f4xx_sdio.c ****               ##### Interrupts and flags management functions #####
 787:stm32f4xx_sdio.c ****  ===============================================================================  
ARM GAS  /tmp/ccDT7MPS.s 			page 30


 788:stm32f4xx_sdio.c **** 
 789:stm32f4xx_sdio.c **** 
 790:stm32f4xx_sdio.c **** @endverbatim
 791:stm32f4xx_sdio.c ****   * @{
 792:stm32f4xx_sdio.c ****   */
 793:stm32f4xx_sdio.c **** 
 794:stm32f4xx_sdio.c **** /**
 795:stm32f4xx_sdio.c ****   * @brief  Enables or disables the SDIO interrupts.
 796:stm32f4xx_sdio.c ****   * @param  SDIO_IT: specifies the SDIO interrupt sources to be enabled or disabled.
 797:stm32f4xx_sdio.c ****   *          This parameter can be one or a combination of the following values:
 798:stm32f4xx_sdio.c ****   *            @arg SDIO_IT_CCRCFAIL: Command response received (CRC check failed) interrupt
 799:stm32f4xx_sdio.c ****   *            @arg SDIO_IT_DCRCFAIL: Data block sent/received (CRC check failed) interrupt
 800:stm32f4xx_sdio.c ****   *            @arg SDIO_IT_CTIMEOUT: Command response timeout interrupt
 801:stm32f4xx_sdio.c ****   *            @arg SDIO_IT_DTIMEOUT: Data timeout interrupt
 802:stm32f4xx_sdio.c ****   *            @arg SDIO_IT_TXUNDERR: Transmit FIFO underrun error interrupt
 803:stm32f4xx_sdio.c ****   *            @arg SDIO_IT_RXOVERR:  Received FIFO overrun error interrupt
 804:stm32f4xx_sdio.c ****   *            @arg SDIO_IT_CMDREND:  Command response received (CRC check passed) interrupt
 805:stm32f4xx_sdio.c ****   *            @arg SDIO_IT_CMDSENT:  Command sent (no response required) interrupt
 806:stm32f4xx_sdio.c ****   *            @arg SDIO_IT_DATAEND:  Data end (data counter, SDIDCOUNT, is zero) interrupt
 807:stm32f4xx_sdio.c ****   *            @arg SDIO_IT_STBITERR: Start bit not detected on all data signals in wide 
 808:stm32f4xx_sdio.c ****   *                                   bus mode interrupt
 809:stm32f4xx_sdio.c ****   *            @arg SDIO_IT_DBCKEND:  Data block sent/received (CRC check passed) interrupt
 810:stm32f4xx_sdio.c ****   *            @arg SDIO_IT_CMDACT:   Command transfer in progress interrupt
 811:stm32f4xx_sdio.c ****   *            @arg SDIO_IT_TXACT:    Data transmit in progress interrupt
 812:stm32f4xx_sdio.c ****   *            @arg SDIO_IT_RXACT:    Data receive in progress interrupt
 813:stm32f4xx_sdio.c ****   *            @arg SDIO_IT_TXFIFOHE: Transmit FIFO Half Empty interrupt
 814:stm32f4xx_sdio.c ****   *            @arg SDIO_IT_RXFIFOHF: Receive FIFO Half Full interrupt
 815:stm32f4xx_sdio.c ****   *            @arg SDIO_IT_TXFIFOF:  Transmit FIFO full interrupt
 816:stm32f4xx_sdio.c ****   *            @arg SDIO_IT_RXFIFOF:  Receive FIFO full interrupt
 817:stm32f4xx_sdio.c ****   *            @arg SDIO_IT_TXFIFOE:  Transmit FIFO empty interrupt
 818:stm32f4xx_sdio.c ****   *            @arg SDIO_IT_RXFIFOE:  Receive FIFO empty interrupt
 819:stm32f4xx_sdio.c ****   *            @arg SDIO_IT_TXDAVL:   Data available in transmit FIFO interrupt
 820:stm32f4xx_sdio.c ****   *            @arg SDIO_IT_RXDAVL:   Data available in receive FIFO interrupt
 821:stm32f4xx_sdio.c ****   *            @arg SDIO_IT_SDIOIT:   SD I/O interrupt received interrupt
 822:stm32f4xx_sdio.c ****   *            @arg SDIO_IT_CEATAEND: CE-ATA command completion signal received for CMD61 interrupt
 823:stm32f4xx_sdio.c ****   * @param  NewState: new state of the specified SDIO interrupts.
 824:stm32f4xx_sdio.c ****   *          This parameter can be: ENABLE or DISABLE.
 825:stm32f4xx_sdio.c ****   * @retval None 
 826:stm32f4xx_sdio.c ****   */
 827:stm32f4xx_sdio.c **** void SDIO_ITConfig(uint32_t SDIO_IT, FunctionalState NewState)
 828:stm32f4xx_sdio.c **** {
 850              		.loc 1 828 0
 851              		.cfi_startproc
 852              		@ args = 0, pretend = 0, frame = 0
 853              		@ frame_needed = 0, uses_anonymous_args = 0
 854              		@ link register save eliminated.
 855              	.LVL38:
 856 0000 044B     		ldr	r3, .L73	@ tmp146,
 829:stm32f4xx_sdio.c ****   /* Check the parameters */
 830:stm32f4xx_sdio.c ****   assert_param(IS_SDIO_IT(SDIO_IT));
 831:stm32f4xx_sdio.c ****   assert_param(IS_FUNCTIONAL_STATE(NewState));
 832:stm32f4xx_sdio.c ****   
 833:stm32f4xx_sdio.c ****   if (NewState != DISABLE)
 834:stm32f4xx_sdio.c ****   {
 835:stm32f4xx_sdio.c ****     /* Enable the SDIO interrupts */
 836:stm32f4xx_sdio.c ****     SDIO->MASK |= SDIO_IT;
 857              		.loc 1 836 0
ARM GAS  /tmp/ccDT7MPS.s 			page 31


 858 0002 DA6B     		ldr	r2, [r3, #60]	@ D.6027,
 833:stm32f4xx_sdio.c ****   if (NewState != DISABLE)
 859              		.loc 1 833 0
 860 0004 09B1     		cbz	r1, .L69	@ NewState,
 861              		.loc 1 836 0
 862 0006 1043     		orrs	r0, r0, r2	@, D.6028, SDIO_IT, D.6027
 863              	.LVL39:
 864 0008 01E0     		b	.L71	@
 865              	.LVL40:
 866              	.L69:
 837:stm32f4xx_sdio.c ****   }
 838:stm32f4xx_sdio.c ****   else
 839:stm32f4xx_sdio.c ****   {
 840:stm32f4xx_sdio.c ****     /* Disable the SDIO interrupts */
 841:stm32f4xx_sdio.c ****     SDIO->MASK &= ~SDIO_IT;
 867              		.loc 1 841 0
 868 000a 22EA0000 		bic	r0, r2, r0	@ D.6032, D.6030, SDIO_IT
 869              	.LVL41:
 870              	.L71:
 871 000e D863     		str	r0, [r3, #60]	@ D.6032,
 872 0010 7047     		bx	lr	@
 873              	.L74:
 874 0012 00BF     		.align	2
 875              	.L73:
 876 0014 002C0140 		.word	1073818624
 877              		.cfi_endproc
 878              	.LFE135:
 879              		.size	SDIO_ITConfig, .-SDIO_ITConfig
 880              		.section	.text.SDIO_GetFlagStatus,"ax",%progbits
 881              		.align	1
 882              		.global	SDIO_GetFlagStatus
 883              		.thumb
 884              		.thumb_func
 885              		.type	SDIO_GetFlagStatus, %function
 886              	SDIO_GetFlagStatus:
 887              	.LFB136:
 842:stm32f4xx_sdio.c ****   } 
 843:stm32f4xx_sdio.c **** }
 844:stm32f4xx_sdio.c **** 
 845:stm32f4xx_sdio.c **** /**
 846:stm32f4xx_sdio.c ****   * @brief  Checks whether the specified SDIO flag is set or not.
 847:stm32f4xx_sdio.c ****   * @param  SDIO_FLAG: specifies the flag to check. 
 848:stm32f4xx_sdio.c ****   *          This parameter can be one of the following values:
 849:stm32f4xx_sdio.c ****   *            @arg SDIO_FLAG_CCRCFAIL: Command response received (CRC check failed)
 850:stm32f4xx_sdio.c ****   *            @arg SDIO_FLAG_DCRCFAIL: Data block sent/received (CRC check failed)
 851:stm32f4xx_sdio.c ****   *            @arg SDIO_FLAG_CTIMEOUT: Command response timeout
 852:stm32f4xx_sdio.c ****   *            @arg SDIO_FLAG_DTIMEOUT: Data timeout
 853:stm32f4xx_sdio.c ****   *            @arg SDIO_FLAG_TXUNDERR: Transmit FIFO underrun error
 854:stm32f4xx_sdio.c ****   *            @arg SDIO_FLAG_RXOVERR:  Received FIFO overrun error
 855:stm32f4xx_sdio.c ****   *            @arg SDIO_FLAG_CMDREND:  Command response received (CRC check passed)
 856:stm32f4xx_sdio.c ****   *            @arg SDIO_FLAG_CMDSENT:  Command sent (no response required)
 857:stm32f4xx_sdio.c ****   *            @arg SDIO_FLAG_DATAEND:  Data end (data counter, SDIDCOUNT, is zero)
 858:stm32f4xx_sdio.c ****   *            @arg SDIO_FLAG_STBITERR: Start bit not detected on all data signals in wide bus mode
 859:stm32f4xx_sdio.c ****   *            @arg SDIO_FLAG_DBCKEND:  Data block sent/received (CRC check passed)
 860:stm32f4xx_sdio.c ****   *            @arg SDIO_FLAG_CMDACT:   Command transfer in progress
 861:stm32f4xx_sdio.c ****   *            @arg SDIO_FLAG_TXACT:    Data transmit in progress
 862:stm32f4xx_sdio.c ****   *            @arg SDIO_FLAG_RXACT:    Data receive in progress
ARM GAS  /tmp/ccDT7MPS.s 			page 32


 863:stm32f4xx_sdio.c ****   *            @arg SDIO_FLAG_TXFIFOHE: Transmit FIFO Half Empty
 864:stm32f4xx_sdio.c ****   *            @arg SDIO_FLAG_RXFIFOHF: Receive FIFO Half Full
 865:stm32f4xx_sdio.c ****   *            @arg SDIO_FLAG_TXFIFOF:  Transmit FIFO full
 866:stm32f4xx_sdio.c ****   *            @arg SDIO_FLAG_RXFIFOF:  Receive FIFO full
 867:stm32f4xx_sdio.c ****   *            @arg SDIO_FLAG_TXFIFOE:  Transmit FIFO empty
 868:stm32f4xx_sdio.c ****   *            @arg SDIO_FLAG_RXFIFOE:  Receive FIFO empty
 869:stm32f4xx_sdio.c ****   *            @arg SDIO_FLAG_TXDAVL:   Data available in transmit FIFO
 870:stm32f4xx_sdio.c ****   *            @arg SDIO_FLAG_RXDAVL:   Data available in receive FIFO
 871:stm32f4xx_sdio.c ****   *            @arg SDIO_FLAG_SDIOIT:   SD I/O interrupt received
 872:stm32f4xx_sdio.c ****   *            @arg SDIO_FLAG_CEATAEND: CE-ATA command completion signal received for CMD61
 873:stm32f4xx_sdio.c ****   * @retval The new state of SDIO_FLAG (SET or RESET).
 874:stm32f4xx_sdio.c ****   */
 875:stm32f4xx_sdio.c **** FlagStatus SDIO_GetFlagStatus(uint32_t SDIO_FLAG)
 876:stm32f4xx_sdio.c **** { 
 888              		.loc 1 876 0
 889              		.cfi_startproc
 890              		@ args = 0, pretend = 0, frame = 0
 891              		@ frame_needed = 0, uses_anonymous_args = 0
 892              		@ link register save eliminated.
 893              	.LVL42:
 877:stm32f4xx_sdio.c ****   FlagStatus bitstatus = RESET;
 878:stm32f4xx_sdio.c ****   
 879:stm32f4xx_sdio.c ****   /* Check the parameters */
 880:stm32f4xx_sdio.c ****   assert_param(IS_SDIO_FLAG(SDIO_FLAG));
 881:stm32f4xx_sdio.c ****   
 882:stm32f4xx_sdio.c ****   if ((SDIO->STA & SDIO_FLAG) != (uint32_t)RESET)
 894              		.loc 1 882 0
 895 0000 034B     		ldr	r3, .L76	@ tmp140,
 896 0002 596B     		ldr	r1, [r3, #52]	@ D.6017, MEM[(struct SDIO_TypeDef *)1073818624B].STA
 897              	.LVL43:
 898 0004 0842     		tst	r0, r1	@ SDIO_FLAG, D.6017
 883:stm32f4xx_sdio.c ****   {
 884:stm32f4xx_sdio.c ****     bitstatus = SET;
 885:stm32f4xx_sdio.c ****   }
 886:stm32f4xx_sdio.c ****   else
 887:stm32f4xx_sdio.c ****   {
 888:stm32f4xx_sdio.c ****     bitstatus = RESET;
 889:stm32f4xx_sdio.c ****   }
 890:stm32f4xx_sdio.c ****   return bitstatus;
 891:stm32f4xx_sdio.c **** }
 899              		.loc 1 891 0
 900 0006 0CBF     		ite	eq	@
 901 0008 0020     		moveq	r0, #0	@,
 902 000a 0120     		movne	r0, #1	@,
 903              	.LVL44:
 904 000c 7047     		bx	lr	@
 905              	.L77:
 906 000e 00BF     		.align	2
 907              	.L76:
 908 0010 002C0140 		.word	1073818624
 909              		.cfi_endproc
 910              	.LFE136:
 911              		.size	SDIO_GetFlagStatus, .-SDIO_GetFlagStatus
 912              		.section	.text.SDIO_ClearFlag,"ax",%progbits
 913              		.align	1
 914              		.global	SDIO_ClearFlag
 915              		.thumb
ARM GAS  /tmp/ccDT7MPS.s 			page 33


 916              		.thumb_func
 917              		.type	SDIO_ClearFlag, %function
 918              	SDIO_ClearFlag:
 919              	.LFB137:
 892:stm32f4xx_sdio.c **** 
 893:stm32f4xx_sdio.c **** /**
 894:stm32f4xx_sdio.c ****   * @brief  Clears the SDIO's pending flags.
 895:stm32f4xx_sdio.c ****   * @param  SDIO_FLAG: specifies the flag to clear.  
 896:stm32f4xx_sdio.c ****   *          This parameter can be one or a combination of the following values:
 897:stm32f4xx_sdio.c ****   *            @arg SDIO_FLAG_CCRCFAIL: Command response received (CRC check failed)
 898:stm32f4xx_sdio.c ****   *            @arg SDIO_FLAG_DCRCFAIL: Data block sent/received (CRC check failed)
 899:stm32f4xx_sdio.c ****   *            @arg SDIO_FLAG_CTIMEOUT: Command response timeout
 900:stm32f4xx_sdio.c ****   *            @arg SDIO_FLAG_DTIMEOUT: Data timeout
 901:stm32f4xx_sdio.c ****   *            @arg SDIO_FLAG_TXUNDERR: Transmit FIFO underrun error
 902:stm32f4xx_sdio.c ****   *            @arg SDIO_FLAG_RXOVERR:  Received FIFO overrun error
 903:stm32f4xx_sdio.c ****   *            @arg SDIO_FLAG_CMDREND:  Command response received (CRC check passed)
 904:stm32f4xx_sdio.c ****   *            @arg SDIO_FLAG_CMDSENT:  Command sent (no response required)
 905:stm32f4xx_sdio.c ****   *            @arg SDIO_FLAG_DATAEND:  Data end (data counter, SDIDCOUNT, is zero)
 906:stm32f4xx_sdio.c ****   *            @arg SDIO_FLAG_STBITERR: Start bit not detected on all data signals in wide bus mode
 907:stm32f4xx_sdio.c ****   *            @arg SDIO_FLAG_DBCKEND:  Data block sent/received (CRC check passed)
 908:stm32f4xx_sdio.c ****   *            @arg SDIO_FLAG_SDIOIT:   SD I/O interrupt received
 909:stm32f4xx_sdio.c ****   *            @arg SDIO_FLAG_CEATAEND: CE-ATA command completion signal received for CMD61
 910:stm32f4xx_sdio.c ****   * @retval None
 911:stm32f4xx_sdio.c ****   */
 912:stm32f4xx_sdio.c **** void SDIO_ClearFlag(uint32_t SDIO_FLAG)
 913:stm32f4xx_sdio.c **** { 
 920              		.loc 1 913 0
 921              		.cfi_startproc
 922              		@ args = 0, pretend = 0, frame = 0
 923              		@ frame_needed = 0, uses_anonymous_args = 0
 924              		@ link register save eliminated.
 925              	.LVL45:
 914:stm32f4xx_sdio.c ****   /* Check the parameters */
 915:stm32f4xx_sdio.c ****   assert_param(IS_SDIO_CLEAR_FLAG(SDIO_FLAG));
 916:stm32f4xx_sdio.c ****    
 917:stm32f4xx_sdio.c ****   SDIO->ICR = SDIO_FLAG;
 926              		.loc 1 917 0
 927 0000 014B     		ldr	r3, .L79	@ tmp135,
 928 0002 9863     		str	r0, [r3, #56]	@ SDIO_FLAG, MEM[(struct SDIO_TypeDef *)1073818624B].ICR
 929 0004 7047     		bx	lr	@
 930              	.L80:
 931 0006 00BF     		.align	2
 932              	.L79:
 933 0008 002C0140 		.word	1073818624
 934              		.cfi_endproc
 935              	.LFE137:
 936              		.size	SDIO_ClearFlag, .-SDIO_ClearFlag
 937              		.section	.text.SDIO_GetITStatus,"ax",%progbits
 938              		.align	1
 939              		.global	SDIO_GetITStatus
 940              		.thumb
 941              		.thumb_func
 942              		.type	SDIO_GetITStatus, %function
 943              	SDIO_GetITStatus:
 944              	.LFB138:
 918:stm32f4xx_sdio.c **** }
 919:stm32f4xx_sdio.c **** 
ARM GAS  /tmp/ccDT7MPS.s 			page 34


 920:stm32f4xx_sdio.c **** /**
 921:stm32f4xx_sdio.c ****   * @brief  Checks whether the specified SDIO interrupt has occurred or not.
 922:stm32f4xx_sdio.c ****   * @param  SDIO_IT: specifies the SDIO interrupt source to check. 
 923:stm32f4xx_sdio.c ****   *          This parameter can be one of the following values:
 924:stm32f4xx_sdio.c ****   *            @arg SDIO_IT_CCRCFAIL: Command response received (CRC check failed) interrupt
 925:stm32f4xx_sdio.c ****   *            @arg SDIO_IT_DCRCFAIL: Data block sent/received (CRC check failed) interrupt
 926:stm32f4xx_sdio.c ****   *            @arg SDIO_IT_CTIMEOUT: Command response timeout interrupt
 927:stm32f4xx_sdio.c ****   *            @arg SDIO_IT_DTIMEOUT: Data timeout interrupt
 928:stm32f4xx_sdio.c ****   *            @arg SDIO_IT_TXUNDERR: Transmit FIFO underrun error interrupt
 929:stm32f4xx_sdio.c ****   *            @arg SDIO_IT_RXOVERR:  Received FIFO overrun error interrupt
 930:stm32f4xx_sdio.c ****   *            @arg SDIO_IT_CMDREND:  Command response received (CRC check passed) interrupt
 931:stm32f4xx_sdio.c ****   *            @arg SDIO_IT_CMDSENT:  Command sent (no response required) interrupt
 932:stm32f4xx_sdio.c ****   *            @arg SDIO_IT_DATAEND:  Data end (data counter, SDIDCOUNT, is zero) interrupt
 933:stm32f4xx_sdio.c ****   *            @arg SDIO_IT_STBITERR: Start bit not detected on all data signals in wide 
 934:stm32f4xx_sdio.c ****   *                                   bus mode interrupt
 935:stm32f4xx_sdio.c ****   *            @arg SDIO_IT_DBCKEND:  Data block sent/received (CRC check passed) interrupt
 936:stm32f4xx_sdio.c ****   *            @arg SDIO_IT_CMDACT:   Command transfer in progress interrupt
 937:stm32f4xx_sdio.c ****   *            @arg SDIO_IT_TXACT:    Data transmit in progress interrupt
 938:stm32f4xx_sdio.c ****   *            @arg SDIO_IT_RXACT:    Data receive in progress interrupt
 939:stm32f4xx_sdio.c ****   *            @arg SDIO_IT_TXFIFOHE: Transmit FIFO Half Empty interrupt
 940:stm32f4xx_sdio.c ****   *            @arg SDIO_IT_RXFIFOHF: Receive FIFO Half Full interrupt
 941:stm32f4xx_sdio.c ****   *            @arg SDIO_IT_TXFIFOF:  Transmit FIFO full interrupt
 942:stm32f4xx_sdio.c ****   *            @arg SDIO_IT_RXFIFOF:  Receive FIFO full interrupt
 943:stm32f4xx_sdio.c ****   *            @arg SDIO_IT_TXFIFOE:  Transmit FIFO empty interrupt
 944:stm32f4xx_sdio.c ****   *            @arg SDIO_IT_RXFIFOE:  Receive FIFO empty interrupt
 945:stm32f4xx_sdio.c ****   *            @arg SDIO_IT_TXDAVL:   Data available in transmit FIFO interrupt
 946:stm32f4xx_sdio.c ****   *            @arg SDIO_IT_RXDAVL:   Data available in receive FIFO interrupt
 947:stm32f4xx_sdio.c ****   *            @arg SDIO_IT_SDIOIT:   SD I/O interrupt received interrupt
 948:stm32f4xx_sdio.c ****   *            @arg SDIO_IT_CEATAEND: CE-ATA command completion signal received for CMD61 interrupt
 949:stm32f4xx_sdio.c ****   * @retval The new state of SDIO_IT (SET or RESET).
 950:stm32f4xx_sdio.c ****   */
 951:stm32f4xx_sdio.c **** ITStatus SDIO_GetITStatus(uint32_t SDIO_IT)
 952:stm32f4xx_sdio.c **** { 
 945              		.loc 1 952 0
 946              		.cfi_startproc
 947              		@ args = 0, pretend = 0, frame = 0
 948              		@ frame_needed = 0, uses_anonymous_args = 0
 949              		@ link register save eliminated.
 950              	.LVL46:
 953:stm32f4xx_sdio.c ****   ITStatus bitstatus = RESET;
 954:stm32f4xx_sdio.c ****   
 955:stm32f4xx_sdio.c ****   /* Check the parameters */
 956:stm32f4xx_sdio.c ****   assert_param(IS_SDIO_GET_IT(SDIO_IT));
 957:stm32f4xx_sdio.c ****   if ((SDIO->STA & SDIO_IT) != (uint32_t)RESET)  
 951              		.loc 1 957 0
 952 0000 034B     		ldr	r3, .L82	@ tmp140,
 953 0002 596B     		ldr	r1, [r3, #52]	@ D.6008, MEM[(struct SDIO_TypeDef *)1073818624B].STA
 954              	.LVL47:
 955 0004 0842     		tst	r0, r1	@ SDIO_IT, D.6008
 958:stm32f4xx_sdio.c ****   {
 959:stm32f4xx_sdio.c ****     bitstatus = SET;
 960:stm32f4xx_sdio.c ****   }
 961:stm32f4xx_sdio.c ****   else
 962:stm32f4xx_sdio.c ****   {
 963:stm32f4xx_sdio.c ****     bitstatus = RESET;
 964:stm32f4xx_sdio.c ****   }
 965:stm32f4xx_sdio.c ****   return bitstatus;
ARM GAS  /tmp/ccDT7MPS.s 			page 35


 966:stm32f4xx_sdio.c **** }
 956              		.loc 1 966 0
 957 0006 0CBF     		ite	eq	@
 958 0008 0020     		moveq	r0, #0	@,
 959 000a 0120     		movne	r0, #1	@,
 960              	.LVL48:
 961 000c 7047     		bx	lr	@
 962              	.L83:
 963 000e 00BF     		.align	2
 964              	.L82:
 965 0010 002C0140 		.word	1073818624
 966              		.cfi_endproc
 967              	.LFE138:
 968              		.size	SDIO_GetITStatus, .-SDIO_GetITStatus
 969              		.section	.text.SDIO_ClearITPendingBit,"ax",%progbits
 970              		.align	1
 971              		.global	SDIO_ClearITPendingBit
 972              		.thumb
 973              		.thumb_func
 974              		.type	SDIO_ClearITPendingBit, %function
 975              	SDIO_ClearITPendingBit:
 976              	.LFB139:
 967:stm32f4xx_sdio.c **** 
 968:stm32f4xx_sdio.c **** /**
 969:stm32f4xx_sdio.c ****   * @brief  Clears the SDIO's interrupt pending bits.
 970:stm32f4xx_sdio.c ****   * @param  SDIO_IT: specifies the interrupt pending bit to clear. 
 971:stm32f4xx_sdio.c ****   *          This parameter can be one or a combination of the following values:
 972:stm32f4xx_sdio.c ****   *            @arg SDIO_IT_CCRCFAIL: Command response received (CRC check failed) interrupt
 973:stm32f4xx_sdio.c ****   *            @arg SDIO_IT_DCRCFAIL: Data block sent/received (CRC check failed) interrupt
 974:stm32f4xx_sdio.c ****   *            @arg SDIO_IT_CTIMEOUT: Command response timeout interrupt
 975:stm32f4xx_sdio.c ****   *            @arg SDIO_IT_DTIMEOUT: Data timeout interrupt
 976:stm32f4xx_sdio.c ****   *            @arg SDIO_IT_TXUNDERR: Transmit FIFO underrun error interrupt
 977:stm32f4xx_sdio.c ****   *            @arg SDIO_IT_RXOVERR:  Received FIFO overrun error interrupt
 978:stm32f4xx_sdio.c ****   *            @arg SDIO_IT_CMDREND:  Command response received (CRC check passed) interrupt
 979:stm32f4xx_sdio.c ****   *            @arg SDIO_IT_CMDSENT:  Command sent (no response required) interrupt
 980:stm32f4xx_sdio.c ****   *            @arg SDIO_IT_DATAEND:  Data end (data counter, SDIO_DCOUNT, is zero) interrupt
 981:stm32f4xx_sdio.c ****   *            @arg SDIO_IT_STBITERR: Start bit not detected on all data signals in wide 
 982:stm32f4xx_sdio.c ****   *                                   bus mode interrupt
 983:stm32f4xx_sdio.c ****   *            @arg SDIO_IT_SDIOIT:   SD I/O interrupt received interrupt
 984:stm32f4xx_sdio.c ****   *            @arg SDIO_IT_CEATAEND: CE-ATA command completion signal received for CMD61
 985:stm32f4xx_sdio.c ****   * @retval None
 986:stm32f4xx_sdio.c ****   */
 987:stm32f4xx_sdio.c **** void SDIO_ClearITPendingBit(uint32_t SDIO_IT)
 988:stm32f4xx_sdio.c **** { 
 977              		.loc 1 988 0
 978              		.cfi_startproc
 979              		@ args = 0, pretend = 0, frame = 0
 980              		@ frame_needed = 0, uses_anonymous_args = 0
 981              		@ link register save eliminated.
 982              	.LVL49:
 989:stm32f4xx_sdio.c ****   /* Check the parameters */
 990:stm32f4xx_sdio.c ****   assert_param(IS_SDIO_CLEAR_IT(SDIO_IT));
 991:stm32f4xx_sdio.c ****    
 992:stm32f4xx_sdio.c ****   SDIO->ICR = SDIO_IT;
 983              		.loc 1 992 0
 984 0000 014B     		ldr	r3, .L85	@ tmp135,
 985 0002 9863     		str	r0, [r3, #56]	@ SDIO_IT, MEM[(struct SDIO_TypeDef *)1073818624B].ICR
ARM GAS  /tmp/ccDT7MPS.s 			page 36


 986 0004 7047     		bx	lr	@
 987              	.L86:
 988 0006 00BF     		.align	2
 989              	.L85:
 990 0008 002C0140 		.word	1073818624
 991              		.cfi_endproc
 992              	.LFE139:
 993              		.size	SDIO_ClearITPendingBit, .-SDIO_ClearITPendingBit
 994              		.text
 995              	.Letext0:
 996              		.file 2 "/usr/bin/../lib/gcc/arm-none-eabi/4.7.4/../../../../arm-none-eabi/include/stdint.h"
 997              		.file 3 "stm32f4xx.h"
 998              		.file 4 "stm32f4xx_sdio.h"
 999              		.file 5 "cmsis/core_cm4.h"
 1000              		.file 6 "stm32f4xx_rcc.h"