ARM GAS  /tmp/ccV8CS10.s 			page 1


   1              		.syntax unified
   2              		.cpu cortex-m4
   3              		.eabi_attribute 27, 3	@ Tag_ABI_HardFP_use
   4              		.eabi_attribute 28, 1	@ Tag_ABI_VFP_args
   5              		.fpu fpv4-sp-d16
   6              		.eabi_attribute 20, 1	@ Tag_ABI_FP_denormal
   7              		.eabi_attribute 21, 1	@ Tag_ABI_FP_exceptions
   8              		.eabi_attribute 23, 3	@ Tag_ABI_FP_number_model
   9              		.eabi_attribute 24, 1	@ Tag_ABI_align8_needed
  10              		.eabi_attribute 25, 1	@ Tag_ABI_align8_preserved
  11              		.eabi_attribute 26, 1	@ Tag_ABI_enum_size
  12              		.eabi_attribute 30, 4	@ Tag_ABI_optimization_goals
  13              		.eabi_attribute 34, 1	@ Tag_CPU_unaligned_access
  14              		.eabi_attribute 18, 4	@ Tag_ABI_PCS_wchar_t
  15              		.file	"system_stm32f4xx.c"
  16              	@ GNU C (GNU Tools for ARM Embedded Processors) version 4.7.4 20130913 (release) [ARM/embedded-4_7-
  17              	@	compiled by GNU C version 4.7.3, GMP version 5.0.5, MPFR version 3.1.1-p2, MPC version 0.9
  18              	@ GGC heuristics: --param ggc-min-expand=100 --param ggc-min-heapsize=131072
  19              	@ options passed:  -I . -I ../ -I cmsis/ -imultilib armv7e-m/fpu
  20              	@ -iprefix /usr/bin/../lib/gcc/arm-none-eabi/4.7.4/
  21              	@ -isysroot /usr/bin/../arm-none-eabi -MD system_stm32f4xx.d
  22              	@ -MF .dep/system_stm32f4xx.o.d -MP -MQ system_stm32f4xx.o
  23              	@ -D__USES_INITFINI__ -D __FPU_USED=1 -D __arm__ -D __ASSEMBLY__
  24              	@ -D USE_STDPERIPH_DRIVER -D STM32F4XX -D HSE_VALUE=8000000
  25              	@ -D __FPU_PRESENT=1 -D __FPU_USED=1 -D STM32F405VG -D USE_USB_OTG_FS
  26              	@ -D RUN_FROM_FLASH=1 system_stm32f4xx.c -mthumb -mcpu=cortex-m4
  27              	@ -mfloat-abi=hard -mfpu=fpv4-sp-d16 -mthumb
  28              	@ -auxbase-strip system_stm32f4xx.o -gdwarf-2 -Os -Wall -Wstrict-prototypes
  29              	@ -std=gnu99 -falign-functions=16 -fno-inline -fomit-frame-pointer
  30              	@ -fverbose-asm -ffunction-sections -fdata-sections
  31              	@ options enabled:  -fauto-inc-dec -fbranch-count-reg -fcaller-saves
  32              	@ -fcombine-stack-adjustments -fcommon -fcompare-elim -fcprop-registers
  33              	@ -fcrossjumping -fcse-follow-jumps -fdata-sections -fdebug-types-section
  34              	@ -fdefer-pop -fdelete-null-pointer-checks -fdevirtualize -fdwarf2-cfi-asm
  35              	@ -fearly-inlining -feliminate-unused-debug-types -fexpensive-optimizations
  36              	@ -fforward-propagate -ffunction-cse -ffunction-sections -fgcse -fgcse-lm
  37              	@ -fgnu-runtime -fguess-branch-probability -fident -fif-conversion
  38              	@ -fif-conversion2 -findirect-inlining -finline-atomics -finline-functions
  39              	@ -finline-functions-called-once -finline-small-functions -fipa-cp
  40              	@ -fipa-profile -fipa-pure-const -fipa-reference -fipa-sra
  41              	@ -fira-share-save-slots -fira-share-spill-slots -fivopts
  42              	@ -fkeep-static-consts -fleading-underscore -fmath-errno -fmerge-constants
  43              	@ -fmerge-debug-strings -fomit-frame-pointer -foptimize-register-move
  44              	@ -foptimize-sibling-calls -fpartial-inlining -fpeephole -fpeephole2
  45              	@ -fprefetch-loop-arrays -freg-struct-return -fregmove -frename-registers
  46              	@ -freorder-blocks -freorder-functions -frerun-cse-after-loop
  47              	@ -fsched-critical-path-heuristic -fsched-dep-count-heuristic
  48              	@ -fsched-group-heuristic -fsched-interblock -fsched-last-insn-heuristic
  49              	@ -fsched-rank-heuristic -fsched-spec -fsched-spec-insn-heuristic
  50              	@ -fsched-stalled-insns-dep -fschedule-insns2 -fsection-anchors
  51              	@ -fshow-column -fshrink-wrap -fsigned-zeros -fsplit-ivs-in-unroller
  52              	@ -fsplit-wide-types -fstrict-aliasing -fstrict-overflow
  53              	@ -fstrict-volatile-bitfields -fthread-jumps -ftoplevel-reorder
  54              	@ -ftrapping-math -ftree-bit-ccp -ftree-builtin-call-dce -ftree-ccp
  55              	@ -ftree-ch -ftree-copy-prop -ftree-copyrename -ftree-cselim -ftree-dce
  56              	@ -ftree-dominator-opts -ftree-dse -ftree-forwprop -ftree-fre
  57              	@ -ftree-loop-if-convert -ftree-loop-im -ftree-loop-ivcanon
ARM GAS  /tmp/ccV8CS10.s 			page 2


  58              	@ -ftree-loop-optimize -ftree-parallelize-loops= -ftree-phiprop -ftree-pre
  59              	@ -ftree-pta -ftree-reassoc -ftree-scev-cprop -ftree-sink
  60              	@ -ftree-slp-vectorize -ftree-sra -ftree-switch-conversion
  61              	@ -ftree-tail-merge -ftree-ter -ftree-vect-loop-version -ftree-vrp
  62              	@ -funit-at-a-time -funroll-loops -fvar-tracking -fvar-tracking-assignments
  63              	@ -fverbose-asm -fweb -fzero-initialized-in-bss -mlittle-endian
  64              	@ -msched-prolog -mthumb -munaligned-access -mvectorize-with-neon-quad
  65              	
  66              		.text
  67              	.Ltext0:
  68              		.cfi_sections	.debug_frame
  69              		.section	.text.SetSysClock,"ax",%progbits
  70              		.align	1
  71              		.thumb
  72              		.thumb_func
  73              		.type	SetSysClock, %function
  74              	SetSysClock:
  75              	.LFB112:
  76              		.file 1 "system_stm32f4xx.c"
   1:system_stm32f4xx.c **** /**
   2:system_stm32f4xx.c ****   ******************************************************************************
   3:system_stm32f4xx.c ****   * @file    system_stm32f4xx.c
   4:system_stm32f4xx.c ****   * @author  MCD Application Team
   5:system_stm32f4xx.c ****   * @version V1.1.0
   6:system_stm32f4xx.c ****   * @date    19-March-2012
   7:system_stm32f4xx.c ****   * @brief   CMSIS Cortex-M4 Device Peripheral Access Layer System Source File.
   8:system_stm32f4xx.c ****   *          This file contains the system clock configuration for STM32F4xx devices,
   9:system_stm32f4xx.c ****   *          and is generated by the clock configuration tool
  10:system_stm32f4xx.c ****   *          stm32f4xx_Clock_Configuration_V1.0.0.xls
  11:system_stm32f4xx.c ****   *             
  12:system_stm32f4xx.c ****   * 1.  This file provides two functions and one global variable to be called from 
  13:system_stm32f4xx.c ****   *     user application:
  14:system_stm32f4xx.c ****   *      - SystemInit(): Setups the system clock (System clock source, PLL Multiplier
  15:system_stm32f4xx.c ****   *                      and Divider factors, AHB/APBx prescalers and Flash settings),
  16:system_stm32f4xx.c ****   *                      depending on the configuration made in the clock xls tool. 
  17:system_stm32f4xx.c ****   *                      This function is called at startup just after reset and 
  18:system_stm32f4xx.c ****   *                      before branch to main program. This call is made inside
  19:system_stm32f4xx.c ****   *                      the "startup_stm32f4xx.s" file.
  20:system_stm32f4xx.c ****   *
  21:system_stm32f4xx.c ****   *      - SystemCoreClock variable: Contains the core clock (HCLK), it can be used
  22:system_stm32f4xx.c ****   *                                  by the user application to setup the SysTick 
  23:system_stm32f4xx.c ****   *                                  timer or configure other parameters.
  24:system_stm32f4xx.c ****   *                                     
  25:system_stm32f4xx.c ****   *      - SystemCoreClockUpdate(): Updates the variable SystemCoreClock and must
  26:system_stm32f4xx.c ****   *                                 be called whenever the core clock is changed
  27:system_stm32f4xx.c ****   *                                 during program execution.
  28:system_stm32f4xx.c ****   *
  29:system_stm32f4xx.c ****   * 2. After each device reset the HSI (16 MHz) is used as system clock source.
  30:system_stm32f4xx.c ****   *    Then SystemInit() function is called, in "startup_stm32f4xx.s" file, to
  31:system_stm32f4xx.c ****   *    configure the system clock before to branch to main program.
  32:system_stm32f4xx.c ****   *
  33:system_stm32f4xx.c ****   * 3. If the system clock source selected by user fails to startup, the SystemInit()
  34:system_stm32f4xx.c ****   *    function will do nothing and HSI still used as system clock source. User can 
  35:system_stm32f4xx.c ****   *    add some code to deal with this issue inside the SetSysClock() function.
  36:system_stm32f4xx.c ****   *
  37:system_stm32f4xx.c ****   * 4. The default value of HSE crystal is set to 8 MHz, refer to "HSE_VALUE" define
  38:system_stm32f4xx.c ****   *    in "stm32f4xx.h" file. When HSE is used as system clock source, directly or
ARM GAS  /tmp/ccV8CS10.s 			page 3


  39:system_stm32f4xx.c ****   *    through PLL, and you are using different crystal you have to adapt the HSE
  40:system_stm32f4xx.c ****   *    value to your own configuration.
  41:system_stm32f4xx.c ****   *
  42:system_stm32f4xx.c ****   * 5. This file configures the system clock as follows:
  43:system_stm32f4xx.c ****   *=============================================================================
  44:system_stm32f4xx.c ****   *=============================================================================
  45:system_stm32f4xx.c ****   *        Supported STM32F4xx device revision    | Rev A
  46:system_stm32f4xx.c ****   *-----------------------------------------------------------------------------
  47:system_stm32f4xx.c ****   *        System Clock source                    | PLL (HSE)
  48:system_stm32f4xx.c ****   *-----------------------------------------------------------------------------
  49:system_stm32f4xx.c ****   *        SYSCLK(Hz)                             | 168000000
  50:system_stm32f4xx.c ****   *-----------------------------------------------------------------------------
  51:system_stm32f4xx.c ****   *        HCLK(Hz)                               | 168000000
  52:system_stm32f4xx.c ****   *-----------------------------------------------------------------------------
  53:system_stm32f4xx.c ****   *        AHB Prescaler                          | 1
  54:system_stm32f4xx.c ****   *-----------------------------------------------------------------------------
  55:system_stm32f4xx.c ****   *        APB1 Prescaler                         | 4
  56:system_stm32f4xx.c ****   *-----------------------------------------------------------------------------
  57:system_stm32f4xx.c ****   *        APB2 Prescaler                         | 2
  58:system_stm32f4xx.c ****   *-----------------------------------------------------------------------------
  59:system_stm32f4xx.c ****   *        HSE Frequency(Hz)                      | 8000000
  60:system_stm32f4xx.c ****   *-----------------------------------------------------------------------------
  61:system_stm32f4xx.c ****   *        PLL_M                                  | 8
  62:system_stm32f4xx.c ****   *-----------------------------------------------------------------------------
  63:system_stm32f4xx.c ****   *        PLL_N                                  | 240
  64:system_stm32f4xx.c ****   *-----------------------------------------------------------------------------
  65:system_stm32f4xx.c ****   *        PLL_P                                  | 2
  66:system_stm32f4xx.c ****   *-----------------------------------------------------------------------------
  67:system_stm32f4xx.c ****   *        PLL_Q                                  | 5
  68:system_stm32f4xx.c ****   *-----------------------------------------------------------------------------
  69:system_stm32f4xx.c ****   *        PLLI2S_N                               | 192
  70:system_stm32f4xx.c ****   *-----------------------------------------------------------------------------
  71:system_stm32f4xx.c ****   *        PLLI2S_R                               | 5
  72:system_stm32f4xx.c ****   *-----------------------------------------------------------------------------
  73:system_stm32f4xx.c ****   *        I2S input clock(Hz)                    | 38400000
  74:system_stm32f4xx.c ****   *-----------------------------------------------------------------------------
  75:system_stm32f4xx.c ****   *        VDD(V)                                 | 3.3
  76:system_stm32f4xx.c ****   *-----------------------------------------------------------------------------
  77:system_stm32f4xx.c ****   *        High Performance mode                  | Enabled
  78:system_stm32f4xx.c ****   *-----------------------------------------------------------------------------
  79:system_stm32f4xx.c ****   *        Flash Latency(WS)                      | 5
  80:system_stm32f4xx.c ****   *-----------------------------------------------------------------------------
  81:system_stm32f4xx.c ****   *        Prefetch Buffer                        | OFF
  82:system_stm32f4xx.c ****   *-----------------------------------------------------------------------------
  83:system_stm32f4xx.c ****   *        Instruction cache                      | ON
  84:system_stm32f4xx.c ****   *-----------------------------------------------------------------------------
  85:system_stm32f4xx.c ****   *        Data cache                             | ON
  86:system_stm32f4xx.c ****   *-----------------------------------------------------------------------------
  87:system_stm32f4xx.c ****   *        Require 48MHz for USB OTG FS,          | Enabled
  88:system_stm32f4xx.c ****   *        SDIO and RNG clock                     |
  89:system_stm32f4xx.c ****   *-----------------------------------------------------------------------------
  90:system_stm32f4xx.c ****   *=============================================================================
  91:system_stm32f4xx.c ****   ****************************************************************************** 
  92:system_stm32f4xx.c ****   * @attention
  93:system_stm32f4xx.c ****   *
  94:system_stm32f4xx.c ****   * <h2><center>&copy; COPYRIGHT 2012 STMicroelectronics</center></h2>
  95:system_stm32f4xx.c ****   *
ARM GAS  /tmp/ccV8CS10.s 			page 4


  96:system_stm32f4xx.c ****   * Licensed under MCD-ST Liberty SW License Agreement V2, (the "License");
  97:system_stm32f4xx.c ****   * You may not use this file except in compliance with the License.
  98:system_stm32f4xx.c ****   * You may obtain a copy of the License at:
  99:system_stm32f4xx.c ****   *
 100:system_stm32f4xx.c ****   *        http://www.st.com/software_license_agreement_liberty_v2
 101:system_stm32f4xx.c ****   *
 102:system_stm32f4xx.c ****   * Unless required by applicable law or agreed to in writing, software
 103:system_stm32f4xx.c ****   * distributed under the License is distributed on an "AS IS" BASIS,
 104:system_stm32f4xx.c ****   * WITHOUT WARRANTIES OR CONDITIONS OF ANY KIND, either express or implied.
 105:system_stm32f4xx.c ****   * See the License for the specific language governing permissions and
 106:system_stm32f4xx.c ****   * limitations under the License.
 107:system_stm32f4xx.c ****   *
 108:system_stm32f4xx.c ****   ******************************************************************************
 109:system_stm32f4xx.c ****   */
 110:system_stm32f4xx.c **** 
 111:system_stm32f4xx.c **** /** @addtogroup CMSIS
 112:system_stm32f4xx.c ****   * @{
 113:system_stm32f4xx.c ****   */
 114:system_stm32f4xx.c **** 
 115:system_stm32f4xx.c **** /** @addtogroup stm32f4xx_system
 116:system_stm32f4xx.c ****   * @{
 117:system_stm32f4xx.c ****   */  
 118:system_stm32f4xx.c ****   
 119:system_stm32f4xx.c **** /** @addtogroup STM32F4xx_System_Private_Includes
 120:system_stm32f4xx.c ****   * @{
 121:system_stm32f4xx.c ****   */
 122:system_stm32f4xx.c **** 
 123:system_stm32f4xx.c **** #include "stm32f4xx.h"
 124:system_stm32f4xx.c **** 
 125:system_stm32f4xx.c **** /**
 126:system_stm32f4xx.c ****   * @}
 127:system_stm32f4xx.c ****   */
 128:system_stm32f4xx.c **** 
 129:system_stm32f4xx.c **** /** @addtogroup STM32F4xx_System_Private_TypesDefinitions
 130:system_stm32f4xx.c ****   * @{
 131:system_stm32f4xx.c ****   */
 132:system_stm32f4xx.c **** 
 133:system_stm32f4xx.c **** /**
 134:system_stm32f4xx.c ****   * @}
 135:system_stm32f4xx.c ****   */
 136:system_stm32f4xx.c **** 
 137:system_stm32f4xx.c **** /** @addtogroup STM32F4xx_System_Private_Defines
 138:system_stm32f4xx.c ****   * @{
 139:system_stm32f4xx.c ****   */
 140:system_stm32f4xx.c **** 
 141:system_stm32f4xx.c **** /************************* Miscellaneous Configuration ************************/
 142:system_stm32f4xx.c **** /*!< Uncomment the following line if you need to use external SRAM mounted
 143:system_stm32f4xx.c ****      on STM324xG_EVAL board as data memory  */
 144:system_stm32f4xx.c **** /* #define DATA_IN_ExtSRAM */
 145:system_stm32f4xx.c **** 
 146:system_stm32f4xx.c **** /*!< Uncomment the following line if you need to relocate your vector Table in
 147:system_stm32f4xx.c ****      Internal SRAM. */
 148:system_stm32f4xx.c **** /* #define VECT_TAB_SRAM */
 149:system_stm32f4xx.c **** #define VECT_TAB_OFFSET  0x00 /*!< Vector Table base offset field. 
 150:system_stm32f4xx.c ****                                    This value must be a multiple of 0x200. */
 151:system_stm32f4xx.c **** /******************************************************************************/
 152:system_stm32f4xx.c **** 
ARM GAS  /tmp/ccV8CS10.s 			page 5


 153:system_stm32f4xx.c **** /************************* PLL Parameters *************************************/
 154:system_stm32f4xx.c **** /* PLL_VCO = (HSE_VALUE or HSI_VALUE / PLL_M) * PLL_N */
 155:system_stm32f4xx.c **** #define PLL_M      8
 156:system_stm32f4xx.c **** #define PLL_N      240
 157:system_stm32f4xx.c **** 
 158:system_stm32f4xx.c **** /* SYSCLK = PLL_VCO / PLL_P */
 159:system_stm32f4xx.c **** #define PLL_P      2
 160:system_stm32f4xx.c **** 
 161:system_stm32f4xx.c **** /* USB OTG FS, SDIO and RNG Clock =  PLL_VCO / PLLQ */
 162:system_stm32f4xx.c **** #define PLL_Q      5
 163:system_stm32f4xx.c **** 
 164:system_stm32f4xx.c **** /* PLLI2S_VCO = (HSE_VALUE Or HSI_VALUE / PLL_M) * PLLI2S_N
 165:system_stm32f4xx.c ****    I2SCLK = PLLI2S_VCO / PLLI2S_R */
 166:system_stm32f4xx.c **** #define PLLI2S_N   192
 167:system_stm32f4xx.c **** #define PLLI2S_R   5
 168:system_stm32f4xx.c **** 
 169:system_stm32f4xx.c **** /******************************************************************************/
 170:system_stm32f4xx.c **** 
 171:system_stm32f4xx.c **** /**
 172:system_stm32f4xx.c ****   * @}
 173:system_stm32f4xx.c ****   */
 174:system_stm32f4xx.c **** 
 175:system_stm32f4xx.c **** /** @addtogroup STM32F4xx_System_Private_Macros
 176:system_stm32f4xx.c ****   * @{
 177:system_stm32f4xx.c ****   */
 178:system_stm32f4xx.c **** 
 179:system_stm32f4xx.c **** /**
 180:system_stm32f4xx.c ****   * @}
 181:system_stm32f4xx.c ****   */
 182:system_stm32f4xx.c **** 
 183:system_stm32f4xx.c **** /** @addtogroup STM32F4xx_System_Private_Variables
 184:system_stm32f4xx.c ****   * @{
 185:system_stm32f4xx.c ****   */
 186:system_stm32f4xx.c **** 
 187:system_stm32f4xx.c ****   uint32_t SystemCoreClock = 120000000;
 188:system_stm32f4xx.c **** 
 189:system_stm32f4xx.c ****   __I uint8_t AHBPrescTable[16] = {0, 0, 0, 0, 0, 0, 0, 0, 1, 2, 3, 4, 6, 7, 8, 9};
 190:system_stm32f4xx.c **** 
 191:system_stm32f4xx.c **** /**
 192:system_stm32f4xx.c ****   * @}
 193:system_stm32f4xx.c ****   */
 194:system_stm32f4xx.c **** 
 195:system_stm32f4xx.c **** /** @addtogroup STM32F4xx_System_Private_FunctionPrototypes
 196:system_stm32f4xx.c ****   * @{
 197:system_stm32f4xx.c ****   */
 198:system_stm32f4xx.c **** 
 199:system_stm32f4xx.c **** static void SetSysClock(void);
 200:system_stm32f4xx.c **** #ifdef DATA_IN_ExtSRAM
 201:system_stm32f4xx.c ****   static void SystemInit_ExtMemCtl(void); 
 202:system_stm32f4xx.c **** #endif /* DATA_IN_ExtSRAM */
 203:system_stm32f4xx.c **** 
 204:system_stm32f4xx.c **** /**
 205:system_stm32f4xx.c ****   * @}
 206:system_stm32f4xx.c ****   */
 207:system_stm32f4xx.c **** 
 208:system_stm32f4xx.c **** /** @addtogroup STM32F4xx_System_Private_Functions
 209:system_stm32f4xx.c ****   * @{
ARM GAS  /tmp/ccV8CS10.s 			page 6


 210:system_stm32f4xx.c ****   */
 211:system_stm32f4xx.c **** 
 212:system_stm32f4xx.c **** /**
 213:system_stm32f4xx.c ****   * @brief  Setup the microcontroller system
 214:system_stm32f4xx.c ****   *         Initialize the Embedded Flash Interface, the PLL and update the 
 215:system_stm32f4xx.c ****   *         SystemFrequency variable.
 216:system_stm32f4xx.c ****   * @param  None
 217:system_stm32f4xx.c ****   * @retval None
 218:system_stm32f4xx.c ****   */
 219:system_stm32f4xx.c **** void SystemInit(void)
 220:system_stm32f4xx.c **** {
 221:system_stm32f4xx.c ****   /* FPU settings ------------------------------------------------------------*/
 222:system_stm32f4xx.c ****   #if (__FPU_PRESENT == 1) && (__FPU_USED == 1)
 223:system_stm32f4xx.c ****     SCB->CPACR |= ((3UL << 10*2)|(3UL << 11*2));  /* set CP10 and CP11 Full Access */
 224:system_stm32f4xx.c ****   #endif
 225:system_stm32f4xx.c **** 
 226:system_stm32f4xx.c ****   /* Reset the RCC clock configuration to the default reset state ------------*/
 227:system_stm32f4xx.c ****   /* Set HSION bit */
 228:system_stm32f4xx.c ****   RCC->CR |= (uint32_t)0x00000001;
 229:system_stm32f4xx.c **** 
 230:system_stm32f4xx.c ****   /* Reset CFGR register */
 231:system_stm32f4xx.c ****   RCC->CFGR = 0x00000000;
 232:system_stm32f4xx.c **** 
 233:system_stm32f4xx.c ****   /* Reset HSEON, CSSON and PLLON bits */
 234:system_stm32f4xx.c ****   RCC->CR &= (uint32_t)0xFEF6FFFF;
 235:system_stm32f4xx.c **** 
 236:system_stm32f4xx.c ****   /* Reset PLLCFGR register */
 237:system_stm32f4xx.c ****   RCC->PLLCFGR = 0x24003010;
 238:system_stm32f4xx.c **** 
 239:system_stm32f4xx.c ****   /* Reset HSEBYP bit */
 240:system_stm32f4xx.c ****   RCC->CR &= (uint32_t)0xFFFBFFFF;
 241:system_stm32f4xx.c **** 
 242:system_stm32f4xx.c ****   /* Disable all interrupts */
 243:system_stm32f4xx.c ****   RCC->CIR = 0x00000000;
 244:system_stm32f4xx.c **** 
 245:system_stm32f4xx.c **** #ifdef DATA_IN_ExtSRAM
 246:system_stm32f4xx.c ****   SystemInit_ExtMemCtl(); 
 247:system_stm32f4xx.c **** #endif /* DATA_IN_ExtSRAM */
 248:system_stm32f4xx.c ****          
 249:system_stm32f4xx.c ****   /* Configure the System clock source, PLL Multiplier and Divider factors, 
 250:system_stm32f4xx.c ****      AHB/APBx prescalers and Flash settings ----------------------------------*/
 251:system_stm32f4xx.c ****   SetSysClock();
 252:system_stm32f4xx.c **** 
 253:system_stm32f4xx.c ****   /* Configure the Vector Table location add offset address ------------------*/
 254:system_stm32f4xx.c **** #ifdef VECT_TAB_SRAM
 255:system_stm32f4xx.c ****   SCB->VTOR = SRAM_BASE | VECT_TAB_OFFSET; /* Vector Table Relocation in Internal SRAM */
 256:system_stm32f4xx.c **** #else
 257:system_stm32f4xx.c ****   SCB->VTOR = FLASH_BASE | VECT_TAB_OFFSET; /* Vector Table Relocation in Internal FLASH */
 258:system_stm32f4xx.c **** #endif
 259:system_stm32f4xx.c **** }
 260:system_stm32f4xx.c **** 
 261:system_stm32f4xx.c **** /**
 262:system_stm32f4xx.c ****    * @brief  Update SystemCoreClock variable according to Clock Register Values.
 263:system_stm32f4xx.c ****   *         The SystemCoreClock variable contains the core clock (HCLK), it can
 264:system_stm32f4xx.c ****   *         be used by the user application to setup the SysTick timer or configure
 265:system_stm32f4xx.c ****   *         other parameters.
 266:system_stm32f4xx.c ****   *           
ARM GAS  /tmp/ccV8CS10.s 			page 7


 267:system_stm32f4xx.c ****   * @note   Each time the core clock (HCLK) changes, this function must be called
 268:system_stm32f4xx.c ****   *         to update SystemCoreClock variable value. Otherwise, any configuration
 269:system_stm32f4xx.c ****   *         based on this variable will be incorrect.         
 270:system_stm32f4xx.c ****   *     
 271:system_stm32f4xx.c ****   * @note   - The system frequency computed by this function is not the real 
 272:system_stm32f4xx.c ****   *           frequency in the chip. It is calculated based on the predefined 
 273:system_stm32f4xx.c ****   *           constant and the selected clock source:
 274:system_stm32f4xx.c ****   *             
 275:system_stm32f4xx.c ****   *           - If SYSCLK source is HSI, SystemCoreClock will contain the HSI_VALUE(*)
 276:system_stm32f4xx.c ****   *                                              
 277:system_stm32f4xx.c ****   *           - If SYSCLK source is HSE, SystemCoreClock will contain the HSE_VALUE(**)
 278:system_stm32f4xx.c ****   *                          
 279:system_stm32f4xx.c ****   *           - If SYSCLK source is PLL, SystemCoreClock will contain the HSE_VALUE(**) 
 280:system_stm32f4xx.c ****   *             or HSI_VALUE(*) multiplied/divided by the PLL factors.
 281:system_stm32f4xx.c ****   *         
 282:system_stm32f4xx.c ****   *         (*) HSI_VALUE is a constant defined in stm32f4xx.h file (default value
 283:system_stm32f4xx.c ****   *             16 MHz) but the real value may vary depending on the variations
 284:system_stm32f4xx.c ****   *             in voltage and temperature.   
 285:system_stm32f4xx.c ****   *    
 286:system_stm32f4xx.c ****   *         (**) HSE_VALUE is a constant defined in stm32f4xx.h file (default value
 287:system_stm32f4xx.c ****   *              25 MHz), user has to ensure that HSE_VALUE is same as the real
 288:system_stm32f4xx.c ****   *              frequency of the crystal used. Otherwise, this function may
 289:system_stm32f4xx.c ****   *              have wrong result.
 290:system_stm32f4xx.c ****   *                
 291:system_stm32f4xx.c ****   *         - The result of this function could be not correct when using fractional
 292:system_stm32f4xx.c ****   *           value for HSE crystal.
 293:system_stm32f4xx.c ****   *     
 294:system_stm32f4xx.c ****   * @param  None
 295:system_stm32f4xx.c ****   * @retval None
 296:system_stm32f4xx.c ****   */
 297:system_stm32f4xx.c **** void SystemCoreClockUpdate(void)
 298:system_stm32f4xx.c **** {
 299:system_stm32f4xx.c ****   uint32_t tmp = 0, pllvco = 0, pllp = 2, pllsource = 0, pllm = 2;
 300:system_stm32f4xx.c ****   
 301:system_stm32f4xx.c ****   /* Get SYSCLK source -------------------------------------------------------*/
 302:system_stm32f4xx.c ****   tmp = RCC->CFGR & RCC_CFGR_SWS;
 303:system_stm32f4xx.c **** 
 304:system_stm32f4xx.c ****   switch (tmp)
 305:system_stm32f4xx.c ****   {
 306:system_stm32f4xx.c ****     case 0x00:  /* HSI used as system clock source */
 307:system_stm32f4xx.c ****       SystemCoreClock = HSI_VALUE;
 308:system_stm32f4xx.c ****       break;
 309:system_stm32f4xx.c ****     case 0x04:  /* HSE used as system clock source */
 310:system_stm32f4xx.c ****       SystemCoreClock = HSE_VALUE;
 311:system_stm32f4xx.c ****       break;
 312:system_stm32f4xx.c ****     case 0x08:  /* PLL used as system clock source */
 313:system_stm32f4xx.c **** 
 314:system_stm32f4xx.c ****       /* PLL_VCO = (HSE_VALUE or HSI_VALUE / PLL_M) * PLL_N
 315:system_stm32f4xx.c ****          SYSCLK = PLL_VCO / PLL_P
 316:system_stm32f4xx.c ****          */    
 317:system_stm32f4xx.c ****       pllsource = (RCC->PLLCFGR & RCC_PLLCFGR_PLLSRC) >> 22;
 318:system_stm32f4xx.c ****       pllm = RCC->PLLCFGR & RCC_PLLCFGR_PLLM;
 319:system_stm32f4xx.c ****       
 320:system_stm32f4xx.c ****       if (pllsource != 0)
 321:system_stm32f4xx.c ****       {
 322:system_stm32f4xx.c ****         /* HSE used as PLL clock source */
 323:system_stm32f4xx.c ****         pllvco = (HSE_VALUE / pllm) * ((RCC->PLLCFGR & RCC_PLLCFGR_PLLN) >> 6);
ARM GAS  /tmp/ccV8CS10.s 			page 8


 324:system_stm32f4xx.c ****       }
 325:system_stm32f4xx.c ****       else
 326:system_stm32f4xx.c ****       {
 327:system_stm32f4xx.c ****         /* HSI used as PLL clock source */
 328:system_stm32f4xx.c ****         pllvco = (HSI_VALUE / pllm) * ((RCC->PLLCFGR & RCC_PLLCFGR_PLLN) >> 6);      
 329:system_stm32f4xx.c ****       }
 330:system_stm32f4xx.c **** 
 331:system_stm32f4xx.c ****       pllp = (((RCC->PLLCFGR & RCC_PLLCFGR_PLLP) >>16) + 1 ) *2;
 332:system_stm32f4xx.c ****       SystemCoreClock = pllvco/pllp;
 333:system_stm32f4xx.c ****       break;
 334:system_stm32f4xx.c ****     default:
 335:system_stm32f4xx.c ****       SystemCoreClock = HSI_VALUE;
 336:system_stm32f4xx.c ****       break;
 337:system_stm32f4xx.c ****   }
 338:system_stm32f4xx.c ****   /* Compute HCLK frequency --------------------------------------------------*/
 339:system_stm32f4xx.c ****   /* Get HCLK prescaler */
 340:system_stm32f4xx.c ****   tmp = AHBPrescTable[((RCC->CFGR & RCC_CFGR_HPRE) >> 4)];
 341:system_stm32f4xx.c ****   /* HCLK frequency */
 342:system_stm32f4xx.c ****   SystemCoreClock >>= tmp;
 343:system_stm32f4xx.c **** }
 344:system_stm32f4xx.c **** 
 345:system_stm32f4xx.c **** /**
 346:system_stm32f4xx.c ****   * @brief  Configures the System clock source, PLL Multiplier and Divider factors, 
 347:system_stm32f4xx.c ****   *         AHB/APBx prescalers and Flash settings
 348:system_stm32f4xx.c ****   * @Note   This function should be called only once the RCC clock configuration  
 349:system_stm32f4xx.c ****   *         is reset to the default reset state (done in SystemInit() function).   
 350:system_stm32f4xx.c ****   * @param  None
 351:system_stm32f4xx.c ****   * @retval None
 352:system_stm32f4xx.c ****   */
 353:system_stm32f4xx.c **** static void SetSysClock(void)
 354:system_stm32f4xx.c **** {
  77              		.loc 1 354 0
  78              		.cfi_startproc
  79              		@ args = 0, pretend = 0, frame = 8
  80              		@ frame_needed = 0, uses_anonymous_args = 0
  81              		@ link register save eliminated.
  82 0000 82B0     		sub	sp, sp, #8	@,,
  83              	.LCFI0:
  84              		.cfi_def_cfa_offset 8
 355:system_stm32f4xx.c **** /******************************************************************************/
 356:system_stm32f4xx.c **** /*            PLL (clocked by HSE) used as System clock source                */
 357:system_stm32f4xx.c **** /******************************************************************************/
 358:system_stm32f4xx.c ****   __IO uint32_t StartUpCounter = 0, HSEStatus = 0;
  85              		.loc 1 358 0
  86 0002 0023     		movs	r3, #0	@ tmp170,
 359:system_stm32f4xx.c ****   
 360:system_stm32f4xx.c ****   /* Enable HSE */
 361:system_stm32f4xx.c ****   RCC->CR |= ((uint32_t)RCC_CR_HSEON);
  87              		.loc 1 361 0
  88 0004 3048     		ldr	r0, .L22	@ tmp172,
 358:system_stm32f4xx.c ****   __IO uint32_t StartUpCounter = 0, HSEStatus = 0;
  89              		.loc 1 358 0
  90 0006 0093     		str	r3, [sp, #0]	@ tmp170, StartUpCounter
  91              	.LVL0:
  92 0008 0193     		str	r3, [sp, #4]	@ tmp170, HSEStatus
  93              	.LVL1:
  94              		.loc 1 361 0
ARM GAS  /tmp/ccV8CS10.s 			page 9


  95 000a 0268     		ldr	r2, [r0, #0]	@ D.5984, MEM[(struct RCC_TypeDef *)1073887232B].CR
  96 000c 42F48031 		orr	r1, r2, #65536	@ D.5985, D.5984,
  97 0010 0160     		str	r1, [r0, #0]	@ D.5985, MEM[(struct RCC_TypeDef *)1073887232B].CR
  98              	.L3:
 362:system_stm32f4xx.c ****  
 363:system_stm32f4xx.c ****   /* Wait till HSE is ready and if Time out is reached exit */
 364:system_stm32f4xx.c ****   do
 365:system_stm32f4xx.c ****   {
 366:system_stm32f4xx.c ****     HSEStatus = RCC->CR & RCC_CR_HSERDY;
  99              		.loc 1 366 0 discriminator 1
 100 0012 2D4B     		ldr	r3, .L22	@ tmp174,
 101 0014 1868     		ldr	r0, [r3, #0]	@ D.5986, MEM[(struct RCC_TypeDef *)1073887232B].CR
 102 0016 00F40032 		and	r2, r0, #131072	@ HSEStatus.4, D.5986,
 103              	.LVL2:
 104 001a 0192     		str	r2, [sp, #4]	@ HSEStatus.4, HSEStatus
 105              	.LVL3:
 367:system_stm32f4xx.c ****     StartUpCounter++;
 106              		.loc 1 367 0 discriminator 1
 107 001c 0099     		ldr	r1, [sp, #0]	@ StartUpCounter.5, StartUpCounter
 108 001e 481C     		adds	r0, r1, #1	@ StartUpCounter.6, StartUpCounter.5,
 109              	.LVL4:
 110 0020 0090     		str	r0, [sp, #0]	@ StartUpCounter.6, StartUpCounter
 111              	.LVL5:
 368:system_stm32f4xx.c ****   } while((HSEStatus == 0) && (StartUpCounter != HSE_STARTUP_TIMEOUT));
 112              		.loc 1 368 0 discriminator 1
 113 0022 019A     		ldr	r2, [sp, #4]	@ HSEStatus.7, HSEStatus
 114              	.LVL6:
 115 0024 1AB9     		cbnz	r2, .L2	@ HSEStatus.7,
 116 0026 0099     		ldr	r1, [sp, #0]	@ StartUpCounter.8, StartUpCounter
 117 0028 B1F5A06F 		cmp	r1, #1280	@ StartUpCounter.8,
 118 002c F1D1     		bne	.L3	@,
 119              	.L2:
 369:system_stm32f4xx.c **** 
 370:system_stm32f4xx.c ****   if ((RCC->CR & RCC_CR_HSERDY) != RESET)
 120              		.loc 1 370 0
 121 002e 1B68     		ldr	r3, [r3, #0]	@ D.5993, MEM[(struct RCC_TypeDef *)1073887232B].CR
 122 0030 13F40030 		ands	r0, r3, #131072	@ tmp176, D.5993,
 371:system_stm32f4xx.c ****   {
 372:system_stm32f4xx.c ****     HSEStatus = (uint32_t)0x01;
 123              		.loc 1 372 0
 124 0034 18BF     		it	ne
 125 0036 0120     		movne	r0, #1	@ tmp177,
 373:system_stm32f4xx.c ****   }
 374:system_stm32f4xx.c ****   else
 375:system_stm32f4xx.c ****   {
 376:system_stm32f4xx.c ****     HSEStatus = (uint32_t)0x00;
 126              		.loc 1 376 0
 127 0038 0190     		str	r0, [sp, #4]	@ tmp176, HSEStatus
 377:system_stm32f4xx.c ****   }
 378:system_stm32f4xx.c **** 
 379:system_stm32f4xx.c ****   if (HSEStatus == (uint32_t)0x01)
 128              		.loc 1 379 0
 129 003a 019A     		ldr	r2, [sp, #4]	@ HSEStatus.9, HSEStatus
 130 003c 012A     		cmp	r2, #1	@ HSEStatus.9,
 131 003e 0CD0     		beq	.L6	@,
 132              	.L10:
 380:system_stm32f4xx.c ****   {
ARM GAS  /tmp/ccV8CS10.s 			page 10


 381:system_stm32f4xx.c ****     /* Enable high performance mode, System frequency up to 168 MHz */
 382:system_stm32f4xx.c ****     RCC->APB1ENR |= RCC_APB1ENR_PWREN;
 383:system_stm32f4xx.c ****     PWR->CR |= PWR_CR_PMODE;  
 384:system_stm32f4xx.c **** 
 385:system_stm32f4xx.c ****     /* HCLK = SYSCLK / 1*/
 386:system_stm32f4xx.c ****     RCC->CFGR |= RCC_CFGR_HPRE_DIV1;
 387:system_stm32f4xx.c ****       
 388:system_stm32f4xx.c ****     /* PCLK2 = HCLK / 2*/
 389:system_stm32f4xx.c ****     RCC->CFGR |= RCC_CFGR_PPRE2_DIV2;
 390:system_stm32f4xx.c ****     
 391:system_stm32f4xx.c ****     /* PCLK1 = HCLK / 4*/
 392:system_stm32f4xx.c ****     RCC->CFGR |= RCC_CFGR_PPRE1_DIV4;
 393:system_stm32f4xx.c **** 
 394:system_stm32f4xx.c ****     /* Configure the main PLL */
 395:system_stm32f4xx.c ****     RCC->PLLCFGR = PLL_M | (PLL_N << 6) | (((PLL_P >> 1) -1) << 16) |
 396:system_stm32f4xx.c ****                    (RCC_PLLCFGR_PLLSRC_HSE) | (PLL_Q << 24);
 397:system_stm32f4xx.c **** 
 398:system_stm32f4xx.c ****     /* Enable the main PLL */
 399:system_stm32f4xx.c ****     RCC->CR |= RCC_CR_PLLON;
 400:system_stm32f4xx.c **** 
 401:system_stm32f4xx.c ****     /* Wait till the main PLL is ready */
 402:system_stm32f4xx.c ****     while((RCC->CR & RCC_CR_PLLRDY) == 0)
 403:system_stm32f4xx.c ****     {
 404:system_stm32f4xx.c ****     }
 405:system_stm32f4xx.c ****    
 406:system_stm32f4xx.c ****     /* Configure Flash prefetch, Instruction cache, Data cache and wait state */
 407:system_stm32f4xx.c ****     FLASH->ACR = FLASH_ACR_ICEN |FLASH_ACR_DCEN |FLASH_ACR_LATENCY_5WS;
 408:system_stm32f4xx.c **** 
 409:system_stm32f4xx.c ****     /* Select the main PLL as system clock source */
 410:system_stm32f4xx.c ****     RCC->CFGR &= (uint32_t)((uint32_t)~(RCC_CFGR_SW));
 411:system_stm32f4xx.c ****     RCC->CFGR |= RCC_CFGR_SW_PLL;
 412:system_stm32f4xx.c **** 
 413:system_stm32f4xx.c ****     /* Wait till the main PLL is used as system clock source */
 414:system_stm32f4xx.c ****     while ((RCC->CFGR & (uint32_t)RCC_CFGR_SWS ) != RCC_CFGR_SWS_PLL);
 415:system_stm32f4xx.c ****     {
 416:system_stm32f4xx.c ****     }
 417:system_stm32f4xx.c ****   }
 418:system_stm32f4xx.c ****   else
 419:system_stm32f4xx.c ****   { /* If HSE fails to start-up, the application will have wrong clock
 420:system_stm32f4xx.c ****          configuration. User can add here some code to deal with this error */
 421:system_stm32f4xx.c ****   }
 422:system_stm32f4xx.c **** 
 423:system_stm32f4xx.c **** /******************************************************************************/
 424:system_stm32f4xx.c **** /*                        I2S clock configuration                             */
 425:system_stm32f4xx.c **** /******************************************************************************/
 426:system_stm32f4xx.c ****   /* PLLI2S clock used as I2S clock source */
 427:system_stm32f4xx.c ****   RCC->CFGR &= ~RCC_CFGR_I2SSRC;
 133              		.loc 1 427 0
 134 0040 2148     		ldr	r0, .L22	@ tmp179,
 428:system_stm32f4xx.c **** 
 429:system_stm32f4xx.c ****   /* Configure PLLI2S */
 430:system_stm32f4xx.c ****   RCC->PLLI2SCFGR = (PLLI2S_N << 6) | (PLLI2S_R << 28);
 135              		.loc 1 430 0
 136 0042 224B     		ldr	r3, .L22+4	@ tmp182,
 427:system_stm32f4xx.c ****   RCC->CFGR &= ~RCC_CFGR_I2SSRC;
 137              		.loc 1 427 0
 138 0044 8268     		ldr	r2, [r0, #8]	@ D.6023, MEM[(struct RCC_TypeDef *)1073887232B].CFGR
ARM GAS  /tmp/ccV8CS10.s 			page 11


 139 0046 22F40001 		bic	r1, r2, #8388608	@ D.6024, D.6023,
 140 004a 8160     		str	r1, [r0, #8]	@ D.6024, MEM[(struct RCC_TypeDef *)1073887232B].CFGR
 141              		.loc 1 430 0
 142 004c C0F88430 		str	r3, [r0, #132]	@ tmp182, MEM[(struct RCC_TypeDef *)1073887232B].PLLI2SCFGR
 431:system_stm32f4xx.c **** 
 432:system_stm32f4xx.c ****   /* Enable PLLI2S */
 433:system_stm32f4xx.c ****   RCC->CR |= ((uint32_t)RCC_CR_PLLI2SON);
 143              		.loc 1 433 0
 144 0050 0268     		ldr	r2, [r0, #0]	@ D.6025, MEM[(struct RCC_TypeDef *)1073887232B].CR
 145 0052 42F08061 		orr	r1, r2, #67108864	@ D.6026, D.6025,
 146 0056 0160     		str	r1, [r0, #0]	@ D.6026, MEM[(struct RCC_TypeDef *)1073887232B].CR
 434:system_stm32f4xx.c **** 
 435:system_stm32f4xx.c ****   /* Wait till PLLI2S is ready */
 436:system_stm32f4xx.c ****   while((RCC->CR & RCC_CR_PLLI2SRDY) == 0)
 147              		.loc 1 436 0
 148 0058 30E0     		b	.L7	@
 149              	.L6:
 382:system_stm32f4xx.c ****     RCC->APB1ENR |= RCC_APB1ENR_PWREN;
 150              		.loc 1 382 0
 151 005a 1B4B     		ldr	r3, .L22	@ tmp185,
 383:system_stm32f4xx.c ****     PWR->CR |= PWR_CR_PMODE;  
 152              		.loc 1 383 0
 153 005c 1C4A     		ldr	r2, .L22+8	@ tmp187,
 382:system_stm32f4xx.c ****     RCC->APB1ENR |= RCC_APB1ENR_PWREN;
 154              		.loc 1 382 0
 155 005e 196C     		ldr	r1, [r3, #64]	@ D.6001, MEM[(struct RCC_TypeDef *)1073887232B].APB1ENR
 156 0060 41F08050 		orr	r0, r1, #268435456	@ D.6002, D.6001,
 157 0064 1864     		str	r0, [r3, #64]	@ D.6002, MEM[(struct RCC_TypeDef *)1073887232B].APB1ENR
 383:system_stm32f4xx.c ****     PWR->CR |= PWR_CR_PMODE;  
 158              		.loc 1 383 0
 159 0066 1168     		ldr	r1, [r2, #0]	@ D.6004, MEM[(struct PWR_TypeDef *)1073770496B].CR
 160 0068 41F48040 		orr	r0, r1, #16384	@ D.6005, D.6004,
 161 006c 1060     		str	r0, [r2, #0]	@ D.6005, MEM[(struct PWR_TypeDef *)1073770496B].CR
 386:system_stm32f4xx.c ****     RCC->CFGR |= RCC_CFGR_HPRE_DIV1;
 162              		.loc 1 386 0
 163 006e 9A68     		ldr	r2, [r3, #8]	@ D.6006, MEM[(struct RCC_TypeDef *)1073887232B].CFGR
 164 0070 9A60     		str	r2, [r3, #8]	@ D.6006, MEM[(struct RCC_TypeDef *)1073887232B].CFGR
 389:system_stm32f4xx.c ****     RCC->CFGR |= RCC_CFGR_PPRE2_DIV2;
 165              		.loc 1 389 0
 166 0072 9968     		ldr	r1, [r3, #8]	@ D.6007, MEM[(struct RCC_TypeDef *)1073887232B].CFGR
 167 0074 41F40040 		orr	r0, r1, #32768	@ D.6008, D.6007,
 168 0078 9860     		str	r0, [r3, #8]	@ D.6008, MEM[(struct RCC_TypeDef *)1073887232B].CFGR
 392:system_stm32f4xx.c ****     RCC->CFGR |= RCC_CFGR_PPRE1_DIV4;
 169              		.loc 1 392 0
 170 007a 9A68     		ldr	r2, [r3, #8]	@ D.6009, MEM[(struct RCC_TypeDef *)1073887232B].CFGR
 395:system_stm32f4xx.c ****     RCC->PLLCFGR = PLL_M | (PLL_N << 6) | (((PLL_P >> 1) -1) << 16) |
 171              		.loc 1 395 0
 172 007c 1548     		ldr	r0, .L22+12	@ tmp196,
 392:system_stm32f4xx.c ****     RCC->CFGR |= RCC_CFGR_PPRE1_DIV4;
 173              		.loc 1 392 0
 174 007e 42F4A051 		orr	r1, r2, #5120	@ D.6010, D.6009,
 175 0082 9960     		str	r1, [r3, #8]	@ D.6010, MEM[(struct RCC_TypeDef *)1073887232B].CFGR
 395:system_stm32f4xx.c ****     RCC->PLLCFGR = PLL_M | (PLL_N << 6) | (((PLL_P >> 1) -1) << 16) |
 176              		.loc 1 395 0
 177 0084 5860     		str	r0, [r3, #4]	@ tmp196, MEM[(struct RCC_TypeDef *)1073887232B].PLLCFGR
 399:system_stm32f4xx.c ****     RCC->CR |= RCC_CR_PLLON;
 178              		.loc 1 399 0
ARM GAS  /tmp/ccV8CS10.s 			page 12


 179 0086 1A68     		ldr	r2, [r3, #0]	@ D.6011, MEM[(struct RCC_TypeDef *)1073887232B].CR
 180 0088 42F08071 		orr	r1, r2, #16777216	@ D.6012, D.6011,
 181 008c 1960     		str	r1, [r3, #0]	@ D.6012, MEM[(struct RCC_TypeDef *)1073887232B].CR
 182              	.L8:
 402:system_stm32f4xx.c ****     while((RCC->CR & RCC_CR_PLLRDY) == 0)
 183              		.loc 1 402 0 discriminator 1
 184 008e 1A68     		ldr	r2, [r3, #0]	@ D.6013, MEM[(struct RCC_TypeDef *)1073887232B].CR
 185 0090 0D48     		ldr	r0, .L22	@ tmp199,
 186 0092 9101     		lsls	r1, r2, #6	@, D.6013,
 187 0094 FBD5     		bpl	.L8	@,
 407:system_stm32f4xx.c ****     FLASH->ACR = FLASH_ACR_ICEN |FLASH_ACR_DCEN |FLASH_ACR_LATENCY_5WS;
 188              		.loc 1 407 0
 189 0096 104B     		ldr	r3, .L22+16	@ tmp201,
 190 0098 40F20561 		movw	r1, #1541	@ tmp202,
 191 009c 1960     		str	r1, [r3, #0]	@ tmp202, MEM[(struct FLASH_TypeDef *)1073888256B].ACR
 410:system_stm32f4xx.c ****     RCC->CFGR &= (uint32_t)((uint32_t)~(RCC_CFGR_SW));
 192              		.loc 1 410 0
 193 009e 8268     		ldr	r2, [r0, #8]	@ D.6016, MEM[(struct RCC_TypeDef *)1073887232B].CFGR
 194 00a0 22F00301 		bic	r1, r2, #3	@ D.6017, D.6016,
 195 00a4 8160     		str	r1, [r0, #8]	@ D.6017, MEM[(struct RCC_TypeDef *)1073887232B].CFGR
 411:system_stm32f4xx.c ****     RCC->CFGR |= RCC_CFGR_SW_PLL;
 196              		.loc 1 411 0
 197 00a6 8368     		ldr	r3, [r0, #8]	@ D.6018, MEM[(struct RCC_TypeDef *)1073887232B].CFGR
 198 00a8 43F00202 		orr	r2, r3, #2	@ D.6019, D.6018,
 199 00ac 8260     		str	r2, [r0, #8]	@ D.6019, MEM[(struct RCC_TypeDef *)1073887232B].CFGR
 200              	.L9:
 414:system_stm32f4xx.c ****     while ((RCC->CFGR & (uint32_t)RCC_CFGR_SWS ) != RCC_CFGR_SWS_PLL);
 201              		.loc 1 414 0 discriminator 1
 202 00ae 0648     		ldr	r0, .L22	@ tmp207,
 203 00b0 8168     		ldr	r1, [r0, #8]	@ D.6020, MEM[(struct RCC_TypeDef *)1073887232B].CFGR
 204 00b2 01F00C03 		and	r3, r1, #12	@ tmp208, D.6020,
 205 00b6 082B     		cmp	r3, #8	@ tmp208,
 206 00b8 F9D1     		bne	.L9	@,
 207 00ba C1E7     		b	.L10	@
 208              	.L7:
 209              		.loc 1 436 0 discriminator 1
 210 00bc 0368     		ldr	r3, [r0, #0]	@ D.6027, MEM[(struct RCC_TypeDef *)1073887232B].CR
 211 00be 1A01     		lsls	r2, r3, #4	@, D.6027,
 212 00c0 FCD5     		bpl	.L7	@,
 437:system_stm32f4xx.c ****   {
 438:system_stm32f4xx.c ****   }
 439:system_stm32f4xx.c **** }
 213              		.loc 1 439 0
 214 00c2 02B0     		add	sp, sp, #8	@,,
 215 00c4 7047     		bx	lr
 216              	.L23:
 217 00c6 00BF     		.align	2
 218              	.L22:
 219 00c8 00380240 		.word	1073887232
 220 00cc 00300050 		.word	1342189568
 221 00d0 00700040 		.word	1073770496
 222 00d4 083C4005 		.word	88095752
 223 00d8 003C0240 		.word	1073888256
 224              		.cfi_endproc
 225              	.LFE112:
 226              		.size	SetSysClock, .-SetSysClock
 227              		.section	.text.SystemInit,"ax",%progbits
ARM GAS  /tmp/ccV8CS10.s 			page 13


 228              		.align	1
 229              		.global	SystemInit
 230              		.thumb
 231              		.thumb_func
 232              		.type	SystemInit, %function
 233              	SystemInit:
 234              	.LFB110:
 220:system_stm32f4xx.c **** {
 235              		.loc 1 220 0
 236              		.cfi_startproc
 237              		@ args = 0, pretend = 0, frame = 0
 238              		@ frame_needed = 0, uses_anonymous_args = 0
 239 0000 10B5     		push	{r4, lr}	@
 240              	.LCFI1:
 241              		.cfi_def_cfa_offset 8
 242              		.cfi_offset 4, -8
 243              		.cfi_offset 14, -4
 223:system_stm32f4xx.c ****     SCB->CPACR |= ((3UL << 10*2)|(3UL << 11*2));  /* set CP10 and CP11 Full Access */
 244              		.loc 1 223 0
 245 0002 104C     		ldr	r4, .L25	@ tmp142,
 246 0004 D4F88830 		ldr	r3, [r4, #136]	@ D.5974, MEM[(struct SCB_Type *)3758157056B].CPACR
 247 0008 43F47000 		orr	r0, r3, #15728640	@ D.5975, D.5974,
 228:system_stm32f4xx.c ****   RCC->CR |= (uint32_t)0x00000001;
 248              		.loc 1 228 0
 249 000c 0E4B     		ldr	r3, .L25+4	@ tmp144,
 223:system_stm32f4xx.c ****     SCB->CPACR |= ((3UL << 10*2)|(3UL << 11*2));  /* set CP10 and CP11 Full Access */
 250              		.loc 1 223 0
 251 000e C4F88800 		str	r0, [r4, #136]	@ D.5975, MEM[(struct SCB_Type *)3758157056B].CPACR
 228:system_stm32f4xx.c ****   RCC->CR |= (uint32_t)0x00000001;
 252              		.loc 1 228 0
 253 0012 1A68     		ldr	r2, [r3, #0]	@ D.5977, MEM[(struct RCC_TypeDef *)1073887232B].CR
 231:system_stm32f4xx.c ****   RCC->CFGR = 0x00000000;
 254              		.loc 1 231 0
 255 0014 0020     		movs	r0, #0	@ tmp147,
 228:system_stm32f4xx.c ****   RCC->CR |= (uint32_t)0x00000001;
 256              		.loc 1 228 0
 257 0016 42F00101 		orr	r1, r2, #1	@ D.5978, D.5977,
 258 001a 1960     		str	r1, [r3, #0]	@ D.5978, MEM[(struct RCC_TypeDef *)1073887232B].CR
 231:system_stm32f4xx.c ****   RCC->CFGR = 0x00000000;
 259              		.loc 1 231 0
 260 001c 9860     		str	r0, [r3, #8]	@ tmp147, MEM[(struct RCC_TypeDef *)1073887232B].CFGR
 234:system_stm32f4xx.c ****   RCC->CR &= (uint32_t)0xFEF6FFFF;
 261              		.loc 1 234 0
 262 001e 1A68     		ldr	r2, [r3, #0]	@ D.5979, MEM[(struct RCC_TypeDef *)1073887232B].CR
 263 0020 22F08471 		bic	r1, r2, #17301504	@ tmp149, D.5979,
 264 0024 21F48032 		bic	r2, r1, #65536	@ D.5980, tmp149,
 237:system_stm32f4xx.c ****   RCC->PLLCFGR = 0x24003010;
 265              		.loc 1 237 0
 266 0028 0849     		ldr	r1, .L25+8	@ tmp152,
 234:system_stm32f4xx.c ****   RCC->CR &= (uint32_t)0xFEF6FFFF;
 267              		.loc 1 234 0
 268 002a 1A60     		str	r2, [r3, #0]	@ D.5980, MEM[(struct RCC_TypeDef *)1073887232B].CR
 237:system_stm32f4xx.c ****   RCC->PLLCFGR = 0x24003010;
 269              		.loc 1 237 0
 270 002c 5960     		str	r1, [r3, #4]	@ tmp152, MEM[(struct RCC_TypeDef *)1073887232B].PLLCFGR
 240:system_stm32f4xx.c ****   RCC->CR &= (uint32_t)0xFFFBFFFF;
 271              		.loc 1 240 0
ARM GAS  /tmp/ccV8CS10.s 			page 14


 272 002e 1A68     		ldr	r2, [r3, #0]	@ D.5981, MEM[(struct RCC_TypeDef *)1073887232B].CR
 273 0030 22F48021 		bic	r1, r2, #262144	@ D.5982, D.5981,
 274 0034 1960     		str	r1, [r3, #0]	@ D.5982, MEM[(struct RCC_TypeDef *)1073887232B].CR
 243:system_stm32f4xx.c ****   RCC->CIR = 0x00000000;
 275              		.loc 1 243 0
 276 0036 D860     		str	r0, [r3, #12]	@ tmp147, MEM[(struct RCC_TypeDef *)1073887232B].CIR
 251:system_stm32f4xx.c ****   SetSysClock();
 277              		.loc 1 251 0
 278 0038 FFF7FEFF 		bl	SetSysClock	@
 279              	.LVL7:
 257:system_stm32f4xx.c ****   SCB->VTOR = FLASH_BASE | VECT_TAB_OFFSET; /* Vector Table Relocation in Internal FLASH */
 280              		.loc 1 257 0
 281 003c 4FF00063 		mov	r3, #134217728	@ tmp158,
 282 0040 A360     		str	r3, [r4, #8]	@ tmp158, MEM[(struct SCB_Type *)3758157056B].VTOR
 283 0042 10BD     		pop	{r4, pc}	@
 284              	.L26:
 285              		.align	2
 286              	.L25:
 287 0044 00ED00E0 		.word	-536810240
 288 0048 00380240 		.word	1073887232
 289 004c 10300024 		.word	603992080
 290              		.cfi_endproc
 291              	.LFE110:
 292              		.size	SystemInit, .-SystemInit
 293              		.section	.text.SystemCoreClockUpdate,"ax",%progbits
 294              		.align	1
 295              		.global	SystemCoreClockUpdate
 296              		.thumb
 297              		.thumb_func
 298              		.type	SystemCoreClockUpdate, %function
 299              	SystemCoreClockUpdate:
 300              	.LFB111:
 298:system_stm32f4xx.c **** {
 301              		.loc 1 298 0
 302              		.cfi_startproc
 303              		@ args = 0, pretend = 0, frame = 0
 304              		@ frame_needed = 0, uses_anonymous_args = 0
 305              		@ link register save eliminated.
 306              	.LVL8:
 302:system_stm32f4xx.c ****   tmp = RCC->CFGR & RCC_CFGR_SWS;
 307              		.loc 1 302 0
 308 0000 184B     		ldr	r3, .L37	@ tmp163,
 309 0002 194A     		ldr	r2, .L37+4	@ tmp206,
 310 0004 9968     		ldr	r1, [r3, #8]	@ D.5946, MEM[(struct RCC_TypeDef *)1073887232B].CFGR
 311              	.LVL9:
 312 0006 01F00C00 		and	r0, r1, #12	@ tmp164, D.5946,
 313              	.LVL10:
 304:system_stm32f4xx.c ****   switch (tmp)
 314              		.loc 1 304 0
 315 000a 0428     		cmp	r0, #4	@ tmp164,
 316 000c 03D0     		beq	.L30	@,
 317 000e 0828     		cmp	r0, #8	@ tmp164,
 318 0010 03D0     		beq	.L31	@,
 319 0012 164B     		ldr	r3, .L37+8	@ tmp207,
 320 0014 19E0     		b	.L36	@
 321              	.L30:
 310:system_stm32f4xx.c ****       SystemCoreClock = HSE_VALUE;
ARM GAS  /tmp/ccV8CS10.s 			page 15


 322              		.loc 1 310 0
 323 0016 164B     		ldr	r3, .L37+12	@ tmp168,
 324 0018 17E0     		b	.L36	@
 325              	.L31:
 317:system_stm32f4xx.c ****       pllsource = (RCC->PLLCFGR & RCC_PLLCFGR_PLLSRC) >> 22;
 326              		.loc 1 317 0
 327 001a 5968     		ldr	r1, [r3, #4]	@ D.5947, MEM[(struct RCC_TypeDef *)1073887232B].PLLCFGR
 328              	.LVL11:
 318:system_stm32f4xx.c ****       pllm = RCC->PLLCFGR & RCC_PLLCFGR_PLLM;
 329              		.loc 1 318 0
 330 001c 5A68     		ldr	r2, [r3, #4]	@ D.5949, MEM[(struct RCC_TypeDef *)1073887232B].PLLCFGR
 320:system_stm32f4xx.c ****       if (pllsource != 0)
 331              		.loc 1 320 0
 332 001e 11F4800F 		tst	r1, #4194304	@ D.5947,
 323:system_stm32f4xx.c ****         pllvco = (HSE_VALUE / pllm) * ((RCC->PLLCFGR & RCC_PLLCFGR_PLLN) >> 6);
 333              		.loc 1 323 0
 334 0022 5968     		ldr	r1, [r3, #4]	@ D.5953,
 335              	.LVL12:
 336 0024 14BF     		ite	ne
 337 0026 124B     		ldrne	r3, .L37+12	@ tmp179,
 328:system_stm32f4xx.c ****         pllvco = (HSI_VALUE / pllm) * ((RCC->PLLCFGR & RCC_PLLCFGR_PLLN) >> 6);      
 338              		.loc 1 328 0
 339 0028 104B     		ldreq	r3, .L37+8	@ tmp186,
 318:system_stm32f4xx.c ****       pllm = RCC->PLLCFGR & RCC_PLLCFGR_PLLM;
 340              		.loc 1 318 0
 341 002a 02F03F00 		and	r0, r2, #63	@ pllm, D.5949,
 342              	.LVL13:
 328:system_stm32f4xx.c ****         pllvco = (HSI_VALUE / pllm) * ((RCC->PLLCFGR & RCC_PLLCFGR_PLLN) >> 6);      
 343              		.loc 1 328 0
 344 002e B3FBF0F3 		udiv	r3, r3, r0	@ tmp185, tmp186, pllm
 331:system_stm32f4xx.c ****       pllp = (((RCC->PLLCFGR & RCC_PLLCFGR_PLLP) >>16) + 1 ) *2;
 345              		.loc 1 331 0
 346 0032 0C48     		ldr	r0, .L37	@ tmp187,
 347              	.LVL14:
 323:system_stm32f4xx.c ****         pllvco = (HSE_VALUE / pllm) * ((RCC->PLLCFGR & RCC_PLLCFGR_PLLN) >> 6);
 348              		.loc 1 323 0
 349 0034 C1F38812 		ubfx	r2, r1, #6, #9	@ tmp176, D.5953,,
 350              	.LVL15:
 331:system_stm32f4xx.c ****       pllp = (((RCC->PLLCFGR & RCC_PLLCFGR_PLLP) >>16) + 1 ) *2;
 351              		.loc 1 331 0
 352 0038 4168     		ldr	r1, [r0, #4]	@ D.5961, MEM[(struct RCC_TypeDef *)1073887232B].PLLCFGR
 328:system_stm32f4xx.c ****         pllvco = (HSI_VALUE / pllm) * ((RCC->PLLCFGR & RCC_PLLCFGR_PLLN) >> 6);      
 353              		.loc 1 328 0
 354 003a 5343     		muls	r3, r2, r3	@ pllvco, tmp183
 355              	.LVL16:
 331:system_stm32f4xx.c ****       pllp = (((RCC->PLLCFGR & RCC_PLLCFGR_PLLP) >>16) + 1 ) *2;
 356              		.loc 1 331 0
 357 003c C1F30142 		ubfx	r2, r1, #16, #2	@ tmp190, D.5961,,
 358 0040 501C     		adds	r0, r2, #1	@ tmp191, tmp190,
 359 0042 4100     		lsls	r1, r0, #1	@ tmp192, tmp191,
 360              	.LVL17:
 332:system_stm32f4xx.c ****       SystemCoreClock = pllvco/pllp;
 361              		.loc 1 332 0
 362 0044 084A     		ldr	r2, .L37+4	@ tmp188,
 363 0046 B3FBF1F3 		udiv	r3, r3, r1	@ tmp193, pllvco, tmp192
 364              	.LVL18:
 365              	.L36:
ARM GAS  /tmp/ccV8CS10.s 			page 16


 340:system_stm32f4xx.c ****   tmp = AHBPrescTable[((RCC->CFGR & RCC_CFGR_HPRE) >> 4)];
 366              		.loc 1 340 0
 367 004a 0648     		ldr	r0, .L37	@ tmp196,
 332:system_stm32f4xx.c ****       SystemCoreClock = pllvco/pllp;
 368              		.loc 1 332 0
 369 004c 1360     		str	r3, [r2, #0]	@ tmp193, SystemCoreClock
 340:system_stm32f4xx.c ****   tmp = AHBPrescTable[((RCC->CFGR & RCC_CFGR_HPRE) >> 4)];
 370              		.loc 1 340 0
 371 004e 8168     		ldr	r1, [r0, #8]	@ D.5966, MEM[(struct RCC_TypeDef *)1073887232B].CFGR
 372 0050 084A     		ldr	r2, .L37+16	@ tmp198,
 373 0052 C1F30313 		ubfx	r3, r1, #4, #4	@ D.5968, D.5966,,
 342:system_stm32f4xx.c ****   SystemCoreClock >>= tmp;
 374              		.loc 1 342 0
 375 0056 0449     		ldr	r1, .L37+4	@ tmp202,
 340:system_stm32f4xx.c ****   tmp = AHBPrescTable[((RCC->CFGR & RCC_CFGR_HPRE) >> 4)];
 376              		.loc 1 340 0
 377 0058 D05C     		ldrb	r0, [r2, r3]	@ zero_extendqisi2	@ tmp201, AHBPrescTable
 378              	.LVL19:
 342:system_stm32f4xx.c ****   SystemCoreClock >>= tmp;
 379              		.loc 1 342 0
 380 005a 0B68     		ldr	r3, [r1, #0]	@ SystemCoreClock, SystemCoreClock
 381 005c 23FA00F3 		lsr	r3, r3, r0	@ tmp204, SystemCoreClock, tmp201
 382 0060 0B60     		str	r3, [r1, #0]	@ tmp204, SystemCoreClock
 383 0062 7047     		bx	lr	@
 384              	.L38:
 385              		.align	2
 386              	.L37:
 387 0064 00380240 		.word	1073887232
 388 0068 00000000 		.word	.LANCHOR0
 389 006c 0024F400 		.word	16000000
 390 0070 00127A00 		.word	8000000
 391 0074 00000000 		.word	.LANCHOR1
 392              		.cfi_endproc
 393              	.LFE111:
 394              		.size	SystemCoreClockUpdate, .-SystemCoreClockUpdate
 395              		.global	AHBPrescTable
 396              		.global	SystemCoreClock
 397              		.section	.data.AHBPrescTable,"aw",%progbits
 398              		.set	.LANCHOR1,. + 0
 399              		.type	AHBPrescTable, %object
 400              		.size	AHBPrescTable, 16
 401              	AHBPrescTable:
 402 0000 00       		.byte	0
 403 0001 00       		.byte	0
 404 0002 00       		.byte	0
 405 0003 00       		.byte	0
 406 0004 00       		.byte	0
 407 0005 00       		.byte	0
 408 0006 00       		.byte	0
 409 0007 00       		.byte	0
 410 0008 01       		.byte	1
 411 0009 02       		.byte	2
 412 000a 03       		.byte	3
 413 000b 04       		.byte	4
 414 000c 06       		.byte	6
 415 000d 07       		.byte	7
 416 000e 08       		.byte	8
ARM GAS  /tmp/ccV8CS10.s 			page 17


 417 000f 09       		.byte	9
 418              		.section	.data.SystemCoreClock,"aw",%progbits
 419              		.align	2
 420              		.set	.LANCHOR0,. + 0
 421              		.type	SystemCoreClock, %object
 422              		.size	SystemCoreClock, 4
 423              	SystemCoreClock:
 424 0000 000E2707 		.word	120000000
 425              		.text
 426              	.Letext0:
 427              		.file 2 "/usr/bin/../lib/gcc/arm-none-eabi/4.7.4/../../../../arm-none-eabi/include/stdint.h"
 428              		.file 3 "cmsis/core_cm4.h"
 429              		.file 4 "stm32f4xx.h"