ARM GAS  /tmp/ccLt1DA2.s 			page 1


   1              		.syntax unified
   2              		.cpu cortex-m4
   3              		.eabi_attribute 27, 3
   4              		.eabi_attribute 28, 1
   5              		.fpu fpv4-sp-d16
   6              		.eabi_attribute 20, 1
   7              		.eabi_attribute 21, 1
   8              		.eabi_attribute 23, 3
   9              		.eabi_attribute 24, 1
  10              		.eabi_attribute 25, 1
  11              		.eabi_attribute 26, 1
  12              		.eabi_attribute 30, 2
  13              		.eabi_attribute 18, 4
  14              		.file	"system_stm32f4xx.c"
  15              	@ GNU C (Linaro GCC 4.6-2011.10) version 4.6.2 20111004 (prerelease) (arm-none-eabi)
  16              	@	compiled by GNU C version 4.6.3, GMP version 5.0.2, MPFR version 3.1.0-p3, MPC version 0.9
  17              	@ warning: GMP header version 5.0.2 differs from library version 5.0.5.
  18              	@ warning: MPFR header version 3.1.0-p3 differs from library version 3.1.1-p2.
  19              	@ GGC heuristics: --param ggc-min-expand=100 --param ggc-min-heapsize=131072
  20              	@ options passed:  -I . -I ../ -I ../inc/ -I ../drv/inc/ -I ../cmsis/
  21              	@ -imultilib thumb/cortex-m4/float-abi-hard/fpuv4-sp-d16
  22              	@ -MD ../cmsis/system_stm32f4xx.d -MF .dep/system_stm32f4xx.o.d -MP
  23              	@ -MQ ../cmsis/system_stm32f4xx.o -D__USES_INITFINI__ -D __FPU_USED=1
  24              	@ -D __arm__ -D __ASSEMBLY__ -D USE_STDPERIPH_DRIVER -D STM32F4XX
  25              	@ -D HSE_VALUE=8000000 -D __FPU_PRESENT=1 -D __FPU_USED=1 -D STM32F407VG
  26              	@ -D USE_USB_OTG_FS -D RUN_FROM_FLASH=1 ../cmsis/system_stm32f4xx.c -mthumb
  27              	@ -mcpu=cortex-m4 -mfloat-abi=hard -mfpu=fpv4-sp-d16
  28              	@ -auxbase-strip ../cmsis/system_stm32f4xx.o -gdwarf-2 -O2 -Wall
  29              	@ -Wstrict-prototypes -std=gnu99 -falign-functions=16 -fno-inline
  30              	@ -fomit-frame-pointer -fverbose-asm -ffunction-sections -fdata-sections
  31              	@ options enabled:  -fauto-inc-dec -fbranch-count-reg -fcaller-saves
  32              	@ -fcombine-stack-adjustments -fcommon -fcompare-elim -fcprop-registers
  33              	@ -fcrossjumping -fcse-follow-jumps -fdata-sections -fdefer-pop
  34              	@ -fdelete-null-pointer-checks -fdevirtualize -fdwarf2-cfi-asm
  35              	@ -fearly-inlining -feliminate-unused-debug-types -fexpensive-optimizations
  36              	@ -fforward-propagate -ffunction-cse -ffunction-sections -fgcse -fgcse-lm
  37              	@ -fguess-branch-probability -fident -fif-conversion -fif-conversion2
  38              	@ -findirect-inlining -finline-functions-called-once
  39              	@ -finline-small-functions -fipa-cp -fipa-profile -fipa-pure-const
  40              	@ -fipa-reference -fipa-sra -fira-share-save-slots -fira-share-spill-slots
  41              	@ -fivopts -fkeep-static-consts -fleading-underscore -fmath-errno
  42              	@ -fmerge-constants -fmerge-debug-strings -fmove-loop-invariants
  43              	@ -fomit-frame-pointer -foptimize-register-move -foptimize-sibling-calls
  44              	@ -fpartial-inlining -fpeephole -fpeephole2 -fprefetch-loop-arrays
  45              	@ -freg-struct-return -fregmove -freorder-blocks -freorder-functions
  46              	@ -frerun-cse-after-loop -fsched-critical-path-heuristic
  47              	@ -fsched-dep-count-heuristic -fsched-group-heuristic -fsched-interblock
  48              	@ -fsched-last-insn-heuristic -fsched-rank-heuristic -fsched-spec
  49              	@ -fsched-spec-insn-heuristic -fsched-stalled-insns-dep -fschedule-insns
  50              	@ -fschedule-insns2 -fsection-anchors -fshow-column -fsigned-zeros
  51              	@ -fsplit-ivs-in-unroller -fsplit-wide-types -fstrict-aliasing
  52              	@ -fstrict-overflow -fstrict-volatile-bitfields -fthread-jumps
  53              	@ -ftoplevel-reorder -ftrapping-math -ftree-bit-ccp -ftree-builtin-call-dce
  54              	@ -ftree-ccp -ftree-ch -ftree-copy-prop -ftree-copyrename -ftree-cselim
  55              	@ -ftree-dce -ftree-dominator-opts -ftree-dse -ftree-forwprop -ftree-fre
  56              	@ -ftree-loop-if-convert -ftree-loop-im -ftree-loop-ivcanon
  57              	@ -ftree-loop-optimize -ftree-parallelize-loops= -ftree-phiprop -ftree-pre
ARM GAS  /tmp/ccLt1DA2.s 			page 2


  58              	@ -ftree-pta -ftree-reassoc -ftree-scev-cprop -ftree-sink
  59              	@ -ftree-slp-vectorize -ftree-sra -ftree-switch-conversion -ftree-ter
  60              	@ -ftree-vect-loop-version -ftree-vrp -funit-at-a-time -fvar-tracking
  61              	@ -fvar-tracking-assignments -fverbose-asm -fzero-initialized-in-bss
  62              	@ -mlittle-endian -msched-prolog -mthumb -mvectorize-with-neon-quad
  63              	
  64              		.text
  65              	.Ltext0:
  66              	@ Compiler executable checksum: 0b4f3bed1437fea95f209a5480b5e57c
  67              	
  68              		.cfi_sections	.debug_frame
  69              		.section	.text.SetSysClock,"ax",%progbits
  70              		.align	2
  71              		.p2align 4,,15
  72              		.thumb
  73              		.thumb_func
  74              		.type	SetSysClock, %function
  75              	SetSysClock:
  76              	.LFB112:
  77              		.file 1 "../cmsis/system_stm32f4xx.c"
   1:../cmsis/system_stm32f4xx.c **** /**
   2:../cmsis/system_stm32f4xx.c ****   ******************************************************************************
   3:../cmsis/system_stm32f4xx.c ****   * @file    system_stm32f4xx.c
   4:../cmsis/system_stm32f4xx.c ****   * @author  MCD Application Team
   5:../cmsis/system_stm32f4xx.c ****   * @version V2.1.0
   6:../cmsis/system_stm32f4xx.c ****   * @date    19-March-2012
   7:../cmsis/system_stm32f4xx.c ****   * @brief   CMSIS Cortex-M4 Device Peripheral Access Layer System Source File.
   8:../cmsis/system_stm32f4xx.c ****   *          This file contains the system clock configuration for STM32F4xx devices,
   9:../cmsis/system_stm32f4xx.c ****   *          and is generated by the clock configuration tool
  10:../cmsis/system_stm32f4xx.c ****   *          stm32f4xx_Clock_Configuration_V1.0.0.xls
  11:../cmsis/system_stm32f4xx.c ****   *             
  12:../cmsis/system_stm32f4xx.c ****   * 1.  This file provides two functions and one global variable to be called from 
  13:../cmsis/system_stm32f4xx.c ****   *     user application:
  14:../cmsis/system_stm32f4xx.c ****   *      - SystemInit(): Setups the system clock (System clock source, PLL Multiplier
  15:../cmsis/system_stm32f4xx.c ****   *                      and Divider factors, AHB/APBx prescalers and Flash settings),
  16:../cmsis/system_stm32f4xx.c ****   *                      depending on the configuration made in the clock xls tool. 
  17:../cmsis/system_stm32f4xx.c ****   *                      This function is called at startup just after reset and 
  18:../cmsis/system_stm32f4xx.c ****   *                      before branch to main program. This call is made inside
  19:../cmsis/system_stm32f4xx.c ****   *                      the "startup_stm32f4xx.s" file.
  20:../cmsis/system_stm32f4xx.c ****   *
  21:../cmsis/system_stm32f4xx.c ****   *      - SystemCoreClock variable: Contains the core clock (HCLK), it can be used
  22:../cmsis/system_stm32f4xx.c ****   *                                  by the user application to setup the SysTick 
  23:../cmsis/system_stm32f4xx.c ****   *                                  timer or configure other parameters.
  24:../cmsis/system_stm32f4xx.c ****   *                                     
  25:../cmsis/system_stm32f4xx.c ****   *      - SystemCoreClockUpdate(): Updates the variable SystemCoreClock and must
  26:../cmsis/system_stm32f4xx.c ****   *                                 be called whenever the core clock is changed
  27:../cmsis/system_stm32f4xx.c ****   *                                 during program execution.
  28:../cmsis/system_stm32f4xx.c ****   *
  29:../cmsis/system_stm32f4xx.c ****   * 2. After each device reset the HSI (16 MHz) is used as system clock source.
  30:../cmsis/system_stm32f4xx.c ****   *    Then SystemInit() function is called, in "startup_stm32f4xx.s" file, to
  31:../cmsis/system_stm32f4xx.c ****   *    configure the system clock before to branch to main program.
  32:../cmsis/system_stm32f4xx.c ****   *
  33:../cmsis/system_stm32f4xx.c ****   * 3. If the system clock source selected by user fails to startup, the SystemInit()
  34:../cmsis/system_stm32f4xx.c ****   *    function will do nothing and HSI still used as system clock source. User can 
  35:../cmsis/system_stm32f4xx.c ****   *    add some code to deal with this issue inside the SetSysClock() function.
  36:../cmsis/system_stm32f4xx.c ****   *
  37:../cmsis/system_stm32f4xx.c ****   * 4. The default value of HSE crystal is set to 25MHz, refer to "HSE_VALUE" define
ARM GAS  /tmp/ccLt1DA2.s 			page 3


  38:../cmsis/system_stm32f4xx.c ****   *    in "stm32f4xx.h" file. When HSE is used as system clock source, directly or
  39:../cmsis/system_stm32f4xx.c ****   *    through PLL, and you are using different crystal you have to adapt the HSE
  40:../cmsis/system_stm32f4xx.c ****   *    value to your own configuration.
  41:../cmsis/system_stm32f4xx.c ****   *
  42:../cmsis/system_stm32f4xx.c ****   * 5. This file configures the system clock as follows:
  43:../cmsis/system_stm32f4xx.c ****   *=============================================================================
  44:../cmsis/system_stm32f4xx.c ****   *=============================================================================
  45:../cmsis/system_stm32f4xx.c ****   *        Supported STM32F4xx device revision    | Rev A
  46:../cmsis/system_stm32f4xx.c ****   *-----------------------------------------------------------------------------
  47:../cmsis/system_stm32f4xx.c ****   *        System Clock source                    | PLL (HSE)
  48:../cmsis/system_stm32f4xx.c ****   *-----------------------------------------------------------------------------
  49:../cmsis/system_stm32f4xx.c ****   *        SYSCLK(Hz)                             | 168000000
  50:../cmsis/system_stm32f4xx.c ****   *-----------------------------------------------------------------------------
  51:../cmsis/system_stm32f4xx.c ****   *        HCLK(Hz)                               | 168000000
  52:../cmsis/system_stm32f4xx.c ****   *-----------------------------------------------------------------------------
  53:../cmsis/system_stm32f4xx.c ****   *        AHB Prescaler                          | 1
  54:../cmsis/system_stm32f4xx.c ****   *-----------------------------------------------------------------------------
  55:../cmsis/system_stm32f4xx.c ****   *        APB1 Prescaler                         | 4
  56:../cmsis/system_stm32f4xx.c ****   *-----------------------------------------------------------------------------
  57:../cmsis/system_stm32f4xx.c ****   *        APB2 Prescaler                         | 2
  58:../cmsis/system_stm32f4xx.c ****   *-----------------------------------------------------------------------------
  59:../cmsis/system_stm32f4xx.c ****   *        HSE Frequency(Hz)                      | 8000000
  60:../cmsis/system_stm32f4xx.c ****   *-----------------------------------------------------------------------------
  61:../cmsis/system_stm32f4xx.c ****   *        PLL_M                                  | 8
  62:../cmsis/system_stm32f4xx.c ****   *-----------------------------------------------------------------------------
  63:../cmsis/system_stm32f4xx.c ****   *        PLL_N                                  | 336
  64:../cmsis/system_stm32f4xx.c ****   *-----------------------------------------------------------------------------
  65:../cmsis/system_stm32f4xx.c ****   *        PLL_P                                  | 2
  66:../cmsis/system_stm32f4xx.c ****   *-----------------------------------------------------------------------------
  67:../cmsis/system_stm32f4xx.c ****   *        PLL_Q                                  | 7
  68:../cmsis/system_stm32f4xx.c ****   *-----------------------------------------------------------------------------
  69:../cmsis/system_stm32f4xx.c ****   *        PLLI2S_N                               | NA
  70:../cmsis/system_stm32f4xx.c ****   *-----------------------------------------------------------------------------
  71:../cmsis/system_stm32f4xx.c ****   *        PLLI2S_R                               | NA
  72:../cmsis/system_stm32f4xx.c ****   *-----------------------------------------------------------------------------
  73:../cmsis/system_stm32f4xx.c ****   *        I2S input clock                        | NA
  74:../cmsis/system_stm32f4xx.c ****   *-----------------------------------------------------------------------------
  75:../cmsis/system_stm32f4xx.c ****   *        VDD(V)                                 | 3.3
  76:../cmsis/system_stm32f4xx.c ****   *-----------------------------------------------------------------------------
  77:../cmsis/system_stm32f4xx.c ****   *        Main regulator output voltage          | Scale1 mode
  78:../cmsis/system_stm32f4xx.c ****   *-----------------------------------------------------------------------------
  79:../cmsis/system_stm32f4xx.c ****   *        Flash Latency(WS)                      | 5
  80:../cmsis/system_stm32f4xx.c ****   *-----------------------------------------------------------------------------
  81:../cmsis/system_stm32f4xx.c ****   *        Prefetch Buffer                        | OFF
  82:../cmsis/system_stm32f4xx.c ****   *-----------------------------------------------------------------------------
  83:../cmsis/system_stm32f4xx.c ****   *        Instruction cache                      | ON
  84:../cmsis/system_stm32f4xx.c ****   *-----------------------------------------------------------------------------
  85:../cmsis/system_stm32f4xx.c ****   *        Data cache                             | ON
  86:../cmsis/system_stm32f4xx.c ****   *-----------------------------------------------------------------------------
  87:../cmsis/system_stm32f4xx.c ****   *        Require 48MHz for USB OTG FS,          | Enabled
  88:../cmsis/system_stm32f4xx.c ****   *        SDIO and RNG clock                     |
  89:../cmsis/system_stm32f4xx.c ****   *-----------------------------------------------------------------------------
  90:../cmsis/system_stm32f4xx.c ****   *=============================================================================
  91:../cmsis/system_stm32f4xx.c ****   ******************************************************************************
  92:../cmsis/system_stm32f4xx.c ****   * @attention
  93:../cmsis/system_stm32f4xx.c ****   *
  94:../cmsis/system_stm32f4xx.c ****   * <h2><center>&copy; COPYRIGHT 2012 STMicroelectronics</center></h2>
ARM GAS  /tmp/ccLt1DA2.s 			page 4


  95:../cmsis/system_stm32f4xx.c ****   *
  96:../cmsis/system_stm32f4xx.c ****   * Licensed under MCD-ST Liberty SW License Agreement V2, (the "License");
  97:../cmsis/system_stm32f4xx.c ****   * You may not use this file except in compliance with the License.
  98:../cmsis/system_stm32f4xx.c ****   * You may obtain a copy of the License at:
  99:../cmsis/system_stm32f4xx.c ****   *
 100:../cmsis/system_stm32f4xx.c ****   *        http://www.st.com/software_license_agreement_liberty_v2
 101:../cmsis/system_stm32f4xx.c ****   *
 102:../cmsis/system_stm32f4xx.c ****   * Unless required by applicable law or agreed to in writing, software 
 103:../cmsis/system_stm32f4xx.c ****   * distributed under the License is distributed on an "AS IS" BASIS, 
 104:../cmsis/system_stm32f4xx.c ****   * WITHOUT WARRANTIES OR CONDITIONS OF ANY KIND, either express or implied.
 105:../cmsis/system_stm32f4xx.c ****   * See the License for the specific language governing permissions and
 106:../cmsis/system_stm32f4xx.c ****   * limitations under the License.
 107:../cmsis/system_stm32f4xx.c ****   *
 108:../cmsis/system_stm32f4xx.c ****   ******************************************************************************
 109:../cmsis/system_stm32f4xx.c ****   */
 110:../cmsis/system_stm32f4xx.c **** 
 111:../cmsis/system_stm32f4xx.c **** /** @addtogroup CMSIS
 112:../cmsis/system_stm32f4xx.c ****   * @{
 113:../cmsis/system_stm32f4xx.c ****   */
 114:../cmsis/system_stm32f4xx.c **** 
 115:../cmsis/system_stm32f4xx.c **** /** @addtogroup stm32f4xx_system
 116:../cmsis/system_stm32f4xx.c ****   * @{
 117:../cmsis/system_stm32f4xx.c ****   */  
 118:../cmsis/system_stm32f4xx.c ****   
 119:../cmsis/system_stm32f4xx.c **** /** @addtogroup STM32F4xx_System_Private_Includes
 120:../cmsis/system_stm32f4xx.c ****   * @{
 121:../cmsis/system_stm32f4xx.c ****   */
 122:../cmsis/system_stm32f4xx.c **** 
 123:../cmsis/system_stm32f4xx.c **** #include "stm32f4xx.h"
 124:../cmsis/system_stm32f4xx.c **** 
 125:../cmsis/system_stm32f4xx.c **** /**
 126:../cmsis/system_stm32f4xx.c ****   * @}
 127:../cmsis/system_stm32f4xx.c ****   */
 128:../cmsis/system_stm32f4xx.c **** 
 129:../cmsis/system_stm32f4xx.c **** /** @addtogroup STM32F4xx_System_Private_TypesDefinitions
 130:../cmsis/system_stm32f4xx.c ****   * @{
 131:../cmsis/system_stm32f4xx.c ****   */
 132:../cmsis/system_stm32f4xx.c **** 
 133:../cmsis/system_stm32f4xx.c **** /**
 134:../cmsis/system_stm32f4xx.c ****   * @}
 135:../cmsis/system_stm32f4xx.c ****   */
 136:../cmsis/system_stm32f4xx.c **** 
 137:../cmsis/system_stm32f4xx.c **** /** @addtogroup STM32F4xx_System_Private_Defines
 138:../cmsis/system_stm32f4xx.c ****   * @{
 139:../cmsis/system_stm32f4xx.c ****   */
 140:../cmsis/system_stm32f4xx.c **** 
 141:../cmsis/system_stm32f4xx.c **** /************************* Miscellaneous Configuration ************************/
 142:../cmsis/system_stm32f4xx.c **** /*!< Uncomment the following line if you need to use external SRAM mounted
 143:../cmsis/system_stm32f4xx.c ****      on STM324xG_EVAL board as data memory  */
 144:../cmsis/system_stm32f4xx.c **** /* #define DATA_IN_ExtSRAM */
 145:../cmsis/system_stm32f4xx.c **** 
 146:../cmsis/system_stm32f4xx.c **** /*!< Uncomment the following line if you need to relocate your vector Table in
 147:../cmsis/system_stm32f4xx.c ****      Internal SRAM. */
 148:../cmsis/system_stm32f4xx.c **** /* #define VECT_TAB_SRAM */
 149:../cmsis/system_stm32f4xx.c **** #define VECT_TAB_OFFSET  0x00 /*!< Vector Table base offset field. 
 150:../cmsis/system_stm32f4xx.c ****                                    This value must be a multiple of 0x200. */
 151:../cmsis/system_stm32f4xx.c **** /******************************************************************************/
ARM GAS  /tmp/ccLt1DA2.s 			page 5


 152:../cmsis/system_stm32f4xx.c **** 
 153:../cmsis/system_stm32f4xx.c **** /************************* PLL Parameters *************************************/
 154:../cmsis/system_stm32f4xx.c **** /* PLL_VCO = (HSE_VALUE or HSI_VALUE / PLL_M) * PLL_N */
 155:../cmsis/system_stm32f4xx.c **** #define PLL_M      8
 156:../cmsis/system_stm32f4xx.c **** #define PLL_N      336
 157:../cmsis/system_stm32f4xx.c **** 
 158:../cmsis/system_stm32f4xx.c **** /* SYSCLK = PLL_VCO / PLL_P */
 159:../cmsis/system_stm32f4xx.c **** #define PLL_P      2
 160:../cmsis/system_stm32f4xx.c **** 
 161:../cmsis/system_stm32f4xx.c **** /* USB OTG FS, SDIO and RNG Clock =  PLL_VCO / PLLQ */
 162:../cmsis/system_stm32f4xx.c **** #define PLL_Q      7
 163:../cmsis/system_stm32f4xx.c **** 
 164:../cmsis/system_stm32f4xx.c **** /******************************************************************************/
 165:../cmsis/system_stm32f4xx.c **** 
 166:../cmsis/system_stm32f4xx.c **** /**
 167:../cmsis/system_stm32f4xx.c ****   * @}
 168:../cmsis/system_stm32f4xx.c ****   */
 169:../cmsis/system_stm32f4xx.c **** 
 170:../cmsis/system_stm32f4xx.c **** /** @addtogroup STM32F4xx_System_Private_Macros
 171:../cmsis/system_stm32f4xx.c ****   * @{
 172:../cmsis/system_stm32f4xx.c ****   */
 173:../cmsis/system_stm32f4xx.c **** 
 174:../cmsis/system_stm32f4xx.c **** /**
 175:../cmsis/system_stm32f4xx.c ****   * @}
 176:../cmsis/system_stm32f4xx.c ****   */
 177:../cmsis/system_stm32f4xx.c **** 
 178:../cmsis/system_stm32f4xx.c **** /** @addtogroup STM32F4xx_System_Private_Variables
 179:../cmsis/system_stm32f4xx.c ****   * @{
 180:../cmsis/system_stm32f4xx.c ****   */
 181:../cmsis/system_stm32f4xx.c **** 
 182:../cmsis/system_stm32f4xx.c ****   uint32_t SystemCoreClock = 168000000;
 183:../cmsis/system_stm32f4xx.c **** 
 184:../cmsis/system_stm32f4xx.c ****   __I uint8_t AHBPrescTable[16] = {0, 0, 0, 0, 0, 0, 0, 0, 1, 2, 3, 4, 6, 7, 8, 9};
 185:../cmsis/system_stm32f4xx.c **** 
 186:../cmsis/system_stm32f4xx.c **** /**
 187:../cmsis/system_stm32f4xx.c ****   * @}
 188:../cmsis/system_stm32f4xx.c ****   */
 189:../cmsis/system_stm32f4xx.c **** 
 190:../cmsis/system_stm32f4xx.c **** /** @addtogroup STM32F4xx_System_Private_FunctionPrototypes
 191:../cmsis/system_stm32f4xx.c ****   * @{
 192:../cmsis/system_stm32f4xx.c ****   */
 193:../cmsis/system_stm32f4xx.c **** 
 194:../cmsis/system_stm32f4xx.c **** static void SetSysClock(void);
 195:../cmsis/system_stm32f4xx.c **** #ifdef DATA_IN_ExtSRAM
 196:../cmsis/system_stm32f4xx.c ****   static void SystemInit_ExtMemCtl(void); 
 197:../cmsis/system_stm32f4xx.c **** #endif /* DATA_IN_ExtSRAM */
 198:../cmsis/system_stm32f4xx.c **** 
 199:../cmsis/system_stm32f4xx.c **** /**
 200:../cmsis/system_stm32f4xx.c ****   * @}
 201:../cmsis/system_stm32f4xx.c ****   */
 202:../cmsis/system_stm32f4xx.c **** 
 203:../cmsis/system_stm32f4xx.c **** /** @addtogroup STM32F4xx_System_Private_Functions
 204:../cmsis/system_stm32f4xx.c ****   * @{
 205:../cmsis/system_stm32f4xx.c ****   */
 206:../cmsis/system_stm32f4xx.c **** 
 207:../cmsis/system_stm32f4xx.c **** /**
 208:../cmsis/system_stm32f4xx.c ****   * @brief  Setup the microcontroller system
ARM GAS  /tmp/ccLt1DA2.s 			page 6


 209:../cmsis/system_stm32f4xx.c ****   *         Initialize the Embedded Flash Interface, the PLL and update the 
 210:../cmsis/system_stm32f4xx.c ****   *         SystemFrequency variable.
 211:../cmsis/system_stm32f4xx.c ****   * @param  None
 212:../cmsis/system_stm32f4xx.c ****   * @retval None
 213:../cmsis/system_stm32f4xx.c ****   */
 214:../cmsis/system_stm32f4xx.c **** void SystemInit(void)
 215:../cmsis/system_stm32f4xx.c **** {
 216:../cmsis/system_stm32f4xx.c ****   /* FPU settings ------------------------------------------------------------*/
 217:../cmsis/system_stm32f4xx.c ****   #if (__FPU_PRESENT == 1) && (__FPU_USED == 1)
 218:../cmsis/system_stm32f4xx.c ****     SCB->CPACR |= ((3UL << 10*2)|(3UL << 11*2));  /* set CP10 and CP11 Full Access */
 219:../cmsis/system_stm32f4xx.c ****   #endif
 220:../cmsis/system_stm32f4xx.c **** 
 221:../cmsis/system_stm32f4xx.c ****   /* Reset the RCC clock configuration to the default reset state ------------*/
 222:../cmsis/system_stm32f4xx.c ****   /* Set HSION bit */
 223:../cmsis/system_stm32f4xx.c ****   RCC->CR |= (uint32_t)0x00000001;
 224:../cmsis/system_stm32f4xx.c **** 
 225:../cmsis/system_stm32f4xx.c ****   /* Reset CFGR register */
 226:../cmsis/system_stm32f4xx.c ****   RCC->CFGR = 0x00000000;
 227:../cmsis/system_stm32f4xx.c **** 
 228:../cmsis/system_stm32f4xx.c ****   /* Reset HSEON, CSSON and PLLON bits */
 229:../cmsis/system_stm32f4xx.c ****   RCC->CR &= (uint32_t)0xFEF6FFFF;
 230:../cmsis/system_stm32f4xx.c **** 
 231:../cmsis/system_stm32f4xx.c ****   /* Reset PLLCFGR register */
 232:../cmsis/system_stm32f4xx.c ****   RCC->PLLCFGR = 0x24003010;
 233:../cmsis/system_stm32f4xx.c **** 
 234:../cmsis/system_stm32f4xx.c ****   /* Reset HSEBYP bit */
 235:../cmsis/system_stm32f4xx.c ****   RCC->CR &= (uint32_t)0xFFFBFFFF;
 236:../cmsis/system_stm32f4xx.c **** 
 237:../cmsis/system_stm32f4xx.c ****   /* Disable all interrupts */
 238:../cmsis/system_stm32f4xx.c ****   RCC->CIR = 0x00000000;
 239:../cmsis/system_stm32f4xx.c **** 
 240:../cmsis/system_stm32f4xx.c **** #ifdef DATA_IN_ExtSRAM
 241:../cmsis/system_stm32f4xx.c ****   SystemInit_ExtMemCtl(); 
 242:../cmsis/system_stm32f4xx.c **** #endif /* DATA_IN_ExtSRAM */
 243:../cmsis/system_stm32f4xx.c ****          
 244:../cmsis/system_stm32f4xx.c ****   /* Configure the System clock source, PLL Multiplier and Divider factors, 
 245:../cmsis/system_stm32f4xx.c ****      AHB/APBx prescalers and Flash settings ----------------------------------*/
 246:../cmsis/system_stm32f4xx.c ****   SetSysClock();
 247:../cmsis/system_stm32f4xx.c **** 
 248:../cmsis/system_stm32f4xx.c ****   /* Configure the Vector Table location add offset address ------------------*/
 249:../cmsis/system_stm32f4xx.c **** #ifdef VECT_TAB_SRAM
 250:../cmsis/system_stm32f4xx.c ****   SCB->VTOR = SRAM_BASE | VECT_TAB_OFFSET; /* Vector Table Relocation in Internal SRAM */
 251:../cmsis/system_stm32f4xx.c **** #else
 252:../cmsis/system_stm32f4xx.c ****   SCB->VTOR = FLASH_BASE | VECT_TAB_OFFSET; /* Vector Table Relocation in Internal FLASH */
 253:../cmsis/system_stm32f4xx.c **** #endif
 254:../cmsis/system_stm32f4xx.c **** }
 255:../cmsis/system_stm32f4xx.c **** 
 256:../cmsis/system_stm32f4xx.c **** /**
 257:../cmsis/system_stm32f4xx.c ****    * @brief  Update SystemCoreClock variable according to Clock Register Values.
 258:../cmsis/system_stm32f4xx.c ****   *         The SystemCoreClock variable contains the core clock (HCLK), it can
 259:../cmsis/system_stm32f4xx.c ****   *         be used by the user application to setup the SysTick timer or configure
 260:../cmsis/system_stm32f4xx.c ****   *         other parameters.
 261:../cmsis/system_stm32f4xx.c ****   *           
 262:../cmsis/system_stm32f4xx.c ****   * @note   Each time the core clock (HCLK) changes, this function must be called
 263:../cmsis/system_stm32f4xx.c ****   *         to update SystemCoreClock variable value. Otherwise, any configuration
 264:../cmsis/system_stm32f4xx.c ****   *         based on this variable will be incorrect.         
 265:../cmsis/system_stm32f4xx.c ****   *     
ARM GAS  /tmp/ccLt1DA2.s 			page 7


 266:../cmsis/system_stm32f4xx.c ****   * @note   - The system frequency computed by this function is not the real 
 267:../cmsis/system_stm32f4xx.c ****   *           frequency in the chip. It is calculated based on the predefined 
 268:../cmsis/system_stm32f4xx.c ****   *           constant and the selected clock source:
 269:../cmsis/system_stm32f4xx.c ****   *             
 270:../cmsis/system_stm32f4xx.c ****   *           - If SYSCLK source is HSI, SystemCoreClock will contain the HSI_VALUE(*)
 271:../cmsis/system_stm32f4xx.c ****   *                                              
 272:../cmsis/system_stm32f4xx.c ****   *           - If SYSCLK source is HSE, SystemCoreClock will contain the HSE_VALUE(**)
 273:../cmsis/system_stm32f4xx.c ****   *                          
 274:../cmsis/system_stm32f4xx.c ****   *           - If SYSCLK source is PLL, SystemCoreClock will contain the HSE_VALUE(**) 
 275:../cmsis/system_stm32f4xx.c ****   *             or HSI_VALUE(*) multiplied/divided by the PLL factors.
 276:../cmsis/system_stm32f4xx.c ****   *         
 277:../cmsis/system_stm32f4xx.c ****   *         (*) HSI_VALUE is a constant defined in stm32f4xx.h file (default value
 278:../cmsis/system_stm32f4xx.c ****   *             16 MHz) but the real value may vary depending on the variations
 279:../cmsis/system_stm32f4xx.c ****   *             in voltage and temperature.   
 280:../cmsis/system_stm32f4xx.c ****   *    
 281:../cmsis/system_stm32f4xx.c ****   *         (**) HSE_VALUE is a constant defined in stm32f4xx.h file (default value
 282:../cmsis/system_stm32f4xx.c ****   *              25 MHz), user has to ensure that HSE_VALUE is same as the real
 283:../cmsis/system_stm32f4xx.c ****   *              frequency of the crystal used. Otherwise, this function may
 284:../cmsis/system_stm32f4xx.c ****   *              have wrong result.
 285:../cmsis/system_stm32f4xx.c ****   *                
 286:../cmsis/system_stm32f4xx.c ****   *         - The result of this function could be not correct when using fractional
 287:../cmsis/system_stm32f4xx.c ****   *           value for HSE crystal.
 288:../cmsis/system_stm32f4xx.c ****   *     
 289:../cmsis/system_stm32f4xx.c ****   * @param  None
 290:../cmsis/system_stm32f4xx.c ****   * @retval None
 291:../cmsis/system_stm32f4xx.c ****   */
 292:../cmsis/system_stm32f4xx.c **** void SystemCoreClockUpdate(void)
 293:../cmsis/system_stm32f4xx.c **** {
 294:../cmsis/system_stm32f4xx.c ****   uint32_t tmp = 0, pllvco = 0, pllp = 2, pllsource = 0, pllm = 2;
 295:../cmsis/system_stm32f4xx.c ****   
 296:../cmsis/system_stm32f4xx.c ****   /* Get SYSCLK source -------------------------------------------------------*/
 297:../cmsis/system_stm32f4xx.c ****   tmp = RCC->CFGR & RCC_CFGR_SWS;
 298:../cmsis/system_stm32f4xx.c **** 
 299:../cmsis/system_stm32f4xx.c ****   switch (tmp)
 300:../cmsis/system_stm32f4xx.c ****   {
 301:../cmsis/system_stm32f4xx.c ****     case 0x00:  /* HSI used as system clock source */
 302:../cmsis/system_stm32f4xx.c ****       SystemCoreClock = HSI_VALUE;
 303:../cmsis/system_stm32f4xx.c ****       break;
 304:../cmsis/system_stm32f4xx.c ****     case 0x04:  /* HSE used as system clock source */
 305:../cmsis/system_stm32f4xx.c ****       SystemCoreClock = HSE_VALUE;
 306:../cmsis/system_stm32f4xx.c ****       break;
 307:../cmsis/system_stm32f4xx.c ****     case 0x08:  /* PLL used as system clock source */
 308:../cmsis/system_stm32f4xx.c **** 
 309:../cmsis/system_stm32f4xx.c ****       /* PLL_VCO = (HSE_VALUE or HSI_VALUE / PLL_M) * PLL_N
 310:../cmsis/system_stm32f4xx.c ****          SYSCLK = PLL_VCO / PLL_P
 311:../cmsis/system_stm32f4xx.c ****          */    
 312:../cmsis/system_stm32f4xx.c ****       pllsource = (RCC->PLLCFGR & RCC_PLLCFGR_PLLSRC) >> 22;
 313:../cmsis/system_stm32f4xx.c ****       pllm = RCC->PLLCFGR & RCC_PLLCFGR_PLLM;
 314:../cmsis/system_stm32f4xx.c ****       
 315:../cmsis/system_stm32f4xx.c ****       if (pllsource != 0)
 316:../cmsis/system_stm32f4xx.c ****       {
 317:../cmsis/system_stm32f4xx.c ****         /* HSE used as PLL clock source */
 318:../cmsis/system_stm32f4xx.c ****         pllvco = (HSE_VALUE / pllm) * ((RCC->PLLCFGR & RCC_PLLCFGR_PLLN) >> 6);
 319:../cmsis/system_stm32f4xx.c ****       }
 320:../cmsis/system_stm32f4xx.c ****       else
 321:../cmsis/system_stm32f4xx.c ****       {
 322:../cmsis/system_stm32f4xx.c ****         /* HSI used as PLL clock source */
ARM GAS  /tmp/ccLt1DA2.s 			page 8


 323:../cmsis/system_stm32f4xx.c ****         pllvco = (HSI_VALUE / pllm) * ((RCC->PLLCFGR & RCC_PLLCFGR_PLLN) >> 6);      
 324:../cmsis/system_stm32f4xx.c ****       }
 325:../cmsis/system_stm32f4xx.c **** 
 326:../cmsis/system_stm32f4xx.c ****       pllp = (((RCC->PLLCFGR & RCC_PLLCFGR_PLLP) >>16) + 1 ) *2;
 327:../cmsis/system_stm32f4xx.c ****       SystemCoreClock = pllvco/pllp;
 328:../cmsis/system_stm32f4xx.c ****       break;
 329:../cmsis/system_stm32f4xx.c ****     default:
 330:../cmsis/system_stm32f4xx.c ****       SystemCoreClock = HSI_VALUE;
 331:../cmsis/system_stm32f4xx.c ****       break;
 332:../cmsis/system_stm32f4xx.c ****   }
 333:../cmsis/system_stm32f4xx.c ****   /* Compute HCLK frequency --------------------------------------------------*/
 334:../cmsis/system_stm32f4xx.c ****   /* Get HCLK prescaler */
 335:../cmsis/system_stm32f4xx.c ****   tmp = AHBPrescTable[((RCC->CFGR & RCC_CFGR_HPRE) >> 4)];
 336:../cmsis/system_stm32f4xx.c ****   /* HCLK frequency */
 337:../cmsis/system_stm32f4xx.c ****   SystemCoreClock >>= tmp;
 338:../cmsis/system_stm32f4xx.c **** }
 339:../cmsis/system_stm32f4xx.c **** 
 340:../cmsis/system_stm32f4xx.c **** /**
 341:../cmsis/system_stm32f4xx.c ****   * @brief  Configures the System clock source, PLL Multiplier and Divider factors, 
 342:../cmsis/system_stm32f4xx.c ****   *         AHB/APBx prescalers and Flash settings
 343:../cmsis/system_stm32f4xx.c ****   * @Note   This function should be called only once the RCC clock configuration  
 344:../cmsis/system_stm32f4xx.c ****   *         is reset to the default reset state (done in SystemInit() function).   
 345:../cmsis/system_stm32f4xx.c ****   * @param  None
 346:../cmsis/system_stm32f4xx.c ****   * @retval None
 347:../cmsis/system_stm32f4xx.c ****   */
 348:../cmsis/system_stm32f4xx.c **** static void SetSysClock(void)
 349:../cmsis/system_stm32f4xx.c **** {
  78              		.loc 1 349 0
  79              		.cfi_startproc
  80              		@ args = 0, pretend = 0, frame = 8
  81              		@ frame_needed = 0, uses_anonymous_args = 0
  82              		@ link register save eliminated.
  83 0000 82B0     		sub	sp, sp, #8	@,,
  84              	.LCFI0:
  85              		.cfi_def_cfa_offset 8
 350:../cmsis/system_stm32f4xx.c **** /******************************************************************************/
 351:../cmsis/system_stm32f4xx.c **** /*            PLL (clocked by HSE) used as System clock source                */
 352:../cmsis/system_stm32f4xx.c **** /******************************************************************************/
 353:../cmsis/system_stm32f4xx.c ****   __IO uint32_t StartUpCounter = 0, HSEStatus = 0;
 354:../cmsis/system_stm32f4xx.c ****   
 355:../cmsis/system_stm32f4xx.c ****   /* Enable HSE */
 356:../cmsis/system_stm32f4xx.c ****   RCC->CR |= ((uint32_t)RCC_CR_HSEON);
  86              		.loc 1 356 0
  87 0002 4FF46052 		mov	r2, #14336	@ tmp166,
 353:../cmsis/system_stm32f4xx.c ****   __IO uint32_t StartUpCounter = 0, HSEStatus = 0;
  88              		.loc 1 353 0
  89 0006 0023     		movs	r3, #0	@ tmp164,
  90              		.loc 1 356 0
  91 0008 C4F20202 		movt	r2, 16386	@ tmp166,
 353:../cmsis/system_stm32f4xx.c ****   __IO uint32_t StartUpCounter = 0, HSEStatus = 0;
  92              		.loc 1 353 0
  93 000c 0093     		str	r3, [sp, #0]	@ tmp164, StartUpCounter
  94              	.LVL0:
  95 000e 0193     		str	r3, [sp, #4]	@ tmp164, HSEStatus
  96              	.LVL1:
  97              		.loc 1 356 0
  98 0010 1368     		ldr	r3, [r2, #0]	@ D.5971, MEM[(struct RCC_TypeDef *)1073887232B].CR
ARM GAS  /tmp/ccLt1DA2.s 			page 9


  99 0012 43F48033 		orr	r3, r3, #65536	@ D.5972, D.5971,
 100 0016 1360     		str	r3, [r2, #0]	@ D.5972, MEM[(struct RCC_TypeDef *)1073887232B].CR
 101 0018 03E0     		b	.L3	@
 102              	.L13:
 357:../cmsis/system_stm32f4xx.c ****  
 358:../cmsis/system_stm32f4xx.c ****   /* Wait till HSE is ready and if Time out is reached exit */
 359:../cmsis/system_stm32f4xx.c ****   do
 360:../cmsis/system_stm32f4xx.c ****   {
 361:../cmsis/system_stm32f4xx.c ****     HSEStatus = RCC->CR & RCC_CR_HSERDY;
 362:../cmsis/system_stm32f4xx.c ****     StartUpCounter++;
 363:../cmsis/system_stm32f4xx.c ****   } while((HSEStatus == 0) && (StartUpCounter != HSE_STARTUP_TIMEOUT));
 103              		.loc 1 363 0 discriminator 1
 104 001a 009B     		ldr	r3, [sp, #0]	@ StartUpCounter.8, StartUpCounter
 105 001c B3F5A06F 		cmp	r3, #1280	@ StartUpCounter.8,
 106 0020 09D0     		beq	.L2	@,
 107              	.L3:
 361:../cmsis/system_stm32f4xx.c ****     HSEStatus = RCC->CR & RCC_CR_HSERDY;
 108              		.loc 1 361 0 discriminator 1
 109 0022 1368     		ldr	r3, [r2, #0]	@ D.5973, MEM[(struct RCC_TypeDef *)1073887232B].CR
 110 0024 03F40033 		and	r3, r3, #131072	@ HSEStatus.4, D.5973,
 111              	.LVL2:
 112 0028 0193     		str	r3, [sp, #4]	@ HSEStatus.4, HSEStatus
 113              	.LVL3:
 362:../cmsis/system_stm32f4xx.c ****     StartUpCounter++;
 114              		.loc 1 362 0 discriminator 1
 115 002a 009B     		ldr	r3, [sp, #0]	@ StartUpCounter.5, StartUpCounter
 116              	.LVL4:
 117 002c 0133     		adds	r3, r3, #1	@ StartUpCounter.6, StartUpCounter.5,
 118              	.LVL5:
 119 002e 0093     		str	r3, [sp, #0]	@ StartUpCounter.6, StartUpCounter
 120              	.LVL6:
 121              		.loc 1 363 0 discriminator 1
 122 0030 019B     		ldr	r3, [sp, #4]	@ HSEStatus.7, HSEStatus
 123              	.LVL7:
 124 0032 002B     		cmp	r3, #0	@ HSEStatus.7
 125 0034 F1D0     		beq	.L13	@
 126              	.L2:
 364:../cmsis/system_stm32f4xx.c **** 
 365:../cmsis/system_stm32f4xx.c ****   if ((RCC->CR & RCC_CR_HSERDY) != RESET)
 127              		.loc 1 365 0
 128 0036 4FF46053 		mov	r3, #14336	@ tmp169,
 129 003a C4F20203 		movt	r3, 16386	@ tmp169,
 130 003e 1B68     		ldr	r3, [r3, #0]	@ D.5980, MEM[(struct RCC_TypeDef *)1073887232B].CR
 131 0040 13F40033 		ands	r3, r3, #131072	@ tmp170, D.5980,
 366:../cmsis/system_stm32f4xx.c ****   {
 367:../cmsis/system_stm32f4xx.c ****     HSEStatus = (uint32_t)0x01;
 368:../cmsis/system_stm32f4xx.c ****   }
 369:../cmsis/system_stm32f4xx.c ****   else
 370:../cmsis/system_stm32f4xx.c ****   {
 371:../cmsis/system_stm32f4xx.c ****     HSEStatus = (uint32_t)0x00;
 132              		.loc 1 371 0
 133 0044 08BF     		it	eq
 134 0046 0193     		streq	r3, [sp, #4]	@ tmp170, HSEStatus
 365:../cmsis/system_stm32f4xx.c ****   if ((RCC->CR & RCC_CR_HSERDY) != RESET)
 135              		.loc 1 365 0
 136 0048 01D0     		beq	.L5	@,
 367:../cmsis/system_stm32f4xx.c ****     HSEStatus = (uint32_t)0x01;
ARM GAS  /tmp/ccLt1DA2.s 			page 10


 137              		.loc 1 367 0
 138 004a 0123     		movs	r3, #1	@ tmp171,
 139 004c 0193     		str	r3, [sp, #4]	@ tmp171, HSEStatus
 140              	.L5:
 372:../cmsis/system_stm32f4xx.c ****   }
 373:../cmsis/system_stm32f4xx.c **** 
 374:../cmsis/system_stm32f4xx.c ****   if (HSEStatus == (uint32_t)0x01)
 141              		.loc 1 374 0
 142 004e 019B     		ldr	r3, [sp, #4]	@ HSEStatus.9, HSEStatus
 143 0050 012B     		cmp	r3, #1	@ HSEStatus.9,
 144 0052 01D0     		beq	.L14	@,
 145              	.L1:
 375:../cmsis/system_stm32f4xx.c ****   {
 376:../cmsis/system_stm32f4xx.c ****     /* Select regulator voltage output Scale 1 mode, System frequency up to 168 MHz */
 377:../cmsis/system_stm32f4xx.c ****     RCC->APB1ENR |= RCC_APB1ENR_PWREN;
 378:../cmsis/system_stm32f4xx.c ****     PWR->CR |= PWR_CR_VOS;
 379:../cmsis/system_stm32f4xx.c **** 
 380:../cmsis/system_stm32f4xx.c ****     /* HCLK = SYSCLK / 1*/
 381:../cmsis/system_stm32f4xx.c ****     RCC->CFGR |= RCC_CFGR_HPRE_DIV1;
 382:../cmsis/system_stm32f4xx.c ****       
 383:../cmsis/system_stm32f4xx.c ****     /* PCLK2 = HCLK / 2*/
 384:../cmsis/system_stm32f4xx.c ****     RCC->CFGR |= RCC_CFGR_PPRE2_DIV2;
 385:../cmsis/system_stm32f4xx.c ****     
 386:../cmsis/system_stm32f4xx.c ****     /* PCLK1 = HCLK / 4*/
 387:../cmsis/system_stm32f4xx.c ****     RCC->CFGR |= RCC_CFGR_PPRE1_DIV4;
 388:../cmsis/system_stm32f4xx.c **** 
 389:../cmsis/system_stm32f4xx.c ****     /* Configure the main PLL */
 390:../cmsis/system_stm32f4xx.c ****     RCC->PLLCFGR = PLL_M | (PLL_N << 6) | (((PLL_P >> 1) -1) << 16) |
 391:../cmsis/system_stm32f4xx.c ****                    (RCC_PLLCFGR_PLLSRC_HSE) | (PLL_Q << 24);
 392:../cmsis/system_stm32f4xx.c **** 
 393:../cmsis/system_stm32f4xx.c ****     /* Enable the main PLL */
 394:../cmsis/system_stm32f4xx.c ****     RCC->CR |= RCC_CR_PLLON;
 395:../cmsis/system_stm32f4xx.c **** 
 396:../cmsis/system_stm32f4xx.c ****     /* Wait till the main PLL is ready */
 397:../cmsis/system_stm32f4xx.c ****     while((RCC->CR & RCC_CR_PLLRDY) == 0)
 398:../cmsis/system_stm32f4xx.c ****     {
 399:../cmsis/system_stm32f4xx.c ****     }
 400:../cmsis/system_stm32f4xx.c ****    
 401:../cmsis/system_stm32f4xx.c ****     /* Configure Flash prefetch, Instruction cache, Data cache and wait state */
 402:../cmsis/system_stm32f4xx.c ****     FLASH->ACR = FLASH_ACR_ICEN |FLASH_ACR_DCEN |FLASH_ACR_LATENCY_5WS;
 403:../cmsis/system_stm32f4xx.c **** 
 404:../cmsis/system_stm32f4xx.c ****     /* Select the main PLL as system clock source */
 405:../cmsis/system_stm32f4xx.c ****     RCC->CFGR &= (uint32_t)((uint32_t)~(RCC_CFGR_SW));
 406:../cmsis/system_stm32f4xx.c ****     RCC->CFGR |= RCC_CFGR_SW_PLL;
 407:../cmsis/system_stm32f4xx.c **** 
 408:../cmsis/system_stm32f4xx.c ****     /* Wait till the main PLL is used as system clock source */
 409:../cmsis/system_stm32f4xx.c ****     while ((RCC->CFGR & (uint32_t)RCC_CFGR_SWS ) != RCC_CFGR_SWS_PLL);
 410:../cmsis/system_stm32f4xx.c ****     {
 411:../cmsis/system_stm32f4xx.c ****     }
 412:../cmsis/system_stm32f4xx.c ****   }
 413:../cmsis/system_stm32f4xx.c ****   else
 414:../cmsis/system_stm32f4xx.c ****   { /* If HSE fails to start-up, the application will have wrong clock
 415:../cmsis/system_stm32f4xx.c ****          configuration. User can add here some code to deal with this error */
 416:../cmsis/system_stm32f4xx.c ****   }
 417:../cmsis/system_stm32f4xx.c **** 
 418:../cmsis/system_stm32f4xx.c **** }
 146              		.loc 1 418 0
ARM GAS  /tmp/ccLt1DA2.s 			page 11


 147 0054 02B0     		add	sp, sp, #8	@,,
 148 0056 7047     		bx	lr
 149              	.L14:
 377:../cmsis/system_stm32f4xx.c ****     RCC->APB1ENR |= RCC_APB1ENR_PWREN;
 150              		.loc 1 377 0
 151 0058 4FF46053 		mov	r3, #14336	@ tmp173,
 152 005c C4F20203 		movt	r3, 16386	@ tmp173,
 378:../cmsis/system_stm32f4xx.c ****     PWR->CR |= PWR_CR_VOS;
 153              		.loc 1 378 0
 154 0060 4FF4E042 		mov	r2, #28672	@ tmp175,
 377:../cmsis/system_stm32f4xx.c ****     RCC->APB1ENR |= RCC_APB1ENR_PWREN;
 155              		.loc 1 377 0
 156 0064 196C     		ldr	r1, [r3, #64]	@ D.5988, MEM[(struct RCC_TypeDef *)1073887232B].APB1ENR
 378:../cmsis/system_stm32f4xx.c ****     PWR->CR |= PWR_CR_VOS;
 157              		.loc 1 378 0
 158 0066 C4F20002 		movt	r2, 16384	@ tmp175,
 377:../cmsis/system_stm32f4xx.c ****     RCC->APB1ENR |= RCC_APB1ENR_PWREN;
 159              		.loc 1 377 0
 160 006a 41F08051 		orr	r1, r1, #268435456	@ D.5989, D.5988,
 161 006e 1964     		str	r1, [r3, #64]	@ D.5989, MEM[(struct RCC_TypeDef *)1073887232B].APB1ENR
 378:../cmsis/system_stm32f4xx.c ****     PWR->CR |= PWR_CR_VOS;
 162              		.loc 1 378 0
 163 0070 1168     		ldr	r1, [r2, #0]	@ D.5991, MEM[(struct PWR_TypeDef *)1073770496B].CR
 164 0072 41F48041 		orr	r1, r1, #16384	@ D.5992, D.5991,
 165 0076 1160     		str	r1, [r2, #0]	@ D.5992, MEM[(struct PWR_TypeDef *)1073770496B].CR
 381:../cmsis/system_stm32f4xx.c ****     RCC->CFGR |= RCC_CFGR_HPRE_DIV1;
 166              		.loc 1 381 0
 167 0078 9A68     		ldr	r2, [r3, #8]	@ D.5993, MEM[(struct RCC_TypeDef *)1073887232B].CFGR
 168 007a 9A60     		str	r2, [r3, #8]	@ D.5993, MEM[(struct RCC_TypeDef *)1073887232B].CFGR
 384:../cmsis/system_stm32f4xx.c ****     RCC->CFGR |= RCC_CFGR_PPRE2_DIV2;
 169              		.loc 1 384 0
 170 007c 9A68     		ldr	r2, [r3, #8]	@ D.5994, MEM[(struct RCC_TypeDef *)1073887232B].CFGR
 171 007e 42F40042 		orr	r2, r2, #32768	@ D.5995, D.5994,
 172 0082 9A60     		str	r2, [r3, #8]	@ D.5995, MEM[(struct RCC_TypeDef *)1073887232B].CFGR
 387:../cmsis/system_stm32f4xx.c ****     RCC->CFGR |= RCC_CFGR_PPRE1_DIV4;
 173              		.loc 1 387 0
 174 0084 9968     		ldr	r1, [r3, #8]	@ D.5996, MEM[(struct RCC_TypeDef *)1073887232B].CFGR
 390:../cmsis/system_stm32f4xx.c ****     RCC->PLLCFGR = PLL_M | (PLL_N << 6) | (((PLL_P >> 1) -1) << 16) |
 175              		.loc 1 390 0
 176 0086 45F20842 		movw	r2, #21512	@ tmp184,
 387:../cmsis/system_stm32f4xx.c ****     RCC->CFGR |= RCC_CFGR_PPRE1_DIV4;
 177              		.loc 1 387 0
 178 008a 41F4A051 		orr	r1, r1, #5120	@ D.5997, D.5996,
 390:../cmsis/system_stm32f4xx.c ****     RCC->PLLCFGR = PLL_M | (PLL_N << 6) | (((PLL_P >> 1) -1) << 16) |
 179              		.loc 1 390 0
 180 008e C0F24072 		movt	r2, 1856	@ tmp184,
 387:../cmsis/system_stm32f4xx.c ****     RCC->CFGR |= RCC_CFGR_PPRE1_DIV4;
 181              		.loc 1 387 0
 182 0092 9960     		str	r1, [r3, #8]	@ D.5997, MEM[(struct RCC_TypeDef *)1073887232B].CFGR
 390:../cmsis/system_stm32f4xx.c ****     RCC->PLLCFGR = PLL_M | (PLL_N << 6) | (((PLL_P >> 1) -1) << 16) |
 183              		.loc 1 390 0
 184 0094 5A60     		str	r2, [r3, #4]	@ tmp184, MEM[(struct RCC_TypeDef *)1073887232B].PLLCFGR
 394:../cmsis/system_stm32f4xx.c ****     RCC->CR |= RCC_CR_PLLON;
 185              		.loc 1 394 0
 186 0096 1A68     		ldr	r2, [r3, #0]	@ D.5998, MEM[(struct RCC_TypeDef *)1073887232B].CR
 187 0098 42F08072 		orr	r2, r2, #16777216	@ D.5999, D.5998,
 188 009c 1A60     		str	r2, [r3, #0]	@ D.5999, MEM[(struct RCC_TypeDef *)1073887232B].CR
ARM GAS  /tmp/ccLt1DA2.s 			page 12


 397:../cmsis/system_stm32f4xx.c ****     while((RCC->CR & RCC_CR_PLLRDY) == 0)
 189              		.loc 1 397 0
 190 009e 1946     		mov	r1, r3	@ tmp198, tmp173
 191              	.L7:
 397:../cmsis/system_stm32f4xx.c ****     while((RCC->CR & RCC_CR_PLLRDY) == 0)
 192              		.loc 1 397 0 is_stmt 0 discriminator 1
 193 00a0 0A68     		ldr	r2, [r1, #0]	@ D.6000, MEM[(struct RCC_TypeDef *)1073887232B].CR
 194 00a2 4FF46053 		mov	r3, #14336	@ tmp187,
 195 00a6 9201     		lsls	r2, r2, #6	@, D.6000,
 196 00a8 C4F20203 		movt	r3, 16386	@ tmp187,
 197 00ac F8D5     		bpl	.L7	@,
 402:../cmsis/system_stm32f4xx.c ****     FLASH->ACR = FLASH_ACR_ICEN |FLASH_ACR_DCEN |FLASH_ACR_LATENCY_5WS;
 198              		.loc 1 402 0 is_stmt 1
 199 00ae 4FF47052 		mov	r2, #15360	@ tmp189,
 200 00b2 C4F20202 		movt	r2, 16386	@ tmp189,
 201 00b6 40F20561 		movw	r1, #1541	@ tmp190,
 202 00ba 1160     		str	r1, [r2, #0]	@ tmp190, MEM[(struct FLASH_TypeDef *)1073888256B].ACR
 405:../cmsis/system_stm32f4xx.c ****     RCC->CFGR &= (uint32_t)((uint32_t)~(RCC_CFGR_SW));
 203              		.loc 1 405 0
 204 00bc 9A68     		ldr	r2, [r3, #8]	@ D.6003, MEM[(struct RCC_TypeDef *)1073887232B].CFGR
 205 00be 22F00302 		bic	r2, r2, #3	@ D.6004, D.6003,
 206 00c2 9A60     		str	r2, [r3, #8]	@ D.6004, MEM[(struct RCC_TypeDef *)1073887232B].CFGR
 406:../cmsis/system_stm32f4xx.c ****     RCC->CFGR |= RCC_CFGR_SW_PLL;
 207              		.loc 1 406 0
 208 00c4 9A68     		ldr	r2, [r3, #8]	@ D.6005, MEM[(struct RCC_TypeDef *)1073887232B].CFGR
 209 00c6 42F00202 		orr	r2, r2, #2	@ D.6006, D.6005,
 210 00ca 9A60     		str	r2, [r3, #8]	@ D.6006, MEM[(struct RCC_TypeDef *)1073887232B].CFGR
 211              	.L8:
 409:../cmsis/system_stm32f4xx.c ****     while ((RCC->CFGR & (uint32_t)RCC_CFGR_SWS ) != RCC_CFGR_SWS_PLL);
 212              		.loc 1 409 0 discriminator 1
 213 00cc 9A68     		ldr	r2, [r3, #8]	@ D.6007, MEM[(struct RCC_TypeDef *)1073887232B].CFGR
 214 00ce 02F00C02 		and	r2, r2, #12	@ tmp196, D.6007,
 215 00d2 082A     		cmp	r2, #8	@ tmp196,
 216 00d4 FAD1     		bne	.L8	@,
 217 00d6 BDE7     		b	.L1	@
 218              		.cfi_endproc
 219              	.LFE112:
 220              		.size	SetSysClock, .-SetSysClock
 221 00d8 AFF30080 		.section	.text.SystemInit,"ax",%progbits
 221      AFF30080 
 222              		.align	2
 223              		.p2align 4,,15
 224              		.global	SystemInit
 225              		.thumb
 226              		.thumb_func
 227              		.type	SystemInit, %function
 228              	SystemInit:
 229              	.LFB110:
 215:../cmsis/system_stm32f4xx.c **** {
 230              		.loc 1 215 0
 231              		.cfi_startproc
 232              		@ args = 0, pretend = 0, frame = 0
 233              		@ frame_needed = 0, uses_anonymous_args = 0
 234 0000 10B5     		push	{r4, lr}	@
 235              	.LCFI1:
 236              		.cfi_def_cfa_offset 8
 237              		.cfi_offset 14, -4
ARM GAS  /tmp/ccLt1DA2.s 			page 13


 238              		.cfi_offset 4, -8
 218:../cmsis/system_stm32f4xx.c ****     SCB->CPACR |= ((3UL << 10*2)|(3UL << 11*2));  /* set CP10 and CP11 Full Access */
 239              		.loc 1 218 0
 240 0002 4FF46D44 		mov	r4, #60672	@ tmp142,
 241 0006 CEF20004 		movt	r4, 57344	@ tmp142,
 223:../cmsis/system_stm32f4xx.c ****   RCC->CR |= (uint32_t)0x00000001;
 242              		.loc 1 223 0
 243 000a 4FF46053 		mov	r3, #14336	@ tmp144,
 218:../cmsis/system_stm32f4xx.c ****     SCB->CPACR |= ((3UL << 10*2)|(3UL << 11*2));  /* set CP10 and CP11 Full Access */
 244              		.loc 1 218 0
 245 000e D4F88820 		ldr	r2, [r4, #136]	@ D.5961, MEM[(struct SCB_Type *)3758157056B].CPACR
 223:../cmsis/system_stm32f4xx.c ****   RCC->CR |= (uint32_t)0x00000001;
 246              		.loc 1 223 0
 247 0012 C4F20203 		movt	r3, 16386	@ tmp144,
 218:../cmsis/system_stm32f4xx.c ****     SCB->CPACR |= ((3UL << 10*2)|(3UL << 11*2));  /* set CP10 and CP11 Full Access */
 248              		.loc 1 218 0
 249 0016 42F47002 		orr	r2, r2, #15728640	@ D.5962, D.5961,
 250 001a C4F88820 		str	r2, [r4, #136]	@ D.5962, MEM[(struct SCB_Type *)3758157056B].CPACR
 223:../cmsis/system_stm32f4xx.c ****   RCC->CR |= (uint32_t)0x00000001;
 251              		.loc 1 223 0
 252 001e 1968     		ldr	r1, [r3, #0]	@ D.5964, MEM[(struct RCC_TypeDef *)1073887232B].CR
 226:../cmsis/system_stm32f4xx.c ****   RCC->CFGR = 0x00000000;
 253              		.loc 1 226 0
 254 0020 0022     		movs	r2, #0	@ tmp147,
 223:../cmsis/system_stm32f4xx.c ****   RCC->CR |= (uint32_t)0x00000001;
 255              		.loc 1 223 0
 256 0022 41F00101 		orr	r1, r1, #1	@ D.5965, D.5964,
 257 0026 1960     		str	r1, [r3, #0]	@ D.5965, MEM[(struct RCC_TypeDef *)1073887232B].CR
 226:../cmsis/system_stm32f4xx.c ****   RCC->CFGR = 0x00000000;
 258              		.loc 1 226 0
 259 0028 9A60     		str	r2, [r3, #8]	@ tmp147, MEM[(struct RCC_TypeDef *)1073887232B].CFGR
 229:../cmsis/system_stm32f4xx.c ****   RCC->CR &= (uint32_t)0xFEF6FFFF;
 260              		.loc 1 229 0
 261 002a 1868     		ldr	r0, [r3, #0]	@ D.5966, MEM[(struct RCC_TypeDef *)1073887232B].CR
 232:../cmsis/system_stm32f4xx.c ****   RCC->PLLCFGR = 0x24003010;
 262              		.loc 1 232 0
 263 002c 43F21001 		movw	r1, #12304	@ tmp152,
 229:../cmsis/system_stm32f4xx.c ****   RCC->CR &= (uint32_t)0xFEF6FFFF;
 264              		.loc 1 229 0
 265 0030 20F08470 		bic	r0, r0, #17301504	@ tmp149, D.5966,
 266 0034 20F48030 		bic	r0, r0, #65536	@ D.5967, tmp149,
 232:../cmsis/system_stm32f4xx.c ****   RCC->PLLCFGR = 0x24003010;
 267              		.loc 1 232 0
 268 0038 C2F20041 		movt	r1, 9216	@ tmp152,
 229:../cmsis/system_stm32f4xx.c ****   RCC->CR &= (uint32_t)0xFEF6FFFF;
 269              		.loc 1 229 0
 270 003c 1860     		str	r0, [r3, #0]	@ D.5967, MEM[(struct RCC_TypeDef *)1073887232B].CR
 232:../cmsis/system_stm32f4xx.c ****   RCC->PLLCFGR = 0x24003010;
 271              		.loc 1 232 0
 272 003e 5960     		str	r1, [r3, #4]	@ tmp152, MEM[(struct RCC_TypeDef *)1073887232B].PLLCFGR
 235:../cmsis/system_stm32f4xx.c ****   RCC->CR &= (uint32_t)0xFFFBFFFF;
 273              		.loc 1 235 0
 274 0040 1968     		ldr	r1, [r3, #0]	@ D.5968, MEM[(struct RCC_TypeDef *)1073887232B].CR
 275 0042 21F48021 		bic	r1, r1, #262144	@ D.5969, D.5968,
 276 0046 1960     		str	r1, [r3, #0]	@ D.5969, MEM[(struct RCC_TypeDef *)1073887232B].CR
 238:../cmsis/system_stm32f4xx.c ****   RCC->CIR = 0x00000000;
 277              		.loc 1 238 0
ARM GAS  /tmp/ccLt1DA2.s 			page 14


 278 0048 DA60     		str	r2, [r3, #12]	@ tmp147, MEM[(struct RCC_TypeDef *)1073887232B].CIR
 246:../cmsis/system_stm32f4xx.c ****   SetSysClock();
 279              		.loc 1 246 0
 280 004a FFF7FEFF 		bl	SetSysClock	@
 252:../cmsis/system_stm32f4xx.c ****   SCB->VTOR = FLASH_BASE | VECT_TAB_OFFSET; /* Vector Table Relocation in Internal FLASH */
 281              		.loc 1 252 0
 282 004e 4FF00063 		mov	r3, #134217728	@ tmp158,
 283 0052 A360     		str	r3, [r4, #8]	@ tmp158, MEM[(struct SCB_Type *)3758157056B].VTOR
 254:../cmsis/system_stm32f4xx.c **** }
 284              		.loc 1 254 0
 285 0054 10BD     		pop	{r4, pc}	@
 286              		.cfi_endproc
 287              	.LFE110:
 288              		.size	SystemInit, .-SystemInit
 289 0056 00BFAFF3 		.section	.text.SystemCoreClockUpdate,"ax",%progbits
 289      0080AFF3 
 289      0080
 290              		.align	2
 291              		.p2align 4,,15
 292              		.global	SystemCoreClockUpdate
 293              		.thumb
 294              		.thumb_func
 295              		.type	SystemCoreClockUpdate, %function
 296              	SystemCoreClockUpdate:
 297              	.LFB111:
 293:../cmsis/system_stm32f4xx.c **** {
 298              		.loc 1 293 0
 299              		.cfi_startproc
 300              		@ args = 0, pretend = 0, frame = 0
 301              		@ frame_needed = 0, uses_anonymous_args = 0
 302              		@ link register save eliminated.
 303              	.LVL8:
 297:../cmsis/system_stm32f4xx.c ****   tmp = RCC->CFGR & RCC_CFGR_SWS;
 304              		.loc 1 297 0
 305 0000 4FF46053 		mov	r3, #14336	@ tmp163,
 306 0004 C4F20203 		movt	r3, 16386	@ tmp163,
 307 0008 9A68     		ldr	r2, [r3, #8]	@ D.5933, MEM[(struct RCC_TypeDef *)1073887232B].CFGR
 308              	.LVL9:
 309 000a 02F00C02 		and	r2, r2, #12	@ tmp164, D.5933,
 310              	.LVL10:
 299:../cmsis/system_stm32f4xx.c ****   switch (tmp)
 311              		.loc 1 299 0
 312 000e 042A     		cmp	r2, #4	@ tmp164,
 306:../cmsis/system_stm32f4xx.c ****       break;
 313              		.loc 1 306 0
 314 0010 04BF     		itt	eq
 315 0012 4FF49052 		moveq	r2, #4608	@ prephitmp.16,
 316              	.LVL11:
 317 0016 C0F27A02 		movteq	r2, 122	@ prephitmp.16,
 299:../cmsis/system_stm32f4xx.c ****   switch (tmp)
 318              		.loc 1 299 0
 319 001a 06D0     		beq	.L17	@,
 320 001c 082A     		cmp	r2, #8	@ tmp164,
 321 001e 1CBF     		itt	ne
 322 0020 4FF41052 		movne	r2, #9216	@ prephitmp.16,
 323 0024 C0F2F402 		movtne	r2, 244	@ prephitmp.16,
 324 0028 0CD0     		beq	.L24	@,
ARM GAS  /tmp/ccLt1DA2.s 			page 15


 325              	.LVL12:
 326              	.L17:
 335:../cmsis/system_stm32f4xx.c ****   tmp = AHBPrescTable[((RCC->CFGR & RCC_CFGR_HPRE) >> 4)];
 327              		.loc 1 335 0
 328 002a 4FF46053 		mov	r3, #14336	@ tmp188,
 329 002e C4F20203 		movt	r3, 16386	@ tmp188,
 330 0032 1549     		ldr	r1, .L25	@ tmp190,
 331 0034 9B68     		ldr	r3, [r3, #8]	@ D.5953, MEM[(struct RCC_TypeDef *)1073887232B].CFGR
 332 0036 C3F30313 		ubfx	r3, r3, #4, #4	@ D.5955, D.5953,,
 333 003a CB5C     		ldrb	r3, [r1, r3]	@ zero_extendqisi2	@ tmp192, AHBPrescTable
 334              	.LVL13:
 337:../cmsis/system_stm32f4xx.c ****   SystemCoreClock >>= tmp;
 335              		.loc 1 337 0
 336 003c DA40     		lsrs	r2, r2, r3	@ tmp194, prephitmp.16, tmp192
 337 003e 134B     		ldr	r3, .L25+4	@ tmp193,
 338              	.LVL14:
 339 0040 1A60     		str	r2, [r3, #0]	@ tmp194, SystemCoreClock
 338:../cmsis/system_stm32f4xx.c **** }
 340              		.loc 1 338 0
 341 0042 7047     		bx	lr	@
 342              	.LVL15:
 343              	.L24:
 312:../cmsis/system_stm32f4xx.c ****       pllsource = (RCC->PLLCFGR & RCC_PLLCFGR_PLLSRC) >> 22;
 344              		.loc 1 312 0
 345 0044 5868     		ldr	r0, [r3, #4]	@ D.5934, MEM[(struct RCC_TypeDef *)1073887232B].PLLCFGR
 346              	.LVL16:
 313:../cmsis/system_stm32f4xx.c ****       pllm = RCC->PLLCFGR & RCC_PLLCFGR_PLLM;
 347              		.loc 1 313 0
 348 0046 5968     		ldr	r1, [r3, #4]	@ D.5936, MEM[(struct RCC_TypeDef *)1073887232B].PLLCFGR
 315:../cmsis/system_stm32f4xx.c ****       if (pllsource != 0)
 349              		.loc 1 315 0
 350 0048 10F4800F 		tst	r0, #4194304	@ D.5934,
 318:../cmsis/system_stm32f4xx.c ****         pllvco = (HSE_VALUE / pllm) * ((RCC->PLLCFGR & RCC_PLLCFGR_PLLN) >> 6);
 351              		.loc 1 318 0
 352 004c 5868     		ldr	r0, [r3, #4]	@ D.5940,
 353              	.LVL17:
 354 004e 15BF     		itete	ne
 355 0050 4FF49053 		movne	r3, #4608	@ tmp175,
 323:../cmsis/system_stm32f4xx.c ****         pllvco = (HSI_VALUE / pllm) * ((RCC->PLLCFGR & RCC_PLLCFGR_PLLN) >> 6);      
 356              		.loc 1 323 0
 357 0054 4FF41053 		moveq	r3, #9216	@ tmp182,
 318:../cmsis/system_stm32f4xx.c ****         pllvco = (HSE_VALUE / pllm) * ((RCC->PLLCFGR & RCC_PLLCFGR_PLLN) >> 6);
 358              		.loc 1 318 0
 359 0058 C0F27A03 		movtne	r3, 122	@ tmp175,
 323:../cmsis/system_stm32f4xx.c ****         pllvco = (HSI_VALUE / pllm) * ((RCC->PLLCFGR & RCC_PLLCFGR_PLLN) >> 6);      
 360              		.loc 1 323 0
 361 005c C0F2F403 		movteq	r3, 244	@ tmp182,
 313:../cmsis/system_stm32f4xx.c ****       pllm = RCC->PLLCFGR & RCC_PLLCFGR_PLLM;
 362              		.loc 1 313 0
 363 0060 01F03F01 		and	r1, r1, #63	@ pllm, D.5936,
 364              	.LVL18:
 323:../cmsis/system_stm32f4xx.c ****         pllvco = (HSI_VALUE / pllm) * ((RCC->PLLCFGR & RCC_PLLCFGR_PLLN) >> 6);      
 365              		.loc 1 323 0
 366 0064 B3FBF1F2 		udiv	r2, r3, r1	@ tmp181, tmp182, pllm
 326:../cmsis/system_stm32f4xx.c ****       pllp = (((RCC->PLLCFGR & RCC_PLLCFGR_PLLP) >>16) + 1 ) *2;
 367              		.loc 1 326 0
 368 0068 4FF46053 		mov	r3, #14336	@ tmp183,
ARM GAS  /tmp/ccLt1DA2.s 			page 16


 369 006c C4F20203 		movt	r3, 16386	@ tmp183,
 323:../cmsis/system_stm32f4xx.c ****         pllvco = (HSI_VALUE / pllm) * ((RCC->PLLCFGR & RCC_PLLCFGR_PLLN) >> 6);      
 370              		.loc 1 323 0
 371 0070 C0F38810 		ubfx	r0, r0, #6, #9	@ tmp179, D.5945,,
 326:../cmsis/system_stm32f4xx.c ****       pllp = (((RCC->PLLCFGR & RCC_PLLCFGR_PLLP) >>16) + 1 ) *2;
 372              		.loc 1 326 0
 373 0074 5B68     		ldr	r3, [r3, #4]	@ D.5948, MEM[(struct RCC_TypeDef *)1073887232B].PLLCFGR
 374 0076 C3F30143 		ubfx	r3, r3, #16, #2	@ tmp185, D.5948,,
 375 007a 0133     		adds	r3, r3, #1	@ tmp186, tmp185,
 323:../cmsis/system_stm32f4xx.c ****         pllvco = (HSI_VALUE / pllm) * ((RCC->PLLCFGR & RCC_PLLCFGR_PLLN) >> 6);      
 376              		.loc 1 323 0
 377 007c 02FB00F2 		mul	r2, r2, r0	@ pllvco, tmp181, tmp179
 378              	.LVL19:
 326:../cmsis/system_stm32f4xx.c ****       pllp = (((RCC->PLLCFGR & RCC_PLLCFGR_PLLP) >>16) + 1 ) *2;
 379              		.loc 1 326 0
 380 0080 5B00     		lsls	r3, r3, #1	@ tmp187, tmp186,
 327:../cmsis/system_stm32f4xx.c ****       SystemCoreClock = pllvco/pllp;
 381              		.loc 1 327 0
 382 0082 B2FBF3F2 		udiv	r2, r2, r3	@ prephitmp.16, pllvco, tmp187
 383              	.LVL20:
 328:../cmsis/system_stm32f4xx.c ****       break;
 384              		.loc 1 328 0
 385 0086 D0E7     		b	.L17	@
 386              	.L26:
 387              		.align	2
 388              	.L25:
 389 0088 00000000 		.word	.LANCHOR0
 390 008c 00000000 		.word	.LANCHOR1
 391              		.cfi_endproc
 392              	.LFE111:
 393              		.size	SystemCoreClockUpdate, .-SystemCoreClockUpdate
 394              		.global	AHBPrescTable
 395              		.global	SystemCoreClock
 396              		.section	.data.AHBPrescTable,"aw",%progbits
 397              		.align	2
 398              		.set	.LANCHOR0,. + 0
 399              		.type	AHBPrescTable, %object
 400              		.size	AHBPrescTable, 16
 401              	AHBPrescTable:
 402 0000 00       		.byte	0
 403 0001 00       		.byte	0
 404 0002 00       		.byte	0
 405 0003 00       		.byte	0
 406 0004 00       		.byte	0
 407 0005 00       		.byte	0
 408 0006 00       		.byte	0
 409 0007 00       		.byte	0
 410 0008 01       		.byte	1
 411 0009 02       		.byte	2
 412 000a 03       		.byte	3
 413 000b 04       		.byte	4
 414 000c 06       		.byte	6
 415 000d 07       		.byte	7
 416 000e 08       		.byte	8
 417 000f 09       		.byte	9
 418              		.section	.data.SystemCoreClock,"aw",%progbits
 419              		.align	2
ARM GAS  /tmp/ccLt1DA2.s 			page 17


 420              		.set	.LANCHOR1,. + 0
 421              		.type	SystemCoreClock, %object
 422              		.size	SystemCoreClock, 4
 423              	SystemCoreClock:
 424 0000 007A030A 		.word	168000000
 425              		.text
 426              	.Letext0:
 427              		.file 2 "/home/xavier/sat/lib/gcc/arm-none-eabi/4.6.2/../../../../arm-none-eabi/include/stdint.h"
 428              		.file 3 "../cmsis/core_cm4.h"
 429              		.file 4 "../inc/stm32f4xx.h"
 430              		.file 5 "../cmsis/system_stm32f4xx.h"